
L433RC.elf:     file format elf32-littlearm

Sections:
Idx Name          Size      VMA       LMA       File off  Algn
  0 .isr_vector   0000018c  08000000  08000000  00001000  2**0
                  CONTENTS, ALLOC, LOAD, READONLY, DATA
  1 .text         00008454  08000190  08000190  00001190  2**4
                  CONTENTS, ALLOC, LOAD, READONLY, CODE
  2 .rodata       000000a0  080085e4  080085e4  000095e4  2**2
                  CONTENTS, ALLOC, LOAD, READONLY, DATA
  3 .ARM.extab    00000000  08008684  08008684  0000a088  2**0
                  CONTENTS, READONLY
  4 .ARM          00000008  08008684  08008684  00009684  2**2
                  CONTENTS, ALLOC, LOAD, READONLY, DATA
  5 .preinit_array 00000000  0800868c  0800868c  0000a088  2**0
                  CONTENTS, ALLOC, LOAD, DATA
  6 .init_array   00000004  0800868c  0800868c  0000968c  2**2
                  CONTENTS, ALLOC, LOAD, READONLY, DATA
  7 .fini_array   00000004  08008690  08008690  00009690  2**2
                  CONTENTS, ALLOC, LOAD, READONLY, DATA
  8 .data         00000088  20000000  08008694  0000a000  2**2
                  CONTENTS, ALLOC, LOAD, DATA
  9 .bss          00000784  20000088  0800871c  0000a088  2**2
                  ALLOC
 10 ._user_heap_stack 00000604  2000080c  0800871c  0000a80c  2**0
                  ALLOC
 11 .ARM.attributes 00000030  00000000  00000000  0000a088  2**0
                  CONTENTS, READONLY
 12 .debug_info   00013780  00000000  00000000  0000a0b8  2**0
                  CONTENTS, READONLY, DEBUGGING, OCTETS
 13 .debug_abbrev 00003a5f  00000000  00000000  0001d838  2**0
                  CONTENTS, READONLY, DEBUGGING, OCTETS
 14 .debug_aranges 00001020  00000000  00000000  00021298  2**3
                  CONTENTS, READONLY, DEBUGGING, OCTETS
 15 .debug_rnglists 00000c38  00000000  00000000  000222b8  2**0
                  CONTENTS, READONLY, DEBUGGING, OCTETS
 16 .debug_macro  00026d1f  00000000  00000000  00022ef0  2**0
                  CONTENTS, READONLY, DEBUGGING, OCTETS
 17 .debug_line   00018899  00000000  00000000  00049c0f  2**0
                  CONTENTS, READONLY, DEBUGGING, OCTETS
 18 .debug_str    000deb17  00000000  00000000  000624a8  2**0
                  CONTENTS, READONLY, DEBUGGING, OCTETS
 19 .comment      00000043  00000000  00000000  00140fbf  2**0
                  CONTENTS, READONLY
 20 .debug_frame  000047f0  00000000  00000000  00141004  2**2
                  CONTENTS, READONLY, DEBUGGING, OCTETS
 21 .debug_line_str 00000065  00000000  00000000  001457f4  2**0
                  CONTENTS, READONLY, DEBUGGING, OCTETS

Disassembly of section .text:

08000190 <__do_global_dtors_aux>:
 8000190:	b510      	push	{r4, lr}
 8000192:	4c05      	ldr	r4, [pc, #20]	@ (80001a8 <__do_global_dtors_aux+0x18>)
 8000194:	7823      	ldrb	r3, [r4, #0]
 8000196:	b933      	cbnz	r3, 80001a6 <__do_global_dtors_aux+0x16>
 8000198:	4b04      	ldr	r3, [pc, #16]	@ (80001ac <__do_global_dtors_aux+0x1c>)
 800019a:	b113      	cbz	r3, 80001a2 <__do_global_dtors_aux+0x12>
 800019c:	4804      	ldr	r0, [pc, #16]	@ (80001b0 <__do_global_dtors_aux+0x20>)
 800019e:	f3af 8000 	nop.w
 80001a2:	2301      	movs	r3, #1
 80001a4:	7023      	strb	r3, [r4, #0]
 80001a6:	bd10      	pop	{r4, pc}
 80001a8:	20000088 	.word	0x20000088
 80001ac:	00000000 	.word	0x00000000
 80001b0:	080085cc 	.word	0x080085cc

080001b4 <frame_dummy>:
 80001b4:	b508      	push	{r3, lr}
 80001b6:	4b03      	ldr	r3, [pc, #12]	@ (80001c4 <frame_dummy+0x10>)
 80001b8:	b11b      	cbz	r3, 80001c2 <frame_dummy+0xe>
 80001ba:	4903      	ldr	r1, [pc, #12]	@ (80001c8 <frame_dummy+0x14>)
 80001bc:	4803      	ldr	r0, [pc, #12]	@ (80001cc <frame_dummy+0x18>)
 80001be:	f3af 8000 	nop.w
 80001c2:	bd08      	pop	{r3, pc}
 80001c4:	00000000 	.word	0x00000000
 80001c8:	2000008c 	.word	0x2000008c
 80001cc:	080085cc 	.word	0x080085cc

080001d0 <strlen>:
 80001d0:	4603      	mov	r3, r0
 80001d2:	f813 2b01 	ldrb.w	r2, [r3], #1
 80001d6:	2a00      	cmp	r2, #0
 80001d8:	d1fb      	bne.n	80001d2 <strlen+0x2>
 80001da:	1a18      	subs	r0, r3, r0
 80001dc:	3801      	subs	r0, #1
 80001de:	4770      	bx	lr

080001e0 <memchr>:
 80001e0:	f001 01ff 	and.w	r1, r1, #255	@ 0xff
 80001e4:	2a10      	cmp	r2, #16
 80001e6:	db2b      	blt.n	8000240 <memchr+0x60>
 80001e8:	f010 0f07 	tst.w	r0, #7
 80001ec:	d008      	beq.n	8000200 <memchr+0x20>
 80001ee:	f810 3b01 	ldrb.w	r3, [r0], #1
 80001f2:	3a01      	subs	r2, #1
 80001f4:	428b      	cmp	r3, r1
 80001f6:	d02d      	beq.n	8000254 <memchr+0x74>
 80001f8:	f010 0f07 	tst.w	r0, #7
 80001fc:	b342      	cbz	r2, 8000250 <memchr+0x70>
 80001fe:	d1f6      	bne.n	80001ee <memchr+0xe>
 8000200:	b4f0      	push	{r4, r5, r6, r7}
 8000202:	ea41 2101 	orr.w	r1, r1, r1, lsl #8
 8000206:	ea41 4101 	orr.w	r1, r1, r1, lsl #16
 800020a:	f022 0407 	bic.w	r4, r2, #7
 800020e:	f07f 0700 	mvns.w	r7, #0
 8000212:	2300      	movs	r3, #0
 8000214:	e8f0 5602 	ldrd	r5, r6, [r0], #8
 8000218:	3c08      	subs	r4, #8
 800021a:	ea85 0501 	eor.w	r5, r5, r1
 800021e:	ea86 0601 	eor.w	r6, r6, r1
 8000222:	fa85 f547 	uadd8	r5, r5, r7
 8000226:	faa3 f587 	sel	r5, r3, r7
 800022a:	fa86 f647 	uadd8	r6, r6, r7
 800022e:	faa5 f687 	sel	r6, r5, r7
 8000232:	b98e      	cbnz	r6, 8000258 <memchr+0x78>
 8000234:	d1ee      	bne.n	8000214 <memchr+0x34>
 8000236:	bcf0      	pop	{r4, r5, r6, r7}
 8000238:	f001 01ff 	and.w	r1, r1, #255	@ 0xff
 800023c:	f002 0207 	and.w	r2, r2, #7
 8000240:	b132      	cbz	r2, 8000250 <memchr+0x70>
 8000242:	f810 3b01 	ldrb.w	r3, [r0], #1
 8000246:	3a01      	subs	r2, #1
 8000248:	ea83 0301 	eor.w	r3, r3, r1
 800024c:	b113      	cbz	r3, 8000254 <memchr+0x74>
 800024e:	d1f8      	bne.n	8000242 <memchr+0x62>
 8000250:	2000      	movs	r0, #0
 8000252:	4770      	bx	lr
 8000254:	3801      	subs	r0, #1
 8000256:	4770      	bx	lr
 8000258:	2d00      	cmp	r5, #0
 800025a:	bf06      	itte	eq
 800025c:	4635      	moveq	r5, r6
 800025e:	3803      	subeq	r0, #3
 8000260:	3807      	subne	r0, #7
 8000262:	f015 0f01 	tst.w	r5, #1
 8000266:	d107      	bne.n	8000278 <memchr+0x98>
 8000268:	3001      	adds	r0, #1
 800026a:	f415 7f80 	tst.w	r5, #256	@ 0x100
 800026e:	bf02      	ittt	eq
 8000270:	3001      	addeq	r0, #1
 8000272:	f415 3fc0 	tsteq.w	r5, #98304	@ 0x18000
 8000276:	3001      	addeq	r0, #1
 8000278:	bcf0      	pop	{r4, r5, r6, r7}
 800027a:	3801      	subs	r0, #1
 800027c:	4770      	bx	lr
 800027e:	bf00      	nop

08000280 <__aeabi_uldivmod>:
 8000280:	b953      	cbnz	r3, 8000298 <__aeabi_uldivmod+0x18>
 8000282:	b94a      	cbnz	r2, 8000298 <__aeabi_uldivmod+0x18>
 8000284:	2900      	cmp	r1, #0
 8000286:	bf08      	it	eq
 8000288:	2800      	cmpeq	r0, #0
 800028a:	bf1c      	itt	ne
 800028c:	f04f 31ff 	movne.w	r1, #4294967295
 8000290:	f04f 30ff 	movne.w	r0, #4294967295
 8000294:	f000 b988 	b.w	80005a8 <__aeabi_idiv0>
 8000298:	f1ad 0c08 	sub.w	ip, sp, #8
 800029c:	e96d ce04 	strd	ip, lr, [sp, #-16]!
 80002a0:	f000 f806 	bl	80002b0 <__udivmoddi4>
 80002a4:	f8dd e004 	ldr.w	lr, [sp, #4]
 80002a8:	e9dd 2302 	ldrd	r2, r3, [sp, #8]
 80002ac:	b004      	add	sp, #16
 80002ae:	4770      	bx	lr

080002b0 <__udivmoddi4>:
 80002b0:	e92d 47f0 	stmdb	sp!, {r4, r5, r6, r7, r8, r9, sl, lr}
 80002b4:	9d08      	ldr	r5, [sp, #32]
 80002b6:	468e      	mov	lr, r1
 80002b8:	4604      	mov	r4, r0
 80002ba:	4688      	mov	r8, r1
 80002bc:	2b00      	cmp	r3, #0
 80002be:	d14a      	bne.n	8000356 <__udivmoddi4+0xa6>
 80002c0:	428a      	cmp	r2, r1
 80002c2:	4617      	mov	r7, r2
 80002c4:	d962      	bls.n	800038c <__udivmoddi4+0xdc>
 80002c6:	fab2 f682 	clz	r6, r2
 80002ca:	b14e      	cbz	r6, 80002e0 <__udivmoddi4+0x30>
 80002cc:	f1c6 0320 	rsb	r3, r6, #32
 80002d0:	fa01 f806 	lsl.w	r8, r1, r6
 80002d4:	fa20 f303 	lsr.w	r3, r0, r3
 80002d8:	40b7      	lsls	r7, r6
 80002da:	ea43 0808 	orr.w	r8, r3, r8
 80002de:	40b4      	lsls	r4, r6
 80002e0:	ea4f 4e17 	mov.w	lr, r7, lsr #16
 80002e4:	fa1f fc87 	uxth.w	ip, r7
 80002e8:	fbb8 f1fe 	udiv	r1, r8, lr
 80002ec:	0c23      	lsrs	r3, r4, #16
 80002ee:	fb0e 8811 	mls	r8, lr, r1, r8
 80002f2:	ea43 4308 	orr.w	r3, r3, r8, lsl #16
 80002f6:	fb01 f20c 	mul.w	r2, r1, ip
 80002fa:	429a      	cmp	r2, r3
 80002fc:	d909      	bls.n	8000312 <__udivmoddi4+0x62>
 80002fe:	18fb      	adds	r3, r7, r3
 8000300:	f101 30ff 	add.w	r0, r1, #4294967295
 8000304:	f080 80ea 	bcs.w	80004dc <__udivmoddi4+0x22c>
 8000308:	429a      	cmp	r2, r3
 800030a:	f240 80e7 	bls.w	80004dc <__udivmoddi4+0x22c>
 800030e:	3902      	subs	r1, #2
 8000310:	443b      	add	r3, r7
 8000312:	1a9a      	subs	r2, r3, r2
 8000314:	b2a3      	uxth	r3, r4
 8000316:	fbb2 f0fe 	udiv	r0, r2, lr
 800031a:	fb0e 2210 	mls	r2, lr, r0, r2
 800031e:	ea43 4302 	orr.w	r3, r3, r2, lsl #16
 8000322:	fb00 fc0c 	mul.w	ip, r0, ip
 8000326:	459c      	cmp	ip, r3
 8000328:	d909      	bls.n	800033e <__udivmoddi4+0x8e>
 800032a:	18fb      	adds	r3, r7, r3
 800032c:	f100 32ff 	add.w	r2, r0, #4294967295
 8000330:	f080 80d6 	bcs.w	80004e0 <__udivmoddi4+0x230>
 8000334:	459c      	cmp	ip, r3
 8000336:	f240 80d3 	bls.w	80004e0 <__udivmoddi4+0x230>
 800033a:	443b      	add	r3, r7
 800033c:	3802      	subs	r0, #2
 800033e:	ea40 4001 	orr.w	r0, r0, r1, lsl #16
 8000342:	eba3 030c 	sub.w	r3, r3, ip
 8000346:	2100      	movs	r1, #0
 8000348:	b11d      	cbz	r5, 8000352 <__udivmoddi4+0xa2>
 800034a:	40f3      	lsrs	r3, r6
 800034c:	2200      	movs	r2, #0
 800034e:	e9c5 3200 	strd	r3, r2, [r5]
 8000352:	e8bd 87f0 	ldmia.w	sp!, {r4, r5, r6, r7, r8, r9, sl, pc}
 8000356:	428b      	cmp	r3, r1
 8000358:	d905      	bls.n	8000366 <__udivmoddi4+0xb6>
 800035a:	b10d      	cbz	r5, 8000360 <__udivmoddi4+0xb0>
 800035c:	e9c5 0100 	strd	r0, r1, [r5]
 8000360:	2100      	movs	r1, #0
 8000362:	4608      	mov	r0, r1
 8000364:	e7f5      	b.n	8000352 <__udivmoddi4+0xa2>
 8000366:	fab3 f183 	clz	r1, r3
 800036a:	2900      	cmp	r1, #0
 800036c:	d146      	bne.n	80003fc <__udivmoddi4+0x14c>
 800036e:	4573      	cmp	r3, lr
 8000370:	d302      	bcc.n	8000378 <__udivmoddi4+0xc8>
 8000372:	4282      	cmp	r2, r0
 8000374:	f200 8105 	bhi.w	8000582 <__udivmoddi4+0x2d2>
 8000378:	1a84      	subs	r4, r0, r2
 800037a:	eb6e 0203 	sbc.w	r2, lr, r3
 800037e:	2001      	movs	r0, #1
 8000380:	4690      	mov	r8, r2
 8000382:	2d00      	cmp	r5, #0
 8000384:	d0e5      	beq.n	8000352 <__udivmoddi4+0xa2>
 8000386:	e9c5 4800 	strd	r4, r8, [r5]
 800038a:	e7e2      	b.n	8000352 <__udivmoddi4+0xa2>
 800038c:	2a00      	cmp	r2, #0
 800038e:	f000 8090 	beq.w	80004b2 <__udivmoddi4+0x202>
 8000392:	fab2 f682 	clz	r6, r2
 8000396:	2e00      	cmp	r6, #0
 8000398:	f040 80a4 	bne.w	80004e4 <__udivmoddi4+0x234>
 800039c:	1a8a      	subs	r2, r1, r2
 800039e:	0c03      	lsrs	r3, r0, #16
 80003a0:	ea4f 4e17 	mov.w	lr, r7, lsr #16
 80003a4:	b280      	uxth	r0, r0
 80003a6:	b2bc      	uxth	r4, r7
 80003a8:	2101      	movs	r1, #1
 80003aa:	fbb2 fcfe 	udiv	ip, r2, lr
 80003ae:	fb0e 221c 	mls	r2, lr, ip, r2
 80003b2:	ea43 4302 	orr.w	r3, r3, r2, lsl #16
 80003b6:	fb04 f20c 	mul.w	r2, r4, ip
 80003ba:	429a      	cmp	r2, r3
 80003bc:	d907      	bls.n	80003ce <__udivmoddi4+0x11e>
 80003be:	18fb      	adds	r3, r7, r3
 80003c0:	f10c 38ff 	add.w	r8, ip, #4294967295
 80003c4:	d202      	bcs.n	80003cc <__udivmoddi4+0x11c>
 80003c6:	429a      	cmp	r2, r3
 80003c8:	f200 80e0 	bhi.w	800058c <__udivmoddi4+0x2dc>
 80003cc:	46c4      	mov	ip, r8
 80003ce:	1a9b      	subs	r3, r3, r2
 80003d0:	fbb3 f2fe 	udiv	r2, r3, lr
 80003d4:	fb0e 3312 	mls	r3, lr, r2, r3
 80003d8:	ea40 4303 	orr.w	r3, r0, r3, lsl #16
 80003dc:	fb02 f404 	mul.w	r4, r2, r4
 80003e0:	429c      	cmp	r4, r3
 80003e2:	d907      	bls.n	80003f4 <__udivmoddi4+0x144>
 80003e4:	18fb      	adds	r3, r7, r3
 80003e6:	f102 30ff 	add.w	r0, r2, #4294967295
 80003ea:	d202      	bcs.n	80003f2 <__udivmoddi4+0x142>
 80003ec:	429c      	cmp	r4, r3
 80003ee:	f200 80ca 	bhi.w	8000586 <__udivmoddi4+0x2d6>
 80003f2:	4602      	mov	r2, r0
 80003f4:	1b1b      	subs	r3, r3, r4
 80003f6:	ea42 400c 	orr.w	r0, r2, ip, lsl #16
 80003fa:	e7a5      	b.n	8000348 <__udivmoddi4+0x98>
 80003fc:	f1c1 0620 	rsb	r6, r1, #32
 8000400:	408b      	lsls	r3, r1
 8000402:	fa22 f706 	lsr.w	r7, r2, r6
 8000406:	431f      	orrs	r7, r3
 8000408:	fa0e f401 	lsl.w	r4, lr, r1
 800040c:	fa20 f306 	lsr.w	r3, r0, r6
 8000410:	fa2e fe06 	lsr.w	lr, lr, r6
 8000414:	ea4f 4917 	mov.w	r9, r7, lsr #16
 8000418:	4323      	orrs	r3, r4
 800041a:	fa00 f801 	lsl.w	r8, r0, r1
 800041e:	fa1f fc87 	uxth.w	ip, r7
 8000422:	fbbe f0f9 	udiv	r0, lr, r9
 8000426:	0c1c      	lsrs	r4, r3, #16
 8000428:	fb09 ee10 	mls	lr, r9, r0, lr
 800042c:	ea44 440e 	orr.w	r4, r4, lr, lsl #16
 8000430:	fb00 fe0c 	mul.w	lr, r0, ip
 8000434:	45a6      	cmp	lr, r4
 8000436:	fa02 f201 	lsl.w	r2, r2, r1
 800043a:	d909      	bls.n	8000450 <__udivmoddi4+0x1a0>
 800043c:	193c      	adds	r4, r7, r4
 800043e:	f100 3aff 	add.w	sl, r0, #4294967295
 8000442:	f080 809c 	bcs.w	800057e <__udivmoddi4+0x2ce>
 8000446:	45a6      	cmp	lr, r4
 8000448:	f240 8099 	bls.w	800057e <__udivmoddi4+0x2ce>
 800044c:	3802      	subs	r0, #2
 800044e:	443c      	add	r4, r7
 8000450:	eba4 040e 	sub.w	r4, r4, lr
 8000454:	fa1f fe83 	uxth.w	lr, r3
 8000458:	fbb4 f3f9 	udiv	r3, r4, r9
 800045c:	fb09 4413 	mls	r4, r9, r3, r4
 8000460:	ea4e 4404 	orr.w	r4, lr, r4, lsl #16
 8000464:	fb03 fc0c 	mul.w	ip, r3, ip
 8000468:	45a4      	cmp	ip, r4
 800046a:	d908      	bls.n	800047e <__udivmoddi4+0x1ce>
 800046c:	193c      	adds	r4, r7, r4
 800046e:	f103 3eff 	add.w	lr, r3, #4294967295
 8000472:	f080 8082 	bcs.w	800057a <__udivmoddi4+0x2ca>
 8000476:	45a4      	cmp	ip, r4
 8000478:	d97f      	bls.n	800057a <__udivmoddi4+0x2ca>
 800047a:	3b02      	subs	r3, #2
 800047c:	443c      	add	r4, r7
 800047e:	ea43 4000 	orr.w	r0, r3, r0, lsl #16
 8000482:	eba4 040c 	sub.w	r4, r4, ip
 8000486:	fba0 ec02 	umull	lr, ip, r0, r2
 800048a:	4564      	cmp	r4, ip
 800048c:	4673      	mov	r3, lr
 800048e:	46e1      	mov	r9, ip
 8000490:	d362      	bcc.n	8000558 <__udivmoddi4+0x2a8>
 8000492:	d05f      	beq.n	8000554 <__udivmoddi4+0x2a4>
 8000494:	b15d      	cbz	r5, 80004ae <__udivmoddi4+0x1fe>
 8000496:	ebb8 0203 	subs.w	r2, r8, r3
 800049a:	eb64 0409 	sbc.w	r4, r4, r9
 800049e:	fa04 f606 	lsl.w	r6, r4, r6
 80004a2:	fa22 f301 	lsr.w	r3, r2, r1
 80004a6:	431e      	orrs	r6, r3
 80004a8:	40cc      	lsrs	r4, r1
 80004aa:	e9c5 6400 	strd	r6, r4, [r5]
 80004ae:	2100      	movs	r1, #0
 80004b0:	e74f      	b.n	8000352 <__udivmoddi4+0xa2>
 80004b2:	fbb1 fcf2 	udiv	ip, r1, r2
 80004b6:	0c01      	lsrs	r1, r0, #16
 80004b8:	ea41 410e 	orr.w	r1, r1, lr, lsl #16
 80004bc:	b280      	uxth	r0, r0
 80004be:	ea40 4201 	orr.w	r2, r0, r1, lsl #16
 80004c2:	463b      	mov	r3, r7
 80004c4:	4638      	mov	r0, r7
 80004c6:	463c      	mov	r4, r7
 80004c8:	46b8      	mov	r8, r7
 80004ca:	46be      	mov	lr, r7
 80004cc:	2620      	movs	r6, #32
 80004ce:	fbb1 f1f7 	udiv	r1, r1, r7
 80004d2:	eba2 0208 	sub.w	r2, r2, r8
 80004d6:	ea41 410c 	orr.w	r1, r1, ip, lsl #16
 80004da:	e766      	b.n	80003aa <__udivmoddi4+0xfa>
 80004dc:	4601      	mov	r1, r0
 80004de:	e718      	b.n	8000312 <__udivmoddi4+0x62>
 80004e0:	4610      	mov	r0, r2
 80004e2:	e72c      	b.n	800033e <__udivmoddi4+0x8e>
 80004e4:	f1c6 0220 	rsb	r2, r6, #32
 80004e8:	fa2e f302 	lsr.w	r3, lr, r2
 80004ec:	40b7      	lsls	r7, r6
 80004ee:	40b1      	lsls	r1, r6
 80004f0:	fa20 f202 	lsr.w	r2, r0, r2
 80004f4:	ea4f 4e17 	mov.w	lr, r7, lsr #16
 80004f8:	430a      	orrs	r2, r1
 80004fa:	fbb3 f8fe 	udiv	r8, r3, lr
 80004fe:	b2bc      	uxth	r4, r7
 8000500:	fb0e 3318 	mls	r3, lr, r8, r3
 8000504:	0c11      	lsrs	r1, r2, #16
 8000506:	ea41 4103 	orr.w	r1, r1, r3, lsl #16
 800050a:	fb08 f904 	mul.w	r9, r8, r4
 800050e:	40b0      	lsls	r0, r6
 8000510:	4589      	cmp	r9, r1
 8000512:	ea4f 4310 	mov.w	r3, r0, lsr #16
 8000516:	b280      	uxth	r0, r0
 8000518:	d93e      	bls.n	8000598 <__udivmoddi4+0x2e8>
 800051a:	1879      	adds	r1, r7, r1
 800051c:	f108 3cff 	add.w	ip, r8, #4294967295
 8000520:	d201      	bcs.n	8000526 <__udivmoddi4+0x276>
 8000522:	4589      	cmp	r9, r1
 8000524:	d81f      	bhi.n	8000566 <__udivmoddi4+0x2b6>
 8000526:	eba1 0109 	sub.w	r1, r1, r9
 800052a:	fbb1 f9fe 	udiv	r9, r1, lr
 800052e:	fb09 f804 	mul.w	r8, r9, r4
 8000532:	fb0e 1119 	mls	r1, lr, r9, r1
 8000536:	b292      	uxth	r2, r2
 8000538:	ea42 4201 	orr.w	r2, r2, r1, lsl #16
 800053c:	4542      	cmp	r2, r8
 800053e:	d229      	bcs.n	8000594 <__udivmoddi4+0x2e4>
 8000540:	18ba      	adds	r2, r7, r2
 8000542:	f109 31ff 	add.w	r1, r9, #4294967295
 8000546:	d2c4      	bcs.n	80004d2 <__udivmoddi4+0x222>
 8000548:	4542      	cmp	r2, r8
 800054a:	d2c2      	bcs.n	80004d2 <__udivmoddi4+0x222>
 800054c:	f1a9 0102 	sub.w	r1, r9, #2
 8000550:	443a      	add	r2, r7
 8000552:	e7be      	b.n	80004d2 <__udivmoddi4+0x222>
 8000554:	45f0      	cmp	r8, lr
 8000556:	d29d      	bcs.n	8000494 <__udivmoddi4+0x1e4>
 8000558:	ebbe 0302 	subs.w	r3, lr, r2
 800055c:	eb6c 0c07 	sbc.w	ip, ip, r7
 8000560:	3801      	subs	r0, #1
 8000562:	46e1      	mov	r9, ip
 8000564:	e796      	b.n	8000494 <__udivmoddi4+0x1e4>
 8000566:	eba7 0909 	sub.w	r9, r7, r9
 800056a:	4449      	add	r1, r9
 800056c:	f1a8 0c02 	sub.w	ip, r8, #2
 8000570:	fbb1 f9fe 	udiv	r9, r1, lr
 8000574:	fb09 f804 	mul.w	r8, r9, r4
 8000578:	e7db      	b.n	8000532 <__udivmoddi4+0x282>
 800057a:	4673      	mov	r3, lr
 800057c:	e77f      	b.n	800047e <__udivmoddi4+0x1ce>
 800057e:	4650      	mov	r0, sl
 8000580:	e766      	b.n	8000450 <__udivmoddi4+0x1a0>
 8000582:	4608      	mov	r0, r1
 8000584:	e6fd      	b.n	8000382 <__udivmoddi4+0xd2>
 8000586:	443b      	add	r3, r7
 8000588:	3a02      	subs	r2, #2
 800058a:	e733      	b.n	80003f4 <__udivmoddi4+0x144>
 800058c:	f1ac 0c02 	sub.w	ip, ip, #2
 8000590:	443b      	add	r3, r7
 8000592:	e71c      	b.n	80003ce <__udivmoddi4+0x11e>
 8000594:	4649      	mov	r1, r9
 8000596:	e79c      	b.n	80004d2 <__udivmoddi4+0x222>
 8000598:	eba1 0109 	sub.w	r1, r1, r9
 800059c:	46c4      	mov	ip, r8
 800059e:	fbb1 f9fe 	udiv	r9, r1, lr
 80005a2:	fb09 f804 	mul.w	r8, r9, r4
 80005a6:	e7c4      	b.n	8000532 <__udivmoddi4+0x282>

080005a8 <__aeabi_idiv0>:
 80005a8:	4770      	bx	lr
 80005aa:	bf00      	nop

080005ac <MX_CAN1_Init>:

CAN_HandleTypeDef hcan1;

/* CAN1 init function */
void MX_CAN1_Init(void)
{
 80005ac:	b580      	push	{r7, lr}
 80005ae:	af00      	add	r7, sp, #0
  /* USER CODE END CAN1_Init 0 */

  /* USER CODE BEGIN CAN1_Init 1 */

  /* USER CODE END CAN1_Init 1 */
  hcan1.Instance = CAN1;
 80005b0:	4b17      	ldr	r3, [pc, #92]	@ (8000610 <MX_CAN1_Init+0x64>)
 80005b2:	4a18      	ldr	r2, [pc, #96]	@ (8000614 <MX_CAN1_Init+0x68>)
 80005b4:	601a      	str	r2, [r3, #0]
  hcan1.Init.Prescaler = 20;
 80005b6:	4b16      	ldr	r3, [pc, #88]	@ (8000610 <MX_CAN1_Init+0x64>)
 80005b8:	2214      	movs	r2, #20
 80005ba:	605a      	str	r2, [r3, #4]
  hcan1.Init.Mode = CAN_MODE_NORMAL;
 80005bc:	4b14      	ldr	r3, [pc, #80]	@ (8000610 <MX_CAN1_Init+0x64>)
 80005be:	2200      	movs	r2, #0
 80005c0:	609a      	str	r2, [r3, #8]
  hcan1.Init.SyncJumpWidth = CAN_SJW_1TQ;
 80005c2:	4b13      	ldr	r3, [pc, #76]	@ (8000610 <MX_CAN1_Init+0x64>)
 80005c4:	2200      	movs	r2, #0
 80005c6:	60da      	str	r2, [r3, #12]
  hcan1.Init.TimeSeg1 = CAN_BS1_2TQ;
 80005c8:	4b11      	ldr	r3, [pc, #68]	@ (8000610 <MX_CAN1_Init+0x64>)
 80005ca:	f44f 3280 	mov.w	r2, #65536	@ 0x10000
 80005ce:	611a      	str	r2, [r3, #16]
  hcan1.Init.TimeSeg2 = CAN_BS2_1TQ;
 80005d0:	4b0f      	ldr	r3, [pc, #60]	@ (8000610 <MX_CAN1_Init+0x64>)
 80005d2:	2200      	movs	r2, #0
 80005d4:	615a      	str	r2, [r3, #20]
  hcan1.Init.TimeTriggeredMode = DISABLE;
 80005d6:	4b0e      	ldr	r3, [pc, #56]	@ (8000610 <MX_CAN1_Init+0x64>)
 80005d8:	2200      	movs	r2, #0
 80005da:	761a      	strb	r2, [r3, #24]
  hcan1.Init.AutoBusOff = DISABLE;
 80005dc:	4b0c      	ldr	r3, [pc, #48]	@ (8000610 <MX_CAN1_Init+0x64>)
 80005de:	2200      	movs	r2, #0
 80005e0:	765a      	strb	r2, [r3, #25]
  hcan1.Init.AutoWakeUp = DISABLE;
 80005e2:	4b0b      	ldr	r3, [pc, #44]	@ (8000610 <MX_CAN1_Init+0x64>)
 80005e4:	2200      	movs	r2, #0
 80005e6:	769a      	strb	r2, [r3, #26]
  hcan1.Init.AutoRetransmission = DISABLE;
 80005e8:	4b09      	ldr	r3, [pc, #36]	@ (8000610 <MX_CAN1_Init+0x64>)
 80005ea:	2200      	movs	r2, #0
 80005ec:	76da      	strb	r2, [r3, #27]
  hcan1.Init.ReceiveFifoLocked = DISABLE;
 80005ee:	4b08      	ldr	r3, [pc, #32]	@ (8000610 <MX_CAN1_Init+0x64>)
 80005f0:	2200      	movs	r2, #0
 80005f2:	771a      	strb	r2, [r3, #28]
  hcan1.Init.TransmitFifoPriority = DISABLE;
 80005f4:	4b06      	ldr	r3, [pc, #24]	@ (8000610 <MX_CAN1_Init+0x64>)
 80005f6:	2200      	movs	r2, #0
 80005f8:	775a      	strb	r2, [r3, #29]
  if (HAL_CAN_Init(&hcan1) != HAL_OK)
 80005fa:	4805      	ldr	r0, [pc, #20]	@ (8000610 <MX_CAN1_Init+0x64>)
 80005fc:	f003 fd3a 	bl	8004074 <HAL_CAN_Init>
 8000600:	4603      	mov	r3, r0
 8000602:	2b00      	cmp	r3, #0
 8000604:	d001      	beq.n	800060a <MX_CAN1_Init+0x5e>
  {
    Error_Handler();
 8000606:	f002 fe5f 	bl	80032c8 <Error_Handler>
  }
  /* USER CODE BEGIN CAN1_Init 2 */

  /* USER CODE END CAN1_Init 2 */

}
 800060a:	bf00      	nop
 800060c:	bd80      	pop	{r7, pc}
 800060e:	bf00      	nop
 8000610:	200000a4 	.word	0x200000a4
 8000614:	40006400 	.word	0x40006400

08000618 <HAL_CAN_MspInit>:

void HAL_CAN_MspInit(CAN_HandleTypeDef* canHandle)
{
 8000618:	b580      	push	{r7, lr}
 800061a:	b08a      	sub	sp, #40	@ 0x28
 800061c:	af00      	add	r7, sp, #0
 800061e:	6078      	str	r0, [r7, #4]

  GPIO_InitTypeDef GPIO_InitStruct = {0};
 8000620:	f107 0314 	add.w	r3, r7, #20
 8000624:	2200      	movs	r2, #0
 8000626:	601a      	str	r2, [r3, #0]
 8000628:	605a      	str	r2, [r3, #4]
 800062a:	609a      	str	r2, [r3, #8]
 800062c:	60da      	str	r2, [r3, #12]
 800062e:	611a      	str	r2, [r3, #16]
  if(canHandle->Instance==CAN1)
 8000630:	687b      	ldr	r3, [r7, #4]
 8000632:	681b      	ldr	r3, [r3, #0]
 8000634:	4a1c      	ldr	r2, [pc, #112]	@ (80006a8 <HAL_CAN_MspInit+0x90>)
 8000636:	4293      	cmp	r3, r2
 8000638:	d131      	bne.n	800069e <HAL_CAN_MspInit+0x86>
  {
  /* USER CODE BEGIN CAN1_MspInit 0 */

  /* USER CODE END CAN1_MspInit 0 */
    /* CAN1 clock enable */
    __HAL_RCC_CAN1_CLK_ENABLE();
 800063a:	4b1c      	ldr	r3, [pc, #112]	@ (80006ac <HAL_CAN_MspInit+0x94>)
 800063c:	6d9b      	ldr	r3, [r3, #88]	@ 0x58
 800063e:	4a1b      	ldr	r2, [pc, #108]	@ (80006ac <HAL_CAN_MspInit+0x94>)
 8000640:	f043 7300 	orr.w	r3, r3, #33554432	@ 0x2000000
 8000644:	6593      	str	r3, [r2, #88]	@ 0x58
 8000646:	4b19      	ldr	r3, [pc, #100]	@ (80006ac <HAL_CAN_MspInit+0x94>)
 8000648:	6d9b      	ldr	r3, [r3, #88]	@ 0x58
 800064a:	f003 7300 	and.w	r3, r3, #33554432	@ 0x2000000
 800064e:	613b      	str	r3, [r7, #16]
 8000650:	693b      	ldr	r3, [r7, #16]

    __HAL_RCC_GPIOA_CLK_ENABLE();
 8000652:	4b16      	ldr	r3, [pc, #88]	@ (80006ac <HAL_CAN_MspInit+0x94>)
 8000654:	6cdb      	ldr	r3, [r3, #76]	@ 0x4c
 8000656:	4a15      	ldr	r2, [pc, #84]	@ (80006ac <HAL_CAN_MspInit+0x94>)
 8000658:	f043 0301 	orr.w	r3, r3, #1
 800065c:	64d3      	str	r3, [r2, #76]	@ 0x4c
 800065e:	4b13      	ldr	r3, [pc, #76]	@ (80006ac <HAL_CAN_MspInit+0x94>)
 8000660:	6cdb      	ldr	r3, [r3, #76]	@ 0x4c
 8000662:	f003 0301 	and.w	r3, r3, #1
 8000666:	60fb      	str	r3, [r7, #12]
 8000668:	68fb      	ldr	r3, [r7, #12]
    /**CAN1 GPIO Configuration
    PA11     ------> CAN1_RX
    PA12     ------> CAN1_TX
    */
    GPIO_InitStruct.Pin = GPIO_PIN_11|GPIO_PIN_12;
 800066a:	f44f 53c0 	mov.w	r3, #6144	@ 0x1800
 800066e:	617b      	str	r3, [r7, #20]
    GPIO_InitStruct.Mode = GPIO_MODE_AF_PP;
 8000670:	2302      	movs	r3, #2
 8000672:	61bb      	str	r3, [r7, #24]
    GPIO_InitStruct.Pull = GPIO_NOPULL;
 8000674:	2300      	movs	r3, #0
 8000676:	61fb      	str	r3, [r7, #28]
    GPIO_InitStruct.Speed = GPIO_SPEED_FREQ_VERY_HIGH;
 8000678:	2303      	movs	r3, #3
 800067a:	623b      	str	r3, [r7, #32]
    GPIO_InitStruct.Alternate = GPIO_AF9_CAN1;
 800067c:	2309      	movs	r3, #9
 800067e:	627b      	str	r3, [r7, #36]	@ 0x24
    HAL_GPIO_Init(GPIOA, &GPIO_InitStruct);
 8000680:	f107 0314 	add.w	r3, r7, #20
 8000684:	4619      	mov	r1, r3
 8000686:	f04f 4090 	mov.w	r0, #1207959552	@ 0x48000000
 800068a:	f004 ff01 	bl	8005490 <HAL_GPIO_Init>

    /* CAN1 interrupt Init */
    HAL_NVIC_SetPriority(CAN1_RX0_IRQn, 0, 0);
 800068e:	2200      	movs	r2, #0
 8000690:	2100      	movs	r1, #0
 8000692:	2014      	movs	r0, #20
 8000694:	f004 fc4f 	bl	8004f36 <HAL_NVIC_SetPriority>
    HAL_NVIC_EnableIRQ(CAN1_RX0_IRQn);
 8000698:	2014      	movs	r0, #20
 800069a:	f004 fc68 	bl	8004f6e <HAL_NVIC_EnableIRQ>
  /* USER CODE BEGIN CAN1_MspInit 1 */

  /* USER CODE END CAN1_MspInit 1 */
  }
}
 800069e:	bf00      	nop
 80006a0:	3728      	adds	r7, #40	@ 0x28
 80006a2:	46bd      	mov	sp, r7
 80006a4:	bd80      	pop	{r7, pc}
 80006a6:	bf00      	nop
 80006a8:	40006400 	.word	0x40006400
 80006ac:	40021000 	.word	0x40021000

080006b0 <canardInit>:
                void* mem_arena,
                size_t mem_arena_size,
                CanardOnTransferReception on_reception,
                CanardShouldAcceptTransfer should_accept,
                void* user_reference)
{
 80006b0:	b580      	push	{r7, lr}
 80006b2:	b086      	sub	sp, #24
 80006b4:	af00      	add	r7, sp, #0
 80006b6:	60f8      	str	r0, [r7, #12]
 80006b8:	60b9      	str	r1, [r7, #8]
 80006ba:	607a      	str	r2, [r7, #4]
 80006bc:	603b      	str	r3, [r7, #0]
     * If your application fails here, make sure it's not built in 64-bit mode.
     * Refer to the design documentation for more info.
     */
    CANARD_ASSERT(CANARD_MULTIFRAME_RX_PAYLOAD_HEAD_SIZE >= 5);

    memset(out_ins, 0, sizeof(*out_ins));
 80006be:	222c      	movs	r2, #44	@ 0x2c
 80006c0:	2100      	movs	r1, #0
 80006c2:	68f8      	ldr	r0, [r7, #12]
 80006c4:	f007 f94b 	bl	800795e <memset>

    out_ins->node_id = CANARD_BROADCAST_NODE_ID;
 80006c8:	68fb      	ldr	r3, [r7, #12]
 80006ca:	2200      	movs	r2, #0
 80006cc:	701a      	strb	r2, [r3, #0]
    out_ins->on_reception = on_reception;
 80006ce:	68fb      	ldr	r3, [r7, #12]
 80006d0:	683a      	ldr	r2, [r7, #0]
 80006d2:	609a      	str	r2, [r3, #8]
    out_ins->should_accept = should_accept;
 80006d4:	68fb      	ldr	r3, [r7, #12]
 80006d6:	6a3a      	ldr	r2, [r7, #32]
 80006d8:	605a      	str	r2, [r3, #4]
    out_ins->rx_states = NULL;
 80006da:	68fb      	ldr	r3, [r7, #12]
 80006dc:	2200      	movs	r2, #0
 80006de:	621a      	str	r2, [r3, #32]
    out_ins->tx_queue = NULL;
 80006e0:	68fb      	ldr	r3, [r7, #12]
 80006e2:	2200      	movs	r2, #0
 80006e4:	625a      	str	r2, [r3, #36]	@ 0x24
    out_ins->user_reference = user_reference;
 80006e6:	68fb      	ldr	r3, [r7, #12]
 80006e8:	6a7a      	ldr	r2, [r7, #36]	@ 0x24
 80006ea:	629a      	str	r2, [r3, #40]	@ 0x28
#if CANARD_ENABLE_TAO_OPTION
    out_ins->tao_disabled = false;
#endif
    size_t pool_capacity = mem_arena_size / CANARD_MEM_BLOCK_SIZE;
 80006ec:	687b      	ldr	r3, [r7, #4]
 80006ee:	095b      	lsrs	r3, r3, #5
 80006f0:	617b      	str	r3, [r7, #20]
    if (pool_capacity > 0xFFFFU)
 80006f2:	697b      	ldr	r3, [r7, #20]
 80006f4:	f5b3 3f80 	cmp.w	r3, #65536	@ 0x10000
 80006f8:	d302      	bcc.n	8000700 <canardInit+0x50>
    {
        pool_capacity = 0xFFFFU;
 80006fa:	f64f 73ff 	movw	r3, #65535	@ 0xffff
 80006fe:	617b      	str	r3, [r7, #20]
    }

    initPoolAllocator(&out_ins->allocator, mem_arena, (uint16_t)pool_capacity);
 8000700:	68fb      	ldr	r3, [r7, #12]
 8000702:	330c      	adds	r3, #12
 8000704:	697a      	ldr	r2, [r7, #20]
 8000706:	b292      	uxth	r2, r2
 8000708:	68b9      	ldr	r1, [r7, #8]
 800070a:	4618      	mov	r0, r3
 800070c:	f001 feb5 	bl	800247a <initPoolAllocator>
}
 8000710:	bf00      	nop
 8000712:	3718      	adds	r7, #24
 8000714:	46bd      	mov	sp, r7
 8000716:	bd80      	pop	{r7, pc}

08000718 <canardSetLocalNodeID>:
    CANARD_ASSERT(ins != NULL);
    return ins->user_reference;
}

void canardSetLocalNodeID(CanardInstance* ins, uint8_t self_node_id)
{
 8000718:	b480      	push	{r7}
 800071a:	b083      	sub	sp, #12
 800071c:	af00      	add	r7, sp, #0
 800071e:	6078      	str	r0, [r7, #4]
 8000720:	460b      	mov	r3, r1
 8000722:	70fb      	strb	r3, [r7, #3]
    CANARD_ASSERT(ins != NULL);

    if ((ins->node_id == CANARD_BROADCAST_NODE_ID) &&
 8000724:	687b      	ldr	r3, [r7, #4]
 8000726:	781b      	ldrb	r3, [r3, #0]
 8000728:	2b00      	cmp	r3, #0
 800072a:	d109      	bne.n	8000740 <canardSetLocalNodeID+0x28>
 800072c:	78fb      	ldrb	r3, [r7, #3]
 800072e:	2b00      	cmp	r3, #0
 8000730:	d006      	beq.n	8000740 <canardSetLocalNodeID+0x28>
        (self_node_id >= CANARD_MIN_NODE_ID) &&
        (self_node_id <= CANARD_MAX_NODE_ID))
 8000732:	f997 3003 	ldrsb.w	r3, [r7, #3]
        (self_node_id >= CANARD_MIN_NODE_ID) &&
 8000736:	2b00      	cmp	r3, #0
 8000738:	db02      	blt.n	8000740 <canardSetLocalNodeID+0x28>
    {
        ins->node_id = self_node_id;
 800073a:	687b      	ldr	r3, [r7, #4]
 800073c:	78fa      	ldrb	r2, [r7, #3]
 800073e:	701a      	strb	r2, [r3, #0]
    }
    else
    {
        CANARD_ASSERT(false);
    }
}
 8000740:	bf00      	nop
 8000742:	370c      	adds	r7, #12
 8000744:	46bd      	mov	sp, r7
 8000746:	f85d 7b04 	ldr.w	r7, [sp], #4
 800074a:	4770      	bx	lr

0800074c <canardGetLocalNodeID>:

uint8_t canardGetLocalNodeID(const CanardInstance* ins)
{
 800074c:	b480      	push	{r7}
 800074e:	b083      	sub	sp, #12
 8000750:	af00      	add	r7, sp, #0
 8000752:	6078      	str	r0, [r7, #4]
    return ins->node_id;
 8000754:	687b      	ldr	r3, [r7, #4]
 8000756:	781b      	ldrb	r3, [r3, #0]
}
 8000758:	4618      	mov	r0, r3
 800075a:	370c      	adds	r7, #12
 800075c:	46bd      	mov	sp, r7
 800075e:	f85d 7b04 	ldr.w	r7, [sp], #4
 8000762:	4770      	bx	lr

08000764 <canardBroadcastObj>:

    return canardBroadcastObj(ins, &transfer_object);
}

int16_t canardBroadcastObj(CanardInstance* ins, CanardTxTransfer* transfer_object)
{
 8000764:	b590      	push	{r4, r7, lr}
 8000766:	b087      	sub	sp, #28
 8000768:	af00      	add	r7, sp, #0
 800076a:	6078      	str	r0, [r7, #4]
 800076c:	6039      	str	r1, [r7, #0]
    if (transfer_object->payload == NULL && transfer_object->payload_len > 0)
 800076e:	683b      	ldr	r3, [r7, #0]
 8000770:	69db      	ldr	r3, [r3, #28]
 8000772:	2b00      	cmp	r3, #0
 8000774:	d106      	bne.n	8000784 <canardBroadcastObj+0x20>
 8000776:	683b      	ldr	r3, [r7, #0]
 8000778:	8c1b      	ldrh	r3, [r3, #32]
 800077a:	2b00      	cmp	r3, #0
 800077c:	d002      	beq.n	8000784 <canardBroadcastObj+0x20>
    {
        return -CANARD_ERROR_INVALID_ARGUMENT;
 800077e:	f06f 0301 	mvn.w	r3, #1
 8000782:	e070      	b.n	8000866 <canardBroadcastObj+0x102>
    }
    if (transfer_object->priority > CANARD_TRANSFER_PRIORITY_LOWEST)
 8000784:	683b      	ldr	r3, [r7, #0]
 8000786:	7e1b      	ldrb	r3, [r3, #24]
 8000788:	2b1f      	cmp	r3, #31
 800078a:	d902      	bls.n	8000792 <canardBroadcastObj+0x2e>
    {
        return -CANARD_ERROR_INVALID_ARGUMENT;
 800078c:	f06f 0301 	mvn.w	r3, #1
 8000790:	e069      	b.n	8000866 <canardBroadcastObj+0x102>
    }

    uint32_t can_id = 0;
 8000792:	2300      	movs	r3, #0
 8000794:	617b      	str	r3, [r7, #20]
    uint16_t crc = 0xFFFFU;
 8000796:	f64f 73ff 	movw	r3, #65535	@ 0xffff
 800079a:	827b      	strh	r3, [r7, #18]

    if (canardGetLocalNodeID(ins) == 0)
 800079c:	6878      	ldr	r0, [r7, #4]
 800079e:	f7ff ffd5 	bl	800074c <canardGetLocalNodeID>
 80007a2:	4603      	mov	r3, r0
 80007a4:	2b00      	cmp	r3, #0
 80007a6:	d138      	bne.n	800081a <canardBroadcastObj+0xb6>
    {
        if (transfer_object->payload_len > 7)
 80007a8:	683b      	ldr	r3, [r7, #0]
 80007aa:	8c1b      	ldrh	r3, [r3, #32]
 80007ac:	2b07      	cmp	r3, #7
 80007ae:	d902      	bls.n	80007b6 <canardBroadcastObj+0x52>
        {
            return -CANARD_ERROR_NODE_ID_NOT_SET;
 80007b0:	f06f 0303 	mvn.w	r3, #3
 80007b4:	e057      	b.n	8000866 <canardBroadcastObj+0x102>
        }

        static const uint16_t DTIDMask = (1U << ANON_MSG_DATA_TYPE_ID_BIT_LEN) - 1U;

        if ((transfer_object->data_type_id & DTIDMask) != transfer_object->data_type_id)
 80007b6:	683b      	ldr	r3, [r7, #0]
 80007b8:	8a1a      	ldrh	r2, [r3, #16]
 80007ba:	4b2d      	ldr	r3, [pc, #180]	@ (8000870 <canardBroadcastObj+0x10c>)
 80007bc:	881b      	ldrh	r3, [r3, #0]
 80007be:	4013      	ands	r3, r2
 80007c0:	b29a      	uxth	r2, r3
 80007c2:	683b      	ldr	r3, [r7, #0]
 80007c4:	8a1b      	ldrh	r3, [r3, #16]
 80007c6:	429a      	cmp	r2, r3
 80007c8:	d002      	beq.n	80007d0 <canardBroadcastObj+0x6c>
        {
            return -CANARD_ERROR_INVALID_ARGUMENT;
 80007ca:	f06f 0301 	mvn.w	r3, #1
 80007ce:	e04a      	b.n	8000866 <canardBroadcastObj+0x102>
        }

        // anonymous transfer, random discriminator
        const uint16_t discriminator = (uint16_t)((crcAdd(0xFFFFU, transfer_object->payload, transfer_object->payload_len)) & 0x7FFEU);
 80007d0:	683b      	ldr	r3, [r7, #0]
 80007d2:	69d9      	ldr	r1, [r3, #28]
 80007d4:	683b      	ldr	r3, [r7, #0]
 80007d6:	8c1b      	ldrh	r3, [r3, #32]
 80007d8:	461a      	mov	r2, r3
 80007da:	f64f 70ff 	movw	r0, #65535	@ 0xffff
 80007de:	f001 fe2f 	bl	8002440 <crcAdd>
 80007e2:	4603      	mov	r3, r0
 80007e4:	461a      	mov	r2, r3
 80007e6:	f647 73fe 	movw	r3, #32766	@ 0x7ffe
 80007ea:	4013      	ands	r3, r2
 80007ec:	823b      	strh	r3, [r7, #16]
        can_id = ((uint32_t) transfer_object->priority << 24U) | ((uint32_t) discriminator << 9U) |
 80007ee:	683b      	ldr	r3, [r7, #0]
 80007f0:	7e1b      	ldrb	r3, [r3, #24]
 80007f2:	061a      	lsls	r2, r3, #24
 80007f4:	8a3b      	ldrh	r3, [r7, #16]
 80007f6:	025b      	lsls	r3, r3, #9
 80007f8:	431a      	orrs	r2, r3
                 ((uint32_t) (transfer_object->data_type_id & DTIDMask) << 8U) | (uint32_t) canardGetLocalNodeID(ins);
 80007fa:	683b      	ldr	r3, [r7, #0]
 80007fc:	8a19      	ldrh	r1, [r3, #16]
 80007fe:	4b1c      	ldr	r3, [pc, #112]	@ (8000870 <canardBroadcastObj+0x10c>)
 8000800:	881b      	ldrh	r3, [r3, #0]
 8000802:	400b      	ands	r3, r1
 8000804:	b29b      	uxth	r3, r3
 8000806:	021b      	lsls	r3, r3, #8
        can_id = ((uint32_t) transfer_object->priority << 24U) | ((uint32_t) discriminator << 9U) |
 8000808:	ea42 0403 	orr.w	r4, r2, r3
                 ((uint32_t) (transfer_object->data_type_id & DTIDMask) << 8U) | (uint32_t) canardGetLocalNodeID(ins);
 800080c:	6878      	ldr	r0, [r7, #4]
 800080e:	f7ff ff9d 	bl	800074c <canardGetLocalNodeID>
 8000812:	4603      	mov	r3, r0
        can_id = ((uint32_t) transfer_object->priority << 24U) | ((uint32_t) discriminator << 9U) |
 8000814:	4323      	orrs	r3, r4
 8000816:	617b      	str	r3, [r7, #20]
 8000818:	e012      	b.n	8000840 <canardBroadcastObj+0xdc>
    }
    else
    {
        can_id = ((uint32_t) transfer_object->priority << 24U) | ((uint32_t) transfer_object->data_type_id << 8U) | (uint32_t) canardGetLocalNodeID(ins);
 800081a:	683b      	ldr	r3, [r7, #0]
 800081c:	7e1b      	ldrb	r3, [r3, #24]
 800081e:	061a      	lsls	r2, r3, #24
 8000820:	683b      	ldr	r3, [r7, #0]
 8000822:	8a1b      	ldrh	r3, [r3, #16]
 8000824:	021b      	lsls	r3, r3, #8
 8000826:	ea42 0403 	orr.w	r4, r2, r3
 800082a:	6878      	ldr	r0, [r7, #4]
 800082c:	f7ff ff8e 	bl	800074c <canardGetLocalNodeID>
 8000830:	4603      	mov	r3, r0
 8000832:	4323      	orrs	r3, r4
 8000834:	617b      	str	r3, [r7, #20]
        crc = calculateCRC(transfer_object);
 8000836:	6838      	ldr	r0, [r7, #0]
 8000838:	f000 f84c 	bl	80008d4 <calculateCRC>
 800083c:	4603      	mov	r3, r0
 800083e:	827b      	strh	r3, [r7, #18]
    }

    const int16_t result = enqueueTxFrames(ins, can_id, crc, transfer_object);
 8000840:	8a7a      	ldrh	r2, [r7, #18]
 8000842:	683b      	ldr	r3, [r7, #0]
 8000844:	6979      	ldr	r1, [r7, #20]
 8000846:	6878      	ldr	r0, [r7, #4]
 8000848:	f000 ffe6 	bl	8001818 <enqueueTxFrames>
 800084c:	4603      	mov	r3, r0
 800084e:	81fb      	strh	r3, [r7, #14]

    if (result > 0) {
 8000850:	f9b7 300e 	ldrsh.w	r3, [r7, #14]
 8000854:	2b00      	cmp	r3, #0
 8000856:	dd04      	ble.n	8000862 <canardBroadcastObj+0xfe>
        incrementTransferID(transfer_object->inout_transfer_id);
 8000858:	683b      	ldr	r3, [r7, #0]
 800085a:	695b      	ldr	r3, [r3, #20]
 800085c:	4618      	mov	r0, r3
 800085e:	f000 ff66 	bl	800172e <incrementTransferID>
    }

    return result;
 8000862:	f9b7 300e 	ldrsh.w	r3, [r7, #14]
}
 8000866:	4618      	mov	r0, r3
 8000868:	371c      	adds	r7, #28
 800086a:	46bd      	mov	sp, r7
 800086c:	bd90      	pop	{r4, r7, pc}
 800086e:	bf00      	nop
 8000870:	08008604 	.word	0x08008604

08000874 <canardBufferFromIdx>:
  CanardBufferBlock and CanartRxState structures to have the same size
  on 32 bit and 64 bit platforms, which allows for easier testing in
  simulator environments
 */
CANARD_INTERNAL CanardBufferBlock *canardBufferFromIdx(CanardPoolAllocator* allocator, canard_buffer_idx_t idx)
{
 8000874:	b480      	push	{r7}
 8000876:	b083      	sub	sp, #12
 8000878:	af00      	add	r7, sp, #0
 800087a:	6078      	str	r0, [r7, #4]
 800087c:	6039      	str	r1, [r7, #0]
        return NULL;
    }
    return (CanardBufferBlock *)(uintptr_t)&((uint8_t *)allocator->arena)[idx-1];
#else
    (void)allocator;
    return (CanardBufferBlock *)idx;
 800087e:	683b      	ldr	r3, [r7, #0]
#endif
}
 8000880:	4618      	mov	r0, r3
 8000882:	370c      	adds	r7, #12
 8000884:	46bd      	mov	sp, r7
 8000886:	f85d 7b04 	ldr.w	r7, [sp], #4
 800088a:	4770      	bx	lr

0800088c <canardBufferToIdx>:

CANARD_INTERNAL canard_buffer_idx_t canardBufferToIdx(CanardPoolAllocator* allocator, const CanardBufferBlock *buf)
{
 800088c:	b480      	push	{r7}
 800088e:	b083      	sub	sp, #12
 8000890:	af00      	add	r7, sp, #0
 8000892:	6078      	str	r0, [r7, #4]
 8000894:	6039      	str	r1, [r7, #0]
        return CANARD_BUFFER_IDX_NONE;
    }
    return 1U+((canard_buffer_idx_t)((uint8_t *)buf - (uint8_t *)allocator->arena));
#else
    (void)allocator;
    return (canard_buffer_idx_t)buf;
 8000896:	683b      	ldr	r3, [r7, #0]
#endif
}
 8000898:	4618      	mov	r0, r3
 800089a:	370c      	adds	r7, #12
 800089c:	46bd      	mov	sp, r7
 800089e:	f85d 7b04 	ldr.w	r7, [sp], #4
 80008a2:	4770      	bx	lr

080008a4 <canardRxFromIdx>:

CANARD_INTERNAL CanardRxState *canardRxFromIdx(CanardPoolAllocator* allocator, canard_buffer_idx_t idx)
{
 80008a4:	b480      	push	{r7}
 80008a6:	b083      	sub	sp, #12
 80008a8:	af00      	add	r7, sp, #0
 80008aa:	6078      	str	r0, [r7, #4]
 80008ac:	6039      	str	r1, [r7, #0]
        return NULL;
    }
    return (CanardRxState *)(uintptr_t)&((uint8_t *)allocator->arena)[idx-1];
#else
    (void)allocator;
    return (CanardRxState *)idx;
 80008ae:	683b      	ldr	r3, [r7, #0]
#endif
}
 80008b0:	4618      	mov	r0, r3
 80008b2:	370c      	adds	r7, #12
 80008b4:	46bd      	mov	sp, r7
 80008b6:	f85d 7b04 	ldr.w	r7, [sp], #4
 80008ba:	4770      	bx	lr

080008bc <canardRxToIdx>:

CANARD_INTERNAL canard_buffer_idx_t canardRxToIdx(CanardPoolAllocator* allocator, const CanardRxState *rx)
{
 80008bc:	b480      	push	{r7}
 80008be:	b083      	sub	sp, #12
 80008c0:	af00      	add	r7, sp, #0
 80008c2:	6078      	str	r0, [r7, #4]
 80008c4:	6039      	str	r1, [r7, #0]
        return CANARD_BUFFER_IDX_NONE;
    }
    return 1U+((canard_buffer_idx_t)((uint8_t *)rx - (uint8_t *)allocator->arena));
#else
    (void)allocator;
    return (canard_buffer_idx_t)rx;
 80008c6:	683b      	ldr	r3, [r7, #0]
#endif
}
 80008c8:	4618      	mov	r0, r3
 80008ca:	370c      	adds	r7, #12
 80008cc:	46bd      	mov	sp, r7
 80008ce:	f85d 7b04 	ldr.w	r7, [sp], #4
 80008d2:	4770      	bx	lr

080008d4 <calculateCRC>:

CANARD_INTERNAL uint16_t calculateCRC(const CanardTxTransfer* transfer_object)
{
 80008d4:	b580      	push	{r7, lr}
 80008d6:	b084      	sub	sp, #16
 80008d8:	af00      	add	r7, sp, #0
 80008da:	6078      	str	r0, [r7, #4]
    uint16_t crc = 0xFFFFU;
 80008dc:	f64f 73ff 	movw	r3, #65535	@ 0xffff
 80008e0:	81fb      	strh	r3, [r7, #14]
#if CANARD_ENABLE_CANFD
    if ((transfer_object->payload_len > 7 && !transfer_object->canfd) ||
        (transfer_object->payload_len > 63 && transfer_object->canfd))
#else
    if (transfer_object->payload_len > 7)
 80008e2:	687b      	ldr	r3, [r7, #4]
 80008e4:	8c1b      	ldrh	r3, [r3, #32]
 80008e6:	2b07      	cmp	r3, #7
 80008e8:	d913      	bls.n	8000912 <calculateCRC+0x3e>
#endif
    {
        crc = crcAddSignature(crc, transfer_object->data_type_signature);
 80008ea:	687b      	ldr	r3, [r7, #4]
 80008ec:	e9d3 2302 	ldrd	r2, r3, [r3, #8]
 80008f0:	89f9      	ldrh	r1, [r7, #14]
 80008f2:	4608      	mov	r0, r1
 80008f4:	f001 fd75 	bl	80023e2 <crcAddSignature>
 80008f8:	4603      	mov	r3, r0
 80008fa:	81fb      	strh	r3, [r7, #14]
        crc = crcAdd(crc, transfer_object->payload, transfer_object->payload_len);
 80008fc:	687b      	ldr	r3, [r7, #4]
 80008fe:	69d9      	ldr	r1, [r3, #28]
 8000900:	687b      	ldr	r3, [r7, #4]
 8000902:	8c1b      	ldrh	r3, [r3, #32]
 8000904:	461a      	mov	r2, r3
 8000906:	89fb      	ldrh	r3, [r7, #14]
 8000908:	4618      	mov	r0, r3
 800090a:	f001 fd99 	bl	8002440 <crcAdd>
 800090e:	4603      	mov	r3, r0
 8000910:	81fb      	strh	r3, [r7, #14]
                crc = crcAddByte(crc, empty);
            }
        }
#endif
    }
    return crc;
 8000912:	89fb      	ldrh	r3, [r7, #14]
}
 8000914:	4618      	mov	r0, r3
 8000916:	3710      	adds	r7, #16
 8000918:	46bd      	mov	sp, r7
 800091a:	bd80      	pop	{r7, pc}

0800091c <canardRequestOrRespond>:
#endif
#if CANARD_ENABLE_CANFD
                               ,bool canfd
#endif
)
{
 800091c:	b580      	push	{r7, lr}
 800091e:	b08e      	sub	sp, #56	@ 0x38
 8000920:	af00      	add	r7, sp, #0
 8000922:	60f8      	str	r0, [r7, #12]
 8000924:	e9c7 2300 	strd	r2, r3, [r7]
 8000928:	460b      	mov	r3, r1
 800092a:	72fb      	strb	r3, [r7, #11]
    CanardTxTransfer transfer_object = {
        .data_type_signature = data_type_signature,
        .data_type_id = data_type_id,
        .inout_transfer_id = inout_transfer_id,
        .priority = priority,
        .transfer_type = kind == CanardRequest ? CanardTransferTypeRequest : CanardTransferTypeResponse,
 800092c:	f897 304c 	ldrb.w	r3, [r7, #76]	@ 0x4c
 8000930:	2b01      	cmp	r3, #1
 8000932:	bf0c      	ite	eq
 8000934:	2301      	moveq	r3, #1
 8000936:	2300      	movne	r3, #0
 8000938:	b2db      	uxtb	r3, r3
    CanardTxTransfer transfer_object = {
 800093a:	743b      	strb	r3, [r7, #16]
 800093c:	e9d7 2300 	ldrd	r2, r3, [r7]
 8000940:	e9c7 2306 	strd	r2, r3, [r7, #24]
 8000944:	f897 3040 	ldrb.w	r3, [r7, #64]	@ 0x40
 8000948:	b29b      	uxth	r3, r3
 800094a:	843b      	strh	r3, [r7, #32]
 800094c:	6c7b      	ldr	r3, [r7, #68]	@ 0x44
 800094e:	627b      	str	r3, [r7, #36]	@ 0x24
 8000950:	f897 3048 	ldrb.w	r3, [r7, #72]	@ 0x48
 8000954:	f887 3028 	strb.w	r3, [r7, #40]	@ 0x28
 8000958:	6d3b      	ldr	r3, [r7, #80]	@ 0x50
 800095a:	62fb      	str	r3, [r7, #44]	@ 0x2c
 800095c:	f8b7 3054 	ldrh.w	r3, [r7, #84]	@ 0x54
 8000960:	863b      	strh	r3, [r7, #48]	@ 0x30
#endif
#if CANARD_ENABLE_CANFD
        .canfd = canfd,
#endif
    };
    return canardRequestOrRespondObj(ins, destination_node_id, &transfer_object);
 8000962:	f107 0210 	add.w	r2, r7, #16
 8000966:	7afb      	ldrb	r3, [r7, #11]
 8000968:	4619      	mov	r1, r3
 800096a:	68f8      	ldr	r0, [r7, #12]
 800096c:	f000 f805 	bl	800097a <canardRequestOrRespondObj>
 8000970:	4603      	mov	r3, r0
}
 8000972:	4618      	mov	r0, r3
 8000974:	3738      	adds	r7, #56	@ 0x38
 8000976:	46bd      	mov	sp, r7
 8000978:	bd80      	pop	{r7, pc}

0800097a <canardRequestOrRespondObj>:

int16_t canardRequestOrRespondObj(CanardInstance* ins, uint8_t destination_node_id, CanardTxTransfer* transfer_object)
{
 800097a:	b590      	push	{r4, r7, lr}
 800097c:	b087      	sub	sp, #28
 800097e:	af00      	add	r7, sp, #0
 8000980:	60f8      	str	r0, [r7, #12]
 8000982:	460b      	mov	r3, r1
 8000984:	607a      	str	r2, [r7, #4]
 8000986:	72fb      	strb	r3, [r7, #11]
    if (transfer_object->payload == NULL && transfer_object->payload_len > 0)
 8000988:	687b      	ldr	r3, [r7, #4]
 800098a:	69db      	ldr	r3, [r3, #28]
 800098c:	2b00      	cmp	r3, #0
 800098e:	d106      	bne.n	800099e <canardRequestOrRespondObj+0x24>
 8000990:	687b      	ldr	r3, [r7, #4]
 8000992:	8c1b      	ldrh	r3, [r3, #32]
 8000994:	2b00      	cmp	r3, #0
 8000996:	d002      	beq.n	800099e <canardRequestOrRespondObj+0x24>
    {
        return -CANARD_ERROR_INVALID_ARGUMENT;
 8000998:	f06f 0301 	mvn.w	r3, #1
 800099c:	e042      	b.n	8000a24 <canardRequestOrRespondObj+0xaa>
    }
    if (transfer_object->priority > CANARD_TRANSFER_PRIORITY_LOWEST)
 800099e:	687b      	ldr	r3, [r7, #4]
 80009a0:	7e1b      	ldrb	r3, [r3, #24]
 80009a2:	2b1f      	cmp	r3, #31
 80009a4:	d902      	bls.n	80009ac <canardRequestOrRespondObj+0x32>
    {
        return -CANARD_ERROR_INVALID_ARGUMENT;
 80009a6:	f06f 0301 	mvn.w	r3, #1
 80009aa:	e03b      	b.n	8000a24 <canardRequestOrRespondObj+0xaa>
    }
    if (canardGetLocalNodeID(ins) == 0)
 80009ac:	68f8      	ldr	r0, [r7, #12]
 80009ae:	f7ff fecd 	bl	800074c <canardGetLocalNodeID>
 80009b2:	4603      	mov	r3, r0
 80009b4:	2b00      	cmp	r3, #0
 80009b6:	d102      	bne.n	80009be <canardRequestOrRespondObj+0x44>
    {
        return -CANARD_ERROR_NODE_ID_NOT_SET;
 80009b8:	f06f 0303 	mvn.w	r3, #3
 80009bc:	e032      	b.n	8000a24 <canardRequestOrRespondObj+0xaa>
    }

    const uint32_t can_id = ((uint32_t) transfer_object->priority << 24U) | ((uint32_t) transfer_object->data_type_id << 16U) |
 80009be:	687b      	ldr	r3, [r7, #4]
 80009c0:	7e1b      	ldrb	r3, [r3, #24]
 80009c2:	061a      	lsls	r2, r3, #24
 80009c4:	687b      	ldr	r3, [r7, #4]
 80009c6:	8a1b      	ldrh	r3, [r3, #16]
 80009c8:	041b      	lsls	r3, r3, #16
 80009ca:	431a      	orrs	r2, r3
                            ((uint32_t) transfer_object->transfer_type << 15U) | ((uint32_t) destination_node_id << 8U) |
 80009cc:	687b      	ldr	r3, [r7, #4]
 80009ce:	781b      	ldrb	r3, [r3, #0]
 80009d0:	03db      	lsls	r3, r3, #15
    const uint32_t can_id = ((uint32_t) transfer_object->priority << 24U) | ((uint32_t) transfer_object->data_type_id << 16U) |
 80009d2:	431a      	orrs	r2, r3
                            ((uint32_t) transfer_object->transfer_type << 15U) | ((uint32_t) destination_node_id << 8U) |
 80009d4:	7afb      	ldrb	r3, [r7, #11]
 80009d6:	021b      	lsls	r3, r3, #8
 80009d8:	ea42 0403 	orr.w	r4, r2, r3
                            (1U << 7U) | (uint32_t) canardGetLocalNodeID(ins);
 80009dc:	68f8      	ldr	r0, [r7, #12]
 80009de:	f7ff feb5 	bl	800074c <canardGetLocalNodeID>
 80009e2:	4603      	mov	r3, r0
 80009e4:	4323      	orrs	r3, r4
    const uint32_t can_id = ((uint32_t) transfer_object->priority << 24U) | ((uint32_t) transfer_object->data_type_id << 16U) |
 80009e6:	f043 0380 	orr.w	r3, r3, #128	@ 0x80
 80009ea:	617b      	str	r3, [r7, #20]

    uint16_t crc = calculateCRC(transfer_object);
 80009ec:	6878      	ldr	r0, [r7, #4]
 80009ee:	f7ff ff71 	bl	80008d4 <calculateCRC>
 80009f2:	4603      	mov	r3, r0
 80009f4:	827b      	strh	r3, [r7, #18]


    const int16_t result = enqueueTxFrames(ins, can_id, crc, transfer_object);
 80009f6:	8a7a      	ldrh	r2, [r7, #18]
 80009f8:	687b      	ldr	r3, [r7, #4]
 80009fa:	6979      	ldr	r1, [r7, #20]
 80009fc:	68f8      	ldr	r0, [r7, #12]
 80009fe:	f000 ff0b 	bl	8001818 <enqueueTxFrames>
 8000a02:	4603      	mov	r3, r0
 8000a04:	823b      	strh	r3, [r7, #16]

    if (result > 0 && transfer_object->transfer_type == CanardTransferTypeRequest)                      // Response Transfer ID must not be altered
 8000a06:	f9b7 3010 	ldrsh.w	r3, [r7, #16]
 8000a0a:	2b00      	cmp	r3, #0
 8000a0c:	dd08      	ble.n	8000a20 <canardRequestOrRespondObj+0xa6>
 8000a0e:	687b      	ldr	r3, [r7, #4]
 8000a10:	781b      	ldrb	r3, [r3, #0]
 8000a12:	2b01      	cmp	r3, #1
 8000a14:	d104      	bne.n	8000a20 <canardRequestOrRespondObj+0xa6>
    {
        incrementTransferID(transfer_object->inout_transfer_id);
 8000a16:	687b      	ldr	r3, [r7, #4]
 8000a18:	695b      	ldr	r3, [r3, #20]
 8000a1a:	4618      	mov	r0, r3
 8000a1c:	f000 fe87 	bl	800172e <incrementTransferID>
    }

    return result;
 8000a20:	f9b7 3010 	ldrsh.w	r3, [r7, #16]
}
 8000a24:	4618      	mov	r0, r3
 8000a26:	371c      	adds	r7, #28
 8000a28:	46bd      	mov	sp, r7
 8000a2a:	bd90      	pop	{r4, r7, pc}

08000a2c <canardPeekTxQueue>:

CanardCANFrame* canardPeekTxQueue(const CanardInstance* ins)
{
 8000a2c:	b480      	push	{r7}
 8000a2e:	b083      	sub	sp, #12
 8000a30:	af00      	add	r7, sp, #0
 8000a32:	6078      	str	r0, [r7, #4]
    if (ins->tx_queue == NULL)
 8000a34:	687b      	ldr	r3, [r7, #4]
 8000a36:	6a5b      	ldr	r3, [r3, #36]	@ 0x24
 8000a38:	2b00      	cmp	r3, #0
 8000a3a:	d101      	bne.n	8000a40 <canardPeekTxQueue+0x14>
    {
        return NULL;
 8000a3c:	2300      	movs	r3, #0
 8000a3e:	e002      	b.n	8000a46 <canardPeekTxQueue+0x1a>
    }
    return &ins->tx_queue->frame;
 8000a40:	687b      	ldr	r3, [r7, #4]
 8000a42:	6a5b      	ldr	r3, [r3, #36]	@ 0x24
 8000a44:	3304      	adds	r3, #4
}
 8000a46:	4618      	mov	r0, r3
 8000a48:	370c      	adds	r7, #12
 8000a4a:	46bd      	mov	sp, r7
 8000a4c:	f85d 7b04 	ldr.w	r7, [sp], #4
 8000a50:	4770      	bx	lr

08000a52 <canardPopTxQueue>:

void canardPopTxQueue(CanardInstance* ins)
{
 8000a52:	b580      	push	{r7, lr}
 8000a54:	b084      	sub	sp, #16
 8000a56:	af00      	add	r7, sp, #0
 8000a58:	6078      	str	r0, [r7, #4]
    CanardTxQueueItem* item = ins->tx_queue;
 8000a5a:	687b      	ldr	r3, [r7, #4]
 8000a5c:	6a5b      	ldr	r3, [r3, #36]	@ 0x24
 8000a5e:	60fb      	str	r3, [r7, #12]
    ins->tx_queue = item->next;
 8000a60:	68fb      	ldr	r3, [r7, #12]
 8000a62:	681a      	ldr	r2, [r3, #0]
 8000a64:	687b      	ldr	r3, [r7, #4]
 8000a66:	625a      	str	r2, [r3, #36]	@ 0x24
    freeBlock(&ins->allocator, item);
 8000a68:	687b      	ldr	r3, [r7, #4]
 8000a6a:	330c      	adds	r3, #12
 8000a6c:	68f9      	ldr	r1, [r7, #12]
 8000a6e:	4618      	mov	r0, r3
 8000a70:	f001 fd63 	bl	800253a <freeBlock>
}
 8000a74:	bf00      	nop
 8000a76:	3710      	adds	r7, #16
 8000a78:	46bd      	mov	sp, r7
 8000a7a:	bd80      	pop	{r7, pc}

08000a7c <canardHandleRxFrame>:

int16_t canardHandleRxFrame(CanardInstance* ins, const CanardCANFrame* frame, uint64_t timestamp_usec)
{
 8000a7c:	e92d 43f0 	stmdb	sp!, {r4, r5, r6, r7, r8, r9, lr}
 8000a80:	b09f      	sub	sp, #124	@ 0x7c
 8000a82:	af02      	add	r7, sp, #8
 8000a84:	60f8      	str	r0, [r7, #12]
 8000a86:	60b9      	str	r1, [r7, #8]
 8000a88:	e9c7 2300 	strd	r2, r3, [r7]
    const CanardTransferType transfer_type = extractTransferType(frame->id);
 8000a8c:	68bb      	ldr	r3, [r7, #8]
 8000a8e:	681b      	ldr	r3, [r3, #0]
 8000a90:	4618      	mov	r0, r3
 8000a92:	f001 f8c8 	bl	8001c26 <extractTransferType>
 8000a96:	4603      	mov	r3, r0
 8000a98:	f887 3057 	strb.w	r3, [r7, #87]	@ 0x57
    const uint8_t destination_node_id = (transfer_type == CanardTransferTypeBroadcast) ?
 8000a9c:	f897 3057 	ldrb.w	r3, [r7, #87]	@ 0x57
 8000aa0:	2b02      	cmp	r3, #2
 8000aa2:	d007      	beq.n	8000ab4 <canardHandleRxFrame+0x38>
                                        (uint8_t)CANARD_BROADCAST_NODE_ID :
                                        DEST_ID_FROM_ID(frame->id);
 8000aa4:	68bb      	ldr	r3, [r7, #8]
 8000aa6:	681b      	ldr	r3, [r3, #0]
 8000aa8:	0a1b      	lsrs	r3, r3, #8
 8000aaa:	b2db      	uxtb	r3, r3
    const uint8_t destination_node_id = (transfer_type == CanardTransferTypeBroadcast) ?
 8000aac:	f003 037f 	and.w	r3, r3, #127	@ 0x7f
 8000ab0:	b2db      	uxtb	r3, r3
 8000ab2:	e000      	b.n	8000ab6 <canardHandleRxFrame+0x3a>
 8000ab4:	2300      	movs	r3, #0
 8000ab6:	f887 3056 	strb.w	r3, [r7, #86]	@ 0x56

    // TODO: This function should maintain statistics of transfer errors and such.

    if ((frame->id & CANARD_CAN_FRAME_EFF) == 0 ||
 8000aba:	68bb      	ldr	r3, [r7, #8]
 8000abc:	681b      	ldr	r3, [r3, #0]
 8000abe:	2b00      	cmp	r3, #0
 8000ac0:	da0f      	bge.n	8000ae2 <canardHandleRxFrame+0x66>
        (frame->id & CANARD_CAN_FRAME_RTR) != 0 ||
 8000ac2:	68bb      	ldr	r3, [r7, #8]
 8000ac4:	681b      	ldr	r3, [r3, #0]
 8000ac6:	f003 4380 	and.w	r3, r3, #1073741824	@ 0x40000000
    if ((frame->id & CANARD_CAN_FRAME_EFF) == 0 ||
 8000aca:	2b00      	cmp	r3, #0
 8000acc:	d109      	bne.n	8000ae2 <canardHandleRxFrame+0x66>
        (frame->id & CANARD_CAN_FRAME_ERR) != 0 ||
 8000ace:	68bb      	ldr	r3, [r7, #8]
 8000ad0:	681b      	ldr	r3, [r3, #0]
 8000ad2:	f003 5300 	and.w	r3, r3, #536870912	@ 0x20000000
        (frame->id & CANARD_CAN_FRAME_RTR) != 0 ||
 8000ad6:	2b00      	cmp	r3, #0
 8000ad8:	d103      	bne.n	8000ae2 <canardHandleRxFrame+0x66>
        (frame->data_len < 1))
 8000ada:	68bb      	ldr	r3, [r7, #8]
 8000adc:	7b1b      	ldrb	r3, [r3, #12]
        (frame->id & CANARD_CAN_FRAME_ERR) != 0 ||
 8000ade:	2b00      	cmp	r3, #0
 8000ae0:	d102      	bne.n	8000ae8 <canardHandleRxFrame+0x6c>
    {
        return -CANARD_ERROR_RX_INCOMPATIBLE_PACKET;
 8000ae2:	f06f 0309 	mvn.w	r3, #9
 8000ae6:	e361      	b.n	80011ac <canardHandleRxFrame+0x730>
    }

    if (transfer_type != CanardTransferTypeBroadcast &&
 8000ae8:	f897 3057 	ldrb.w	r3, [r7, #87]	@ 0x57
 8000aec:	2b02      	cmp	r3, #2
 8000aee:	d00b      	beq.n	8000b08 <canardHandleRxFrame+0x8c>
        destination_node_id != canardGetLocalNodeID(ins))
 8000af0:	68f8      	ldr	r0, [r7, #12]
 8000af2:	f7ff fe2b 	bl	800074c <canardGetLocalNodeID>
 8000af6:	4603      	mov	r3, r0
 8000af8:	461a      	mov	r2, r3
    if (transfer_type != CanardTransferTypeBroadcast &&
 8000afa:	f897 3056 	ldrb.w	r3, [r7, #86]	@ 0x56
 8000afe:	4293      	cmp	r3, r2
 8000b00:	d002      	beq.n	8000b08 <canardHandleRxFrame+0x8c>
    {
        return -CANARD_ERROR_RX_WRONG_ADDRESS;
 8000b02:	f06f 030a 	mvn.w	r3, #10
 8000b06:	e351      	b.n	80011ac <canardHandleRxFrame+0x730>
    }

    const uint8_t priority = PRIORITY_FROM_ID(frame->id);
 8000b08:	68bb      	ldr	r3, [r7, #8]
 8000b0a:	681b      	ldr	r3, [r3, #0]
 8000b0c:	0e1b      	lsrs	r3, r3, #24
 8000b0e:	b2db      	uxtb	r3, r3
 8000b10:	f003 031f 	and.w	r3, r3, #31
 8000b14:	f887 3055 	strb.w	r3, [r7, #85]	@ 0x55
    const uint8_t source_node_id = SOURCE_ID_FROM_ID(frame->id);
 8000b18:	68bb      	ldr	r3, [r7, #8]
 8000b1a:	681b      	ldr	r3, [r3, #0]
 8000b1c:	b2db      	uxtb	r3, r3
 8000b1e:	f003 037f 	and.w	r3, r3, #127	@ 0x7f
 8000b22:	f887 3054 	strb.w	r3, [r7, #84]	@ 0x54
    const uint16_t data_type_id = extractDataType(frame->id);
 8000b26:	68bb      	ldr	r3, [r7, #8]
 8000b28:	681b      	ldr	r3, [r3, #0]
 8000b2a:	4618      	mov	r0, r3
 8000b2c:	f001 f85b 	bl	8001be6 <extractDataType>
 8000b30:	4603      	mov	r3, r0
 8000b32:	f8a7 3052 	strh.w	r3, [r7, #82]	@ 0x52
    // printf("Transfer Type: %u, Received Data ID: %u\r\n", (uint32_t)transfer_type, (uint32_t)data_type_id);
    const uint32_t transfer_descriptor =
            MAKE_TRANSFER_DESCRIPTOR(data_type_id, transfer_type, source_node_id, destination_node_id);
 8000b36:	f8b7 2052 	ldrh.w	r2, [r7, #82]	@ 0x52
 8000b3a:	f897 3057 	ldrb.w	r3, [r7, #87]	@ 0x57
 8000b3e:	041b      	lsls	r3, r3, #16
 8000b40:	431a      	orrs	r2, r3
 8000b42:	f897 3054 	ldrb.w	r3, [r7, #84]	@ 0x54
 8000b46:	049b      	lsls	r3, r3, #18
 8000b48:	431a      	orrs	r2, r3
 8000b4a:	f897 3056 	ldrb.w	r3, [r7, #86]	@ 0x56
 8000b4e:	065b      	lsls	r3, r3, #25
    const uint32_t transfer_descriptor =
 8000b50:	4313      	orrs	r3, r2
 8000b52:	64fb      	str	r3, [r7, #76]	@ 0x4c

    const uint8_t tail_byte = frame->data[frame->data_len - 1];
 8000b54:	68bb      	ldr	r3, [r7, #8]
 8000b56:	7b1b      	ldrb	r3, [r3, #12]
 8000b58:	3b01      	subs	r3, #1
 8000b5a:	68ba      	ldr	r2, [r7, #8]
 8000b5c:	4413      	add	r3, r2
 8000b5e:	791b      	ldrb	r3, [r3, #4]
 8000b60:	f887 304b 	strb.w	r3, [r7, #75]	@ 0x4b
        // printf("IS END\r\n");
    } else {
        // printf("NOT END\r\n");
    }

    uint64_t data_type_signature = 0;
 8000b64:	f04f 0200 	mov.w	r2, #0
 8000b68:	f04f 0300 	mov.w	r3, #0
 8000b6c:	e9c7 230c 	strd	r2, r3, [r7, #48]	@ 0x30
    CanardRxState* rx_state = NULL;
 8000b70:	2300      	movs	r3, #0
 8000b72:	66fb      	str	r3, [r7, #108]	@ 0x6c

    if (IS_START_OF_TRANSFER(tail_byte))
 8000b74:	f897 304b 	ldrb.w	r3, [r7, #75]	@ 0x4b
 8000b78:	09db      	lsrs	r3, r3, #7
 8000b7a:	b2db      	uxtb	r3, r3
 8000b7c:	f003 0301 	and.w	r3, r3, #1
 8000b80:	2b00      	cmp	r3, #0
 8000b82:	d01e      	beq.n	8000bc2 <canardHandleRxFrame+0x146>
    {

        if (ins->should_accept(ins, &data_type_signature, data_type_id, transfer_type, source_node_id))
 8000b84:	68fb      	ldr	r3, [r7, #12]
 8000b86:	685e      	ldr	r6, [r3, #4]
 8000b88:	f897 0057 	ldrb.w	r0, [r7, #87]	@ 0x57
 8000b8c:	f8b7 2052 	ldrh.w	r2, [r7, #82]	@ 0x52
 8000b90:	f107 0130 	add.w	r1, r7, #48	@ 0x30
 8000b94:	f897 3054 	ldrb.w	r3, [r7, #84]	@ 0x54
 8000b98:	9300      	str	r3, [sp, #0]
 8000b9a:	4603      	mov	r3, r0
 8000b9c:	68f8      	ldr	r0, [r7, #12]
 8000b9e:	47b0      	blx	r6
 8000ba0:	4603      	mov	r3, r0
 8000ba2:	2b00      	cmp	r3, #0
 8000ba4:	d00a      	beq.n	8000bbc <canardHandleRxFrame+0x140>
        {
            rx_state = traverseRxStates(ins, transfer_descriptor);
 8000ba6:	6cf9      	ldr	r1, [r7, #76]	@ 0x4c
 8000ba8:	68f8      	ldr	r0, [r7, #12]
 8000baa:	f001 f860 	bl	8001c6e <traverseRxStates>
 8000bae:	66f8      	str	r0, [r7, #108]	@ 0x6c

            if(rx_state == NULL)
 8000bb0:	6efb      	ldr	r3, [r7, #108]	@ 0x6c
 8000bb2:	2b00      	cmp	r3, #0
 8000bb4:	d110      	bne.n	8000bd8 <canardHandleRxFrame+0x15c>
            {
                return -CANARD_ERROR_OUT_OF_MEMORY;
 8000bb6:	f06f 0302 	mvn.w	r3, #2
 8000bba:	e2f7      	b.n	80011ac <canardHandleRxFrame+0x730>
            }
        }
        else
        {
            return -CANARD_ERROR_RX_NOT_WANTED;
 8000bbc:	f06f 030b 	mvn.w	r3, #11
 8000bc0:	e2f4      	b.n	80011ac <canardHandleRxFrame+0x730>
        }
    }
    else
    {
        rx_state = findRxState(ins, transfer_descriptor);
 8000bc2:	6cf9      	ldr	r1, [r7, #76]	@ 0x4c
 8000bc4:	68f8      	ldr	r0, [r7, #12]
 8000bc6:	f001 f881 	bl	8001ccc <findRxState>
 8000bca:	66f8      	str	r0, [r7, #108]	@ 0x6c

        if (rx_state == NULL)
 8000bcc:	6efb      	ldr	r3, [r7, #108]	@ 0x6c
 8000bce:	2b00      	cmp	r3, #0
 8000bd0:	d102      	bne.n	8000bd8 <canardHandleRxFrame+0x15c>
        {
            return -CANARD_ERROR_RX_MISSED_START;
 8000bd2:	f06f 030c 	mvn.w	r3, #12
 8000bd6:	e2e9      	b.n	80011ac <canardHandleRxFrame+0x730>
    }

    CANARD_ASSERT(rx_state != NULL);    // All paths that lead to NULL should be terminated with return above

    // Resolving the state flags:
    const bool not_initialized = rx_state->timestamp_usec == 0;
 8000bd8:	6efb      	ldr	r3, [r7, #108]	@ 0x6c
 8000bda:	e9d3 2302 	ldrd	r2, r3, [r3, #8]
 8000bde:	4313      	orrs	r3, r2
 8000be0:	bf0c      	ite	eq
 8000be2:	2301      	moveq	r3, #1
 8000be4:	2300      	movne	r3, #0
 8000be6:	f887 304a 	strb.w	r3, [r7, #74]	@ 0x4a
    const bool tid_timed_out = (timestamp_usec - rx_state->timestamp_usec) > TRANSFER_TIMEOUT_USEC;
 8000bea:	6efb      	ldr	r3, [r7, #108]	@ 0x6c
 8000bec:	e9d3 2302 	ldrd	r2, r3, [r3, #8]
 8000bf0:	e9d7 0100 	ldrd	r0, r1, [r7]
 8000bf4:	ebb0 0802 	subs.w	r8, r0, r2
 8000bf8:	eb61 0903 	sbc.w	r9, r1, r3
 8000bfc:	4ba9      	ldr	r3, [pc, #676]	@ (8000ea4 <canardHandleRxFrame+0x428>)
 8000bfe:	4598      	cmp	r8, r3
 8000c00:	f179 0300 	sbcs.w	r3, r9, #0
 8000c04:	bf2c      	ite	cs
 8000c06:	2301      	movcs	r3, #1
 8000c08:	2300      	movcc	r3, #0
 8000c0a:	f887 3049 	strb.w	r3, [r7, #73]	@ 0x49
    const bool same_iface = frame->iface_id == rx_state->iface_id;
 8000c0e:	68bb      	ldr	r3, [r7, #8]
 8000c10:	7b5a      	ldrb	r2, [r3, #13]
 8000c12:	6efb      	ldr	r3, [r7, #108]	@ 0x6c
 8000c14:	7e9b      	ldrb	r3, [r3, #26]
 8000c16:	429a      	cmp	r2, r3
 8000c18:	bf0c      	ite	eq
 8000c1a:	2301      	moveq	r3, #1
 8000c1c:	2300      	movne	r3, #0
 8000c1e:	f887 3048 	strb.w	r3, [r7, #72]	@ 0x48
    const bool first_frame = IS_START_OF_TRANSFER(tail_byte);
 8000c22:	f897 304b 	ldrb.w	r3, [r7, #75]	@ 0x4b
 8000c26:	09db      	lsrs	r3, r3, #7
 8000c28:	b2db      	uxtb	r3, r3
 8000c2a:	f003 0301 	and.w	r3, r3, #1
 8000c2e:	2b00      	cmp	r3, #0
 8000c30:	bf14      	ite	ne
 8000c32:	2301      	movne	r3, #1
 8000c34:	2300      	moveq	r3, #0
 8000c36:	f887 3047 	strb.w	r3, [r7, #71]	@ 0x47
    const bool not_previous_tid =
        computeTransferIDForwardDistance((uint8_t) rx_state->transfer_id, TRANSFER_ID_FROM_TAIL_BYTE(tail_byte)) > 1;
 8000c3a:	6efb      	ldr	r3, [r7, #108]	@ 0x6c
 8000c3c:	7ddb      	ldrb	r3, [r3, #23]
 8000c3e:	f3c3 0384 	ubfx	r3, r3, #2, #5
 8000c42:	b2db      	uxtb	r3, r3
 8000c44:	461a      	mov	r2, r3
 8000c46:	f897 304b 	ldrb.w	r3, [r7, #75]	@ 0x4b
 8000c4a:	f003 031f 	and.w	r3, r3, #31
 8000c4e:	b2db      	uxtb	r3, r3
 8000c50:	4619      	mov	r1, r3
 8000c52:	4610      	mov	r0, r2
 8000c54:	f000 fd4c 	bl	80016f0 <computeTransferIDForwardDistance>
 8000c58:	4603      	mov	r3, r0
    const bool not_previous_tid =
 8000c5a:	2b01      	cmp	r3, #1
 8000c5c:	bfcc      	ite	gt
 8000c5e:	2301      	movgt	r3, #1
 8000c60:	2300      	movle	r3, #0
 8000c62:	f887 3046 	strb.w	r3, [r7, #70]	@ 0x46
    const bool iface_switch_allowed = (timestamp_usec - rx_state->timestamp_usec) > IFACE_SWITCH_DELAY_USEC;
 8000c66:	6efb      	ldr	r3, [r7, #108]	@ 0x6c
 8000c68:	e9d3 2302 	ldrd	r2, r3, [r3, #8]
 8000c6c:	e9d7 0100 	ldrd	r0, r1, [r7]
 8000c70:	1a84      	subs	r4, r0, r2
 8000c72:	eb61 0503 	sbc.w	r5, r1, r3
 8000c76:	4b8c      	ldr	r3, [pc, #560]	@ (8000ea8 <canardHandleRxFrame+0x42c>)
 8000c78:	429c      	cmp	r4, r3
 8000c7a:	f175 0300 	sbcs.w	r3, r5, #0
 8000c7e:	bf2c      	ite	cs
 8000c80:	2301      	movcs	r3, #1
 8000c82:	2300      	movcc	r3, #0
 8000c84:	f887 3045 	strb.w	r3, [r7, #69]	@ 0x45
    const bool non_wrapped_tid = computeTransferIDForwardDistance(TRANSFER_ID_FROM_TAIL_BYTE(tail_byte), (uint8_t) rx_state->transfer_id) < (1 << (TRANSFER_ID_BIT_LEN-1));
 8000c88:	f897 304b 	ldrb.w	r3, [r7, #75]	@ 0x4b
 8000c8c:	f003 031f 	and.w	r3, r3, #31
 8000c90:	b2da      	uxtb	r2, r3
 8000c92:	6efb      	ldr	r3, [r7, #108]	@ 0x6c
 8000c94:	7ddb      	ldrb	r3, [r3, #23]
 8000c96:	f3c3 0384 	ubfx	r3, r3, #2, #5
 8000c9a:	b2db      	uxtb	r3, r3
 8000c9c:	4619      	mov	r1, r3
 8000c9e:	4610      	mov	r0, r2
 8000ca0:	f000 fd26 	bl	80016f0 <computeTransferIDForwardDistance>
 8000ca4:	4603      	mov	r3, r0
 8000ca6:	2b0f      	cmp	r3, #15
 8000ca8:	bfd4      	ite	le
 8000caa:	2301      	movle	r3, #1
 8000cac:	2300      	movgt	r3, #0
 8000cae:	f887 3044 	strb.w	r3, [r7, #68]	@ 0x44
    const bool incomplete_frame = rx_state->buffer_blocks != CANARD_BUFFER_IDX_NONE;
 8000cb2:	6efb      	ldr	r3, [r7, #108]	@ 0x6c
 8000cb4:	685b      	ldr	r3, [r3, #4]
 8000cb6:	2b00      	cmp	r3, #0
 8000cb8:	bf14      	ite	ne
 8000cba:	2301      	movne	r3, #1
 8000cbc:	2300      	moveq	r3, #0
 8000cbe:	f887 3043 	strb.w	r3, [r7, #67]	@ 0x43

    const bool need_restart =
            (not_initialized) ||
            (tid_timed_out) ||
            (same_iface && first_frame && (not_previous_tid || incomplete_frame)) ||
 8000cc2:	f897 304a 	ldrb.w	r3, [r7, #74]	@ 0x4a
 8000cc6:	2b00      	cmp	r3, #0
 8000cc8:	d11f      	bne.n	8000d0a <canardHandleRxFrame+0x28e>
            (not_initialized) ||
 8000cca:	f897 3049 	ldrb.w	r3, [r7, #73]	@ 0x49
 8000cce:	2b00      	cmp	r3, #0
 8000cd0:	d11b      	bne.n	8000d0a <canardHandleRxFrame+0x28e>
            (tid_timed_out) ||
 8000cd2:	f897 3048 	ldrb.w	r3, [r7, #72]	@ 0x48
 8000cd6:	2b00      	cmp	r3, #0
 8000cd8:	d00b      	beq.n	8000cf2 <canardHandleRxFrame+0x276>
            (same_iface && first_frame && (not_previous_tid || incomplete_frame)) ||
 8000cda:	f897 3047 	ldrb.w	r3, [r7, #71]	@ 0x47
 8000cde:	2b00      	cmp	r3, #0
 8000ce0:	d007      	beq.n	8000cf2 <canardHandleRxFrame+0x276>
 8000ce2:	f897 3046 	ldrb.w	r3, [r7, #70]	@ 0x46
 8000ce6:	2b00      	cmp	r3, #0
 8000ce8:	d10f      	bne.n	8000d0a <canardHandleRxFrame+0x28e>
 8000cea:	f897 3043 	ldrb.w	r3, [r7, #67]	@ 0x43
 8000cee:	2b00      	cmp	r3, #0
 8000cf0:	d10b      	bne.n	8000d0a <canardHandleRxFrame+0x28e>
 8000cf2:	f897 3045 	ldrb.w	r3, [r7, #69]	@ 0x45
 8000cf6:	2b00      	cmp	r3, #0
 8000cf8:	d009      	beq.n	8000d0e <canardHandleRxFrame+0x292>
            (iface_switch_allowed && first_frame && non_wrapped_tid);
 8000cfa:	f897 3047 	ldrb.w	r3, [r7, #71]	@ 0x47
 8000cfe:	2b00      	cmp	r3, #0
 8000d00:	d005      	beq.n	8000d0e <canardHandleRxFrame+0x292>
 8000d02:	f897 3044 	ldrb.w	r3, [r7, #68]	@ 0x44
 8000d06:	2b00      	cmp	r3, #0
 8000d08:	d001      	beq.n	8000d0e <canardHandleRxFrame+0x292>
            (same_iface && first_frame && (not_previous_tid || incomplete_frame)) ||
 8000d0a:	2301      	movs	r3, #1
 8000d0c:	e000      	b.n	8000d10 <canardHandleRxFrame+0x294>
 8000d0e:	2300      	movs	r3, #0
    const bool need_restart =
 8000d10:	f887 3042 	strb.w	r3, [r7, #66]	@ 0x42
 8000d14:	f897 3042 	ldrb.w	r3, [r7, #66]	@ 0x42
 8000d18:	f003 0301 	and.w	r3, r3, #1
 8000d1c:	f887 3042 	strb.w	r3, [r7, #66]	@ 0x42

    if (need_restart)
 8000d20:	f897 3042 	ldrb.w	r3, [r7, #66]	@ 0x42
 8000d24:	2b00      	cmp	r3, #0
 8000d26:	d02f      	beq.n	8000d88 <canardHandleRxFrame+0x30c>
    {
        rx_state->transfer_id = TRANSFER_ID_FROM_TAIL_BYTE(tail_byte);
 8000d28:	f897 304b 	ldrb.w	r3, [r7, #75]	@ 0x4b
 8000d2c:	f003 031f 	and.w	r3, r3, #31
 8000d30:	b2d9      	uxtb	r1, r3
 8000d32:	6efa      	ldr	r2, [r7, #108]	@ 0x6c
 8000d34:	7dd3      	ldrb	r3, [r2, #23]
 8000d36:	f361 0386 	bfi	r3, r1, #2, #5
 8000d3a:	75d3      	strb	r3, [r2, #23]
        rx_state->next_toggle = 0;
 8000d3c:	6efa      	ldr	r2, [r7, #108]	@ 0x6c
 8000d3e:	7dd3      	ldrb	r3, [r2, #23]
 8000d40:	f023 0380 	bic.w	r3, r3, #128	@ 0x80
 8000d44:	75d3      	strb	r3, [r2, #23]
        releaseStatePayload(ins, rx_state);
 8000d46:	6ef9      	ldr	r1, [r7, #108]	@ 0x6c
 8000d48:	68f8      	ldr	r0, [r7, #12]
 8000d4a:	f001 f829 	bl	8001da0 <releaseStatePayload>
        rx_state->iface_id = frame->iface_id;
 8000d4e:	68bb      	ldr	r3, [r7, #8]
 8000d50:	7b5a      	ldrb	r2, [r3, #13]
 8000d52:	6efb      	ldr	r3, [r7, #108]	@ 0x6c
 8000d54:	769a      	strb	r2, [r3, #26]
        if (!IS_START_OF_TRANSFER(tail_byte))
 8000d56:	f897 304b 	ldrb.w	r3, [r7, #75]	@ 0x4b
 8000d5a:	09db      	lsrs	r3, r3, #7
 8000d5c:	b2db      	uxtb	r3, r3
 8000d5e:	f003 0301 	and.w	r3, r3, #1
 8000d62:	2b00      	cmp	r3, #0
 8000d64:	d110      	bne.n	8000d88 <canardHandleRxFrame+0x30c>
        {
            rx_state->transfer_id++;
 8000d66:	6efb      	ldr	r3, [r7, #108]	@ 0x6c
 8000d68:	7ddb      	ldrb	r3, [r3, #23]
 8000d6a:	f3c3 0384 	ubfx	r3, r3, #2, #5
 8000d6e:	b2db      	uxtb	r3, r3
 8000d70:	3301      	adds	r3, #1
 8000d72:	f003 031f 	and.w	r3, r3, #31
 8000d76:	b2d9      	uxtb	r1, r3
 8000d78:	6efa      	ldr	r2, [r7, #108]	@ 0x6c
 8000d7a:	7dd3      	ldrb	r3, [r2, #23]
 8000d7c:	f361 0386 	bfi	r3, r1, #2, #5
 8000d80:	75d3      	strb	r3, [r2, #23]
            return -CANARD_ERROR_RX_MISSED_START;
 8000d82:	f06f 030c 	mvn.w	r3, #12
 8000d86:	e211      	b.n	80011ac <canardHandleRxFrame+0x730>
        }
    }

    if (frame->iface_id != rx_state->iface_id)
 8000d88:	68bb      	ldr	r3, [r7, #8]
 8000d8a:	7b5a      	ldrb	r2, [r3, #13]
 8000d8c:	6efb      	ldr	r3, [r7, #108]	@ 0x6c
 8000d8e:	7e9b      	ldrb	r3, [r3, #26]
 8000d90:	429a      	cmp	r2, r3
 8000d92:	d001      	beq.n	8000d98 <canardHandleRxFrame+0x31c>
    {
        // drop frame if coming from unexpected interface
        return CANARD_OK;
 8000d94:	2300      	movs	r3, #0
 8000d96:	e209      	b.n	80011ac <canardHandleRxFrame+0x730>
    }

    if (IS_START_OF_TRANSFER(tail_byte) && IS_END_OF_TRANSFER(tail_byte)) // single frame transfer
 8000d98:	f897 304b 	ldrb.w	r3, [r7, #75]	@ 0x4b
 8000d9c:	09db      	lsrs	r3, r3, #7
 8000d9e:	b2db      	uxtb	r3, r3
 8000da0:	f003 0301 	and.w	r3, r3, #1
 8000da4:	2b00      	cmp	r3, #0
 8000da6:	d041      	beq.n	8000e2c <canardHandleRxFrame+0x3b0>
 8000da8:	f897 304b 	ldrb.w	r3, [r7, #75]	@ 0x4b
 8000dac:	099b      	lsrs	r3, r3, #6
 8000dae:	b2db      	uxtb	r3, r3
 8000db0:	f003 0301 	and.w	r3, r3, #1
 8000db4:	2b00      	cmp	r3, #0
 8000db6:	d039      	beq.n	8000e2c <canardHandleRxFrame+0x3b0>
    {
        rx_state->timestamp_usec = timestamp_usec;
 8000db8:	6ef9      	ldr	r1, [r7, #108]	@ 0x6c
 8000dba:	e9d7 2300 	ldrd	r2, r3, [r7]
 8000dbe:	e9c1 2302 	strd	r2, r3, [r1, #8]
        CanardRxTransfer rx_transfer = {
 8000dc2:	f107 0310 	add.w	r3, r7, #16
 8000dc6:	2220      	movs	r2, #32
 8000dc8:	2100      	movs	r1, #0
 8000dca:	4618      	mov	r0, r3
 8000dcc:	f006 fdc7 	bl	800795e <memset>
 8000dd0:	e9d7 2300 	ldrd	r2, r3, [r7]
 8000dd4:	e9c7 2304 	strd	r2, r3, [r7, #16]
            .timestamp_usec = timestamp_usec,
            .payload_head = frame->data,
 8000dd8:	68bb      	ldr	r3, [r7, #8]
 8000dda:	3304      	adds	r3, #4
        CanardRxTransfer rx_transfer = {
 8000ddc:	61bb      	str	r3, [r7, #24]
            .payload_len = (uint8_t)(frame->data_len - 1U),
 8000dde:	68bb      	ldr	r3, [r7, #8]
 8000de0:	7b1b      	ldrb	r3, [r3, #12]
 8000de2:	3b01      	subs	r3, #1
 8000de4:	b2db      	uxtb	r3, r3
        CanardRxTransfer rx_transfer = {
 8000de6:	84bb      	strh	r3, [r7, #36]	@ 0x24
 8000de8:	f8b7 3052 	ldrh.w	r3, [r7, #82]	@ 0x52
 8000dec:	84fb      	strh	r3, [r7, #38]	@ 0x26
 8000dee:	f897 3057 	ldrb.w	r3, [r7, #87]	@ 0x57
 8000df2:	f887 3028 	strb.w	r3, [r7, #40]	@ 0x28
            .data_type_id = data_type_id,
            .transfer_type = (uint8_t)transfer_type,
            .transfer_id = TRANSFER_ID_FROM_TAIL_BYTE(tail_byte),
 8000df6:	f897 304b 	ldrb.w	r3, [r7, #75]	@ 0x4b
 8000dfa:	f003 031f 	and.w	r3, r3, #31
 8000dfe:	b2db      	uxtb	r3, r3
        CanardRxTransfer rx_transfer = {
 8000e00:	f887 3029 	strb.w	r3, [r7, #41]	@ 0x29
 8000e04:	f897 3055 	ldrb.w	r3, [r7, #85]	@ 0x55
 8000e08:	f887 302a 	strb.w	r3, [r7, #42]	@ 0x2a
 8000e0c:	f897 3054 	ldrb.w	r3, [r7, #84]	@ 0x54
 8000e10:	f887 302b 	strb.w	r3, [r7, #43]	@ 0x2b
#elif CANARD_ENABLE_TAO_OPTION
            .tao = !ins->tao_disabled
#endif
        };

        ins->on_reception(ins, &rx_transfer);
 8000e14:	68fb      	ldr	r3, [r7, #12]
 8000e16:	689b      	ldr	r3, [r3, #8]
 8000e18:	f107 0210 	add.w	r2, r7, #16
 8000e1c:	4611      	mov	r1, r2
 8000e1e:	68f8      	ldr	r0, [r7, #12]
 8000e20:	4798      	blx	r3

        prepareForNextTransfer(rx_state);
 8000e22:	6ef8      	ldr	r0, [r7, #108]	@ 0x6c
 8000e24:	f000 febd 	bl	8001ba2 <prepareForNextTransfer>
        return CANARD_OK;
 8000e28:	2300      	movs	r3, #0
 8000e2a:	e1bf      	b.n	80011ac <canardHandleRxFrame+0x730>
    }

    if (TOGGLE_BIT(tail_byte) != rx_state->next_toggle)
 8000e2c:	f897 304b 	ldrb.w	r3, [r7, #75]	@ 0x4b
 8000e30:	095b      	lsrs	r3, r3, #5
 8000e32:	b2db      	uxtb	r3, r3
 8000e34:	f003 0301 	and.w	r3, r3, #1
 8000e38:	2b00      	cmp	r3, #0
 8000e3a:	bf14      	ite	ne
 8000e3c:	2301      	movne	r3, #1
 8000e3e:	2300      	moveq	r3, #0
 8000e40:	b2db      	uxtb	r3, r3
 8000e42:	461a      	mov	r2, r3
 8000e44:	6efb      	ldr	r3, [r7, #108]	@ 0x6c
 8000e46:	7ddb      	ldrb	r3, [r3, #23]
 8000e48:	f3c3 13c0 	ubfx	r3, r3, #7, #1
 8000e4c:	b2db      	uxtb	r3, r3
 8000e4e:	429a      	cmp	r2, r3
 8000e50:	d002      	beq.n	8000e58 <canardHandleRxFrame+0x3dc>
    {
        return -CANARD_ERROR_RX_WRONG_TOGGLE;
 8000e52:	f06f 030d 	mvn.w	r3, #13
 8000e56:	e1a9      	b.n	80011ac <canardHandleRxFrame+0x730>
    }

    if (TRANSFER_ID_FROM_TAIL_BYTE(tail_byte) != rx_state->transfer_id)
 8000e58:	f897 304b 	ldrb.w	r3, [r7, #75]	@ 0x4b
 8000e5c:	f003 031f 	and.w	r3, r3, #31
 8000e60:	6efa      	ldr	r2, [r7, #108]	@ 0x6c
 8000e62:	7dd2      	ldrb	r2, [r2, #23]
 8000e64:	f3c2 0284 	ubfx	r2, r2, #2, #5
 8000e68:	b2d2      	uxtb	r2, r2
 8000e6a:	4293      	cmp	r3, r2
 8000e6c:	d002      	beq.n	8000e74 <canardHandleRxFrame+0x3f8>
    {
        return -CANARD_ERROR_RX_UNEXPECTED_TID;
 8000e6e:	f06f 030e 	mvn.w	r3, #14
 8000e72:	e19b      	b.n	80011ac <canardHandleRxFrame+0x730>
    }

    if (IS_START_OF_TRANSFER(tail_byte) && !IS_END_OF_TRANSFER(tail_byte))      // Beginning of multi frame transfer
 8000e74:	f897 304b 	ldrb.w	r3, [r7, #75]	@ 0x4b
 8000e78:	09db      	lsrs	r3, r3, #7
 8000e7a:	b2db      	uxtb	r3, r3
 8000e7c:	f003 0301 	and.w	r3, r3, #1
 8000e80:	2b00      	cmp	r3, #0
 8000e82:	d061      	beq.n	8000f48 <canardHandleRxFrame+0x4cc>
 8000e84:	f897 304b 	ldrb.w	r3, [r7, #75]	@ 0x4b
 8000e88:	099b      	lsrs	r3, r3, #6
 8000e8a:	b2db      	uxtb	r3, r3
 8000e8c:	f003 0301 	and.w	r3, r3, #1
 8000e90:	2b00      	cmp	r3, #0
 8000e92:	d159      	bne.n	8000f48 <canardHandleRxFrame+0x4cc>
    {
        if (frame->data_len <= 3)
 8000e94:	68bb      	ldr	r3, [r7, #8]
 8000e96:	7b1b      	ldrb	r3, [r3, #12]
 8000e98:	2b03      	cmp	r3, #3
 8000e9a:	d807      	bhi.n	8000eac <canardHandleRxFrame+0x430>
        {
            return -CANARD_ERROR_RX_SHORT_FRAME;
 8000e9c:	f06f 030f 	mvn.w	r3, #15
 8000ea0:	e184      	b.n	80011ac <canardHandleRxFrame+0x730>
 8000ea2:	bf00      	nop
 8000ea4:	001e8481 	.word	0x001e8481
 8000ea8:	000f4241 	.word	0x000f4241
        }

        // take off the crc and store the payload
        rx_state->timestamp_usec = timestamp_usec;
 8000eac:	6ef9      	ldr	r1, [r7, #108]	@ 0x6c
 8000eae:	e9d7 2300 	ldrd	r2, r3, [r7]
 8000eb2:	e9c1 2302 	strd	r2, r3, [r1, #8]
        rx_state->payload_len = 0;
 8000eb6:	6efa      	ldr	r2, [r7, #108]	@ 0x6c
 8000eb8:	8ad3      	ldrh	r3, [r2, #22]
 8000eba:	f36f 0309 	bfc	r3, #0, #10
 8000ebe:	82d3      	strh	r3, [r2, #22]
        const int16_t ret = bufferBlockPushBytes(&ins->allocator, rx_state, frame->data + 2,
 8000ec0:	68fb      	ldr	r3, [r7, #12]
 8000ec2:	f103 000c 	add.w	r0, r3, #12
 8000ec6:	68bb      	ldr	r3, [r7, #8]
 8000ec8:	3304      	adds	r3, #4
 8000eca:	1c9a      	adds	r2, r3, #2
                                                 (uint8_t) (frame->data_len - 3));
 8000ecc:	68bb      	ldr	r3, [r7, #8]
 8000ece:	7b1b      	ldrb	r3, [r3, #12]
        const int16_t ret = bufferBlockPushBytes(&ins->allocator, rx_state, frame->data + 2,
 8000ed0:	3b03      	subs	r3, #3
 8000ed2:	b2db      	uxtb	r3, r3
 8000ed4:	6ef9      	ldr	r1, [r7, #108]	@ 0x6c
 8000ed6:	f000 ff97 	bl	8001e08 <bufferBlockPushBytes>
 8000eda:	4603      	mov	r3, r0
 8000edc:	f8a7 3040 	strh.w	r3, [r7, #64]	@ 0x40
        if (ret < 0)
 8000ee0:	f9b7 3040 	ldrsh.w	r3, [r7, #64]	@ 0x40
 8000ee4:	2b00      	cmp	r3, #0
 8000ee6:	da09      	bge.n	8000efc <canardHandleRxFrame+0x480>
        {
            releaseStatePayload(ins, rx_state);
 8000ee8:	6ef9      	ldr	r1, [r7, #108]	@ 0x6c
 8000eea:	68f8      	ldr	r0, [r7, #12]
 8000eec:	f000 ff58 	bl	8001da0 <releaseStatePayload>
            prepareForNextTransfer(rx_state);
 8000ef0:	6ef8      	ldr	r0, [r7, #108]	@ 0x6c
 8000ef2:	f000 fe56 	bl	8001ba2 <prepareForNextTransfer>
            return -CANARD_ERROR_OUT_OF_MEMORY;
 8000ef6:	f06f 0302 	mvn.w	r3, #2
 8000efa:	e157      	b.n	80011ac <canardHandleRxFrame+0x730>
        }
        rx_state->payload_crc = (uint16_t)(((uint16_t) frame->data[0]) | (uint16_t)((uint16_t) frame->data[1] << 8U));
 8000efc:	68bb      	ldr	r3, [r7, #8]
 8000efe:	791b      	ldrb	r3, [r3, #4]
 8000f00:	461a      	mov	r2, r3
 8000f02:	68bb      	ldr	r3, [r7, #8]
 8000f04:	795b      	ldrb	r3, [r3, #5]
 8000f06:	021b      	lsls	r3, r3, #8
 8000f08:	b29b      	uxth	r3, r3
 8000f0a:	4313      	orrs	r3, r2
 8000f0c:	b29a      	uxth	r2, r3
 8000f0e:	6efb      	ldr	r3, [r7, #108]	@ 0x6c
 8000f10:	831a      	strh	r2, [r3, #24]
        rx_state->calculated_crc = crcAddSignature(0xFFFFU, data_type_signature);
 8000f12:	e9d7 230c 	ldrd	r2, r3, [r7, #48]	@ 0x30
 8000f16:	f64f 70ff 	movw	r0, #65535	@ 0xffff
 8000f1a:	f001 fa62 	bl	80023e2 <crcAddSignature>
 8000f1e:	4603      	mov	r3, r0
 8000f20:	461a      	mov	r2, r3
 8000f22:	6efb      	ldr	r3, [r7, #108]	@ 0x6c
 8000f24:	829a      	strh	r2, [r3, #20]
        rx_state->calculated_crc = crcAdd((uint16_t)rx_state->calculated_crc,
 8000f26:	6efb      	ldr	r3, [r7, #108]	@ 0x6c
 8000f28:	8a98      	ldrh	r0, [r3, #20]
                                          frame->data + 2, (uint8_t)(frame->data_len - 3));
 8000f2a:	68bb      	ldr	r3, [r7, #8]
 8000f2c:	3304      	adds	r3, #4
        rx_state->calculated_crc = crcAdd((uint16_t)rx_state->calculated_crc,
 8000f2e:	1c99      	adds	r1, r3, #2
                                          frame->data + 2, (uint8_t)(frame->data_len - 3));
 8000f30:	68bb      	ldr	r3, [r7, #8]
 8000f32:	7b1b      	ldrb	r3, [r3, #12]
 8000f34:	3b03      	subs	r3, #3
 8000f36:	b2db      	uxtb	r3, r3
        rx_state->calculated_crc = crcAdd((uint16_t)rx_state->calculated_crc,
 8000f38:	461a      	mov	r2, r3
 8000f3a:	f001 fa81 	bl	8002440 <crcAdd>
 8000f3e:	4603      	mov	r3, r0
 8000f40:	461a      	mov	r2, r3
 8000f42:	6efb      	ldr	r3, [r7, #108]	@ 0x6c
 8000f44:	829a      	strh	r2, [r3, #20]
    {
 8000f46:	e124      	b.n	8001192 <canardHandleRxFrame+0x716>
    }
    else if (!IS_START_OF_TRANSFER(tail_byte) && !IS_END_OF_TRANSFER(tail_byte))    // Middle of a multi-frame transfer
 8000f48:	f897 304b 	ldrb.w	r3, [r7, #75]	@ 0x4b
 8000f4c:	09db      	lsrs	r3, r3, #7
 8000f4e:	b2db      	uxtb	r3, r3
 8000f50:	f003 0301 	and.w	r3, r3, #1
 8000f54:	2b00      	cmp	r3, #0
 8000f56:	d133      	bne.n	8000fc0 <canardHandleRxFrame+0x544>
 8000f58:	f897 304b 	ldrb.w	r3, [r7, #75]	@ 0x4b
 8000f5c:	099b      	lsrs	r3, r3, #6
 8000f5e:	b2db      	uxtb	r3, r3
 8000f60:	f003 0301 	and.w	r3, r3, #1
 8000f64:	2b00      	cmp	r3, #0
 8000f66:	d12b      	bne.n	8000fc0 <canardHandleRxFrame+0x544>
    {
        const int16_t ret = bufferBlockPushBytes(&ins->allocator, rx_state, frame->data,
 8000f68:	68fb      	ldr	r3, [r7, #12]
 8000f6a:	f103 000c 	add.w	r0, r3, #12
 8000f6e:	68bb      	ldr	r3, [r7, #8]
 8000f70:	1d1a      	adds	r2, r3, #4
                                                 (uint8_t) (frame->data_len - 1));
 8000f72:	68bb      	ldr	r3, [r7, #8]
 8000f74:	7b1b      	ldrb	r3, [r3, #12]
        const int16_t ret = bufferBlockPushBytes(&ins->allocator, rx_state, frame->data,
 8000f76:	3b01      	subs	r3, #1
 8000f78:	b2db      	uxtb	r3, r3
 8000f7a:	6ef9      	ldr	r1, [r7, #108]	@ 0x6c
 8000f7c:	f000 ff44 	bl	8001e08 <bufferBlockPushBytes>
 8000f80:	4603      	mov	r3, r0
 8000f82:	87fb      	strh	r3, [r7, #62]	@ 0x3e
        if (ret < 0)
 8000f84:	f9b7 303e 	ldrsh.w	r3, [r7, #62]	@ 0x3e
 8000f88:	2b00      	cmp	r3, #0
 8000f8a:	da09      	bge.n	8000fa0 <canardHandleRxFrame+0x524>
        {
            releaseStatePayload(ins, rx_state);
 8000f8c:	6ef9      	ldr	r1, [r7, #108]	@ 0x6c
 8000f8e:	68f8      	ldr	r0, [r7, #12]
 8000f90:	f000 ff06 	bl	8001da0 <releaseStatePayload>
            prepareForNextTransfer(rx_state);
 8000f94:	6ef8      	ldr	r0, [r7, #108]	@ 0x6c
 8000f96:	f000 fe04 	bl	8001ba2 <prepareForNextTransfer>
            return -CANARD_ERROR_OUT_OF_MEMORY;
 8000f9a:	f06f 0302 	mvn.w	r3, #2
 8000f9e:	e105      	b.n	80011ac <canardHandleRxFrame+0x730>
        }
        rx_state->calculated_crc = crcAdd((uint16_t)rx_state->calculated_crc,
 8000fa0:	6efb      	ldr	r3, [r7, #108]	@ 0x6c
 8000fa2:	8a98      	ldrh	r0, [r3, #20]
                                          frame->data, (uint8_t)(frame->data_len - 1));
 8000fa4:	68bb      	ldr	r3, [r7, #8]
 8000fa6:	1d19      	adds	r1, r3, #4
 8000fa8:	68bb      	ldr	r3, [r7, #8]
 8000faa:	7b1b      	ldrb	r3, [r3, #12]
 8000fac:	3b01      	subs	r3, #1
 8000fae:	b2db      	uxtb	r3, r3
        rx_state->calculated_crc = crcAdd((uint16_t)rx_state->calculated_crc,
 8000fb0:	461a      	mov	r2, r3
 8000fb2:	f001 fa45 	bl	8002440 <crcAdd>
 8000fb6:	4603      	mov	r3, r0
 8000fb8:	461a      	mov	r2, r3
 8000fba:	6efb      	ldr	r3, [r7, #108]	@ 0x6c
 8000fbc:	829a      	strh	r2, [r3, #20]
    {
 8000fbe:	e0e8      	b.n	8001192 <canardHandleRxFrame+0x716>
    }
    else                                                                            // End of a multi-frame transfer
    {
        const uint8_t frame_payload_size = (uint8_t)(frame->data_len - 1);
 8000fc0:	68bb      	ldr	r3, [r7, #8]
 8000fc2:	7b1b      	ldrb	r3, [r3, #12]
 8000fc4:	3b01      	subs	r3, #1
 8000fc6:	f887 303d 	strb.w	r3, [r7, #61]	@ 0x3d

        uint8_t tail_offset = 0;
 8000fca:	2300      	movs	r3, #0
 8000fcc:	f887 306b 	strb.w	r3, [r7, #107]	@ 0x6b

        if (rx_state->payload_len < CANARD_MULTIFRAME_RX_PAYLOAD_HEAD_SIZE)
 8000fd0:	6efb      	ldr	r3, [r7, #108]	@ 0x6c
 8000fd2:	8adb      	ldrh	r3, [r3, #22]
 8000fd4:	f3c3 0309 	ubfx	r3, r3, #0, #10
 8000fd8:	b29b      	uxth	r3, r3
 8000fda:	2b04      	cmp	r3, #4
 8000fdc:	d823      	bhi.n	8001026 <canardHandleRxFrame+0x5aa>
        {
            // Copy the beginning of the frame into the head, point the tail pointer to the remainder
            for (size_t i = rx_state->payload_len;
 8000fde:	6efb      	ldr	r3, [r7, #108]	@ 0x6c
 8000fe0:	8adb      	ldrh	r3, [r3, #22]
 8000fe2:	f3c3 0309 	ubfx	r3, r3, #0, #10
 8000fe6:	b29b      	uxth	r3, r3
 8000fe8:	667b      	str	r3, [r7, #100]	@ 0x64
 8000fea:	e012      	b.n	8001012 <canardHandleRxFrame+0x596>
                 (i < CANARD_MULTIFRAME_RX_PAYLOAD_HEAD_SIZE) && (tail_offset < frame_payload_size);
                 i++, tail_offset++)
            {
                rx_state->buffer_head[i] = frame->data[tail_offset];
 8000fec:	f897 306b 	ldrb.w	r3, [r7, #107]	@ 0x6b
 8000ff0:	68ba      	ldr	r2, [r7, #8]
 8000ff2:	4413      	add	r3, r2
 8000ff4:	7919      	ldrb	r1, [r3, #4]
 8000ff6:	6efa      	ldr	r2, [r7, #108]	@ 0x6c
 8000ff8:	6e7b      	ldr	r3, [r7, #100]	@ 0x64
 8000ffa:	4413      	add	r3, r2
 8000ffc:	331b      	adds	r3, #27
 8000ffe:	460a      	mov	r2, r1
 8001000:	701a      	strb	r2, [r3, #0]
                 i++, tail_offset++)
 8001002:	6e7b      	ldr	r3, [r7, #100]	@ 0x64
 8001004:	3301      	adds	r3, #1
 8001006:	667b      	str	r3, [r7, #100]	@ 0x64
 8001008:	f897 306b 	ldrb.w	r3, [r7, #107]	@ 0x6b
 800100c:	3301      	adds	r3, #1
 800100e:	f887 306b 	strb.w	r3, [r7, #107]	@ 0x6b
                 (i < CANARD_MULTIFRAME_RX_PAYLOAD_HEAD_SIZE) && (tail_offset < frame_payload_size);
 8001012:	6e7b      	ldr	r3, [r7, #100]	@ 0x64
 8001014:	2b04      	cmp	r3, #4
 8001016:	d848      	bhi.n	80010aa <canardHandleRxFrame+0x62e>
 8001018:	f897 206b 	ldrb.w	r2, [r7, #107]	@ 0x6b
 800101c:	f897 303d 	ldrb.w	r3, [r7, #61]	@ 0x3d
 8001020:	429a      	cmp	r2, r3
 8001022:	d3e3      	bcc.n	8000fec <canardHandleRxFrame+0x570>
 8001024:	e041      	b.n	80010aa <canardHandleRxFrame+0x62e>
            }
        }
        else
        {
            // Like above, except that the beginning goes into the last block of the storage
            CanardBufferBlock* block = canardBufferFromIdx(&ins->allocator, rx_state->buffer_blocks);
 8001026:	68fb      	ldr	r3, [r7, #12]
 8001028:	f103 020c 	add.w	r2, r3, #12
 800102c:	6efb      	ldr	r3, [r7, #108]	@ 0x6c
 800102e:	685b      	ldr	r3, [r3, #4]
 8001030:	4619      	mov	r1, r3
 8001032:	4610      	mov	r0, r2
 8001034:	f7ff fc1e 	bl	8000874 <canardBufferFromIdx>
 8001038:	6638      	str	r0, [r7, #96]	@ 0x60
            if (block != NULL)
 800103a:	6e3b      	ldr	r3, [r7, #96]	@ 0x60
 800103c:	2b00      	cmp	r3, #0
 800103e:	d034      	beq.n	80010aa <canardHandleRxFrame+0x62e>
            {
                size_t offset = CANARD_MULTIFRAME_RX_PAYLOAD_HEAD_SIZE;    // Payload offset of the first block
 8001040:	2305      	movs	r3, #5
 8001042:	65fb      	str	r3, [r7, #92]	@ 0x5c
                while (block->next != NULL)
 8001044:	e005      	b.n	8001052 <canardHandleRxFrame+0x5d6>
                {
                    block = block->next;
 8001046:	6e3b      	ldr	r3, [r7, #96]	@ 0x60
 8001048:	681b      	ldr	r3, [r3, #0]
 800104a:	663b      	str	r3, [r7, #96]	@ 0x60
                    offset += CANARD_BUFFER_BLOCK_DATA_SIZE;
 800104c:	6dfb      	ldr	r3, [r7, #92]	@ 0x5c
 800104e:	331c      	adds	r3, #28
 8001050:	65fb      	str	r3, [r7, #92]	@ 0x5c
                while (block->next != NULL)
 8001052:	6e3b      	ldr	r3, [r7, #96]	@ 0x60
 8001054:	681b      	ldr	r3, [r3, #0]
 8001056:	2b00      	cmp	r3, #0
 8001058:	d1f5      	bne.n	8001046 <canardHandleRxFrame+0x5ca>
                }
                CANARD_ASSERT(block != NULL);

                const size_t offset_within_block = rx_state->payload_len - offset;
 800105a:	6efb      	ldr	r3, [r7, #108]	@ 0x6c
 800105c:	8adb      	ldrh	r3, [r3, #22]
 800105e:	f3c3 0309 	ubfx	r3, r3, #0, #10
 8001062:	b29b      	uxth	r3, r3
 8001064:	461a      	mov	r2, r3
 8001066:	6dfb      	ldr	r3, [r7, #92]	@ 0x5c
 8001068:	1ad3      	subs	r3, r2, r3
 800106a:	63bb      	str	r3, [r7, #56]	@ 0x38
                CANARD_ASSERT(offset_within_block <= CANARD_BUFFER_BLOCK_DATA_SIZE);

                for (size_t i = offset_within_block;
 800106c:	6bbb      	ldr	r3, [r7, #56]	@ 0x38
 800106e:	65bb      	str	r3, [r7, #88]	@ 0x58
 8001070:	e012      	b.n	8001098 <canardHandleRxFrame+0x61c>
                     (i < CANARD_BUFFER_BLOCK_DATA_SIZE) && (tail_offset < frame_payload_size);
                     i++, tail_offset++)
                {
                    block->data[i] = frame->data[tail_offset];
 8001072:	f897 306b 	ldrb.w	r3, [r7, #107]	@ 0x6b
 8001076:	68ba      	ldr	r2, [r7, #8]
 8001078:	4413      	add	r3, r2
 800107a:	7919      	ldrb	r1, [r3, #4]
 800107c:	6e3a      	ldr	r2, [r7, #96]	@ 0x60
 800107e:	6dbb      	ldr	r3, [r7, #88]	@ 0x58
 8001080:	4413      	add	r3, r2
 8001082:	3304      	adds	r3, #4
 8001084:	460a      	mov	r2, r1
 8001086:	701a      	strb	r2, [r3, #0]
                     i++, tail_offset++)
 8001088:	6dbb      	ldr	r3, [r7, #88]	@ 0x58
 800108a:	3301      	adds	r3, #1
 800108c:	65bb      	str	r3, [r7, #88]	@ 0x58
 800108e:	f897 306b 	ldrb.w	r3, [r7, #107]	@ 0x6b
 8001092:	3301      	adds	r3, #1
 8001094:	f887 306b 	strb.w	r3, [r7, #107]	@ 0x6b
                     (i < CANARD_BUFFER_BLOCK_DATA_SIZE) && (tail_offset < frame_payload_size);
 8001098:	6dbb      	ldr	r3, [r7, #88]	@ 0x58
 800109a:	2b1b      	cmp	r3, #27
 800109c:	d805      	bhi.n	80010aa <canardHandleRxFrame+0x62e>
 800109e:	f897 206b 	ldrb.w	r2, [r7, #107]	@ 0x6b
 80010a2:	f897 303d 	ldrb.w	r3, [r7, #61]	@ 0x3d
 80010a6:	429a      	cmp	r2, r3
 80010a8:	d3e3      	bcc.n	8001072 <canardHandleRxFrame+0x5f6>
                }
            }
        }

        CanardRxTransfer rx_transfer = {
 80010aa:	e9d7 2300 	ldrd	r2, r3, [r7]
 80010ae:	e9c7 2304 	strd	r2, r3, [r7, #16]
            .timestamp_usec = timestamp_usec,
            .payload_head = rx_state->buffer_head,
 80010b2:	6efb      	ldr	r3, [r7, #108]	@ 0x6c
 80010b4:	331b      	adds	r3, #27
        CanardRxTransfer rx_transfer = {
 80010b6:	61bb      	str	r3, [r7, #24]
            .payload_middle = canardBufferFromIdx(&ins->allocator, rx_state->buffer_blocks),
 80010b8:	68fb      	ldr	r3, [r7, #12]
 80010ba:	f103 020c 	add.w	r2, r3, #12
 80010be:	6efb      	ldr	r3, [r7, #108]	@ 0x6c
 80010c0:	685b      	ldr	r3, [r3, #4]
 80010c2:	4619      	mov	r1, r3
 80010c4:	4610      	mov	r0, r2
 80010c6:	f7ff fbd5 	bl	8000874 <canardBufferFromIdx>
 80010ca:	4603      	mov	r3, r0
        CanardRxTransfer rx_transfer = {
 80010cc:	61fb      	str	r3, [r7, #28]
            .payload_tail = (tail_offset >= frame_payload_size) ? NULL : (&frame->data[tail_offset]),
 80010ce:	f897 206b 	ldrb.w	r2, [r7, #107]	@ 0x6b
 80010d2:	f897 303d 	ldrb.w	r3, [r7, #61]	@ 0x3d
 80010d6:	429a      	cmp	r2, r3
 80010d8:	d205      	bcs.n	80010e6 <canardHandleRxFrame+0x66a>
 80010da:	f897 306b 	ldrb.w	r3, [r7, #107]	@ 0x6b
 80010de:	68ba      	ldr	r2, [r7, #8]
 80010e0:	4413      	add	r3, r2
 80010e2:	3304      	adds	r3, #4
 80010e4:	e000      	b.n	80010e8 <canardHandleRxFrame+0x66c>
 80010e6:	2300      	movs	r3, #0
        CanardRxTransfer rx_transfer = {
 80010e8:	623b      	str	r3, [r7, #32]
            .payload_len = (uint16_t)(rx_state->payload_len + frame_payload_size),
 80010ea:	6efb      	ldr	r3, [r7, #108]	@ 0x6c
 80010ec:	8adb      	ldrh	r3, [r3, #22]
 80010ee:	f3c3 0309 	ubfx	r3, r3, #0, #10
 80010f2:	b29b      	uxth	r3, r3
 80010f4:	461a      	mov	r2, r3
 80010f6:	f897 303d 	ldrb.w	r3, [r7, #61]	@ 0x3d
 80010fa:	b29b      	uxth	r3, r3
 80010fc:	4413      	add	r3, r2
 80010fe:	b29b      	uxth	r3, r3
        CanardRxTransfer rx_transfer = {
 8001100:	84bb      	strh	r3, [r7, #36]	@ 0x24
 8001102:	f8b7 3052 	ldrh.w	r3, [r7, #82]	@ 0x52
 8001106:	84fb      	strh	r3, [r7, #38]	@ 0x26
 8001108:	f897 3057 	ldrb.w	r3, [r7, #87]	@ 0x57
 800110c:	f887 3028 	strb.w	r3, [r7, #40]	@ 0x28
            .data_type_id = data_type_id,
            .transfer_type = (uint8_t)transfer_type,
            .transfer_id = TRANSFER_ID_FROM_TAIL_BYTE(tail_byte),
 8001110:	f897 304b 	ldrb.w	r3, [r7, #75]	@ 0x4b
 8001114:	f003 031f 	and.w	r3, r3, #31
 8001118:	b2db      	uxtb	r3, r3
        CanardRxTransfer rx_transfer = {
 800111a:	f887 3029 	strb.w	r3, [r7, #41]	@ 0x29
 800111e:	f897 3055 	ldrb.w	r3, [r7, #85]	@ 0x55
 8001122:	f887 302a 	strb.w	r3, [r7, #42]	@ 0x2a
 8001126:	f897 3054 	ldrb.w	r3, [r7, #84]	@ 0x54
 800112a:	f887 302b 	strb.w	r3, [r7, #43]	@ 0x2b
#elif CANARD_ENABLE_TAO_OPTION
            .tao = !ins->tao_disabled
#endif
        };

        rx_state->buffer_blocks = CANARD_BUFFER_IDX_NONE;     // Block list ownership has been transferred to rx_transfer!
 800112e:	6efb      	ldr	r3, [r7, #108]	@ 0x6c
 8001130:	2200      	movs	r2, #0
 8001132:	605a      	str	r2, [r3, #4]

        // CRC validation
        rx_state->calculated_crc = crcAdd((uint16_t)rx_state->calculated_crc, frame->data, frame->data_len - 1U);
 8001134:	6efb      	ldr	r3, [r7, #108]	@ 0x6c
 8001136:	8a98      	ldrh	r0, [r3, #20]
 8001138:	68bb      	ldr	r3, [r7, #8]
 800113a:	1d19      	adds	r1, r3, #4
 800113c:	68bb      	ldr	r3, [r7, #8]
 800113e:	7b1b      	ldrb	r3, [r3, #12]
 8001140:	3b01      	subs	r3, #1
 8001142:	461a      	mov	r2, r3
 8001144:	f001 f97c 	bl	8002440 <crcAdd>
 8001148:	4603      	mov	r3, r0
 800114a:	461a      	mov	r2, r3
 800114c:	6efb      	ldr	r3, [r7, #108]	@ 0x6c
 800114e:	829a      	strh	r2, [r3, #20]
        if (rx_state->calculated_crc == rx_state->payload_crc)
 8001150:	6efb      	ldr	r3, [r7, #108]	@ 0x6c
 8001152:	8a9a      	ldrh	r2, [r3, #20]
 8001154:	6efb      	ldr	r3, [r7, #108]	@ 0x6c
 8001156:	8b1b      	ldrh	r3, [r3, #24]
 8001158:	429a      	cmp	r2, r3
 800115a:	d106      	bne.n	800116a <canardHandleRxFrame+0x6ee>
        {
            ins->on_reception(ins, &rx_transfer);
 800115c:	68fb      	ldr	r3, [r7, #12]
 800115e:	689b      	ldr	r3, [r3, #8]
 8001160:	f107 0210 	add.w	r2, r7, #16
 8001164:	4611      	mov	r1, r2
 8001166:	68f8      	ldr	r0, [r7, #12]
 8001168:	4798      	blx	r3
        }

        // Making sure the payload is released even if the application didn't bother with it
        canardReleaseRxTransferPayload(ins, &rx_transfer);
 800116a:	f107 0310 	add.w	r3, r7, #16
 800116e:	4619      	mov	r1, r3
 8001170:	68f8      	ldr	r0, [r7, #12]
 8001172:	f000 fa93 	bl	800169c <canardReleaseRxTransferPayload>
        prepareForNextTransfer(rx_state);
 8001176:	6ef8      	ldr	r0, [r7, #108]	@ 0x6c
 8001178:	f000 fd13 	bl	8001ba2 <prepareForNextTransfer>

        if (rx_state->calculated_crc == rx_state->payload_crc)
 800117c:	6efb      	ldr	r3, [r7, #108]	@ 0x6c
 800117e:	8a9a      	ldrh	r2, [r3, #20]
 8001180:	6efb      	ldr	r3, [r7, #108]	@ 0x6c
 8001182:	8b1b      	ldrh	r3, [r3, #24]
 8001184:	429a      	cmp	r2, r3
 8001186:	d101      	bne.n	800118c <canardHandleRxFrame+0x710>
        {
            return CANARD_OK;
 8001188:	2300      	movs	r3, #0
 800118a:	e00f      	b.n	80011ac <canardHandleRxFrame+0x730>
        }
        else
        {
            return -CANARD_ERROR_RX_BAD_CRC;
 800118c:	f06f 0310 	mvn.w	r3, #16
 8001190:	e00c      	b.n	80011ac <canardHandleRxFrame+0x730>
        }
    }

    rx_state->next_toggle = rx_state->next_toggle ? 0 : 1;
 8001192:	6efb      	ldr	r3, [r7, #108]	@ 0x6c
 8001194:	7ddb      	ldrb	r3, [r3, #23]
 8001196:	b25b      	sxtb	r3, r3
 8001198:	43db      	mvns	r3, r3
 800119a:	b2db      	uxtb	r3, r3
 800119c:	09db      	lsrs	r3, r3, #7
 800119e:	b2d9      	uxtb	r1, r3
 80011a0:	6efa      	ldr	r2, [r7, #108]	@ 0x6c
 80011a2:	7dd3      	ldrb	r3, [r2, #23]
 80011a4:	f361 13c7 	bfi	r3, r1, #7, #1
 80011a8:	75d3      	strb	r3, [r2, #23]
    return CANARD_OK;
 80011aa:	2300      	movs	r3, #0
}
 80011ac:	4618      	mov	r0, r3
 80011ae:	3774      	adds	r7, #116	@ 0x74
 80011b0:	46bd      	mov	sp, r7
 80011b2:	e8bd 83f0 	ldmia.w	sp!, {r4, r5, r6, r7, r8, r9, pc}
 80011b6:	bf00      	nop

080011b8 <canardCleanupStaleTransfers>:

void canardCleanupStaleTransfers(CanardInstance* ins, uint64_t current_time_usec)
{
 80011b8:	b5b0      	push	{r4, r5, r7, lr}
 80011ba:	b086      	sub	sp, #24
 80011bc:	af00      	add	r7, sp, #0
 80011be:	60f8      	str	r0, [r7, #12]
 80011c0:	e9c7 2300 	strd	r2, r3, [r7]
    CanardRxState* prev = ins->rx_states, * state = ins->rx_states;
 80011c4:	68fb      	ldr	r3, [r7, #12]
 80011c6:	6a1b      	ldr	r3, [r3, #32]
 80011c8:	617b      	str	r3, [r7, #20]
 80011ca:	68fb      	ldr	r3, [r7, #12]
 80011cc:	6a1b      	ldr	r3, [r3, #32]
 80011ce:	613b      	str	r3, [r7, #16]

    while (state != NULL)
 80011d0:	e053      	b.n	800127a <canardCleanupStaleTransfers+0xc2>
    {
        if ((current_time_usec - state->timestamp_usec) > TRANSFER_TIMEOUT_USEC)
 80011d2:	693b      	ldr	r3, [r7, #16]
 80011d4:	e9d3 2302 	ldrd	r2, r3, [r3, #8]
 80011d8:	e9d7 0100 	ldrd	r0, r1, [r7]
 80011dc:	1a84      	subs	r4, r0, r2
 80011de:	eb61 0503 	sbc.w	r5, r1, r3
 80011e2:	4b2a      	ldr	r3, [pc, #168]	@ (800128c <canardCleanupStaleTransfers+0xd4>)
 80011e4:	429c      	cmp	r4, r3
 80011e6:	f175 0300 	sbcs.w	r3, r5, #0
 80011ea:	d33a      	bcc.n	8001262 <canardCleanupStaleTransfers+0xaa>
        {
            if (state == ins->rx_states)
 80011ec:	68fb      	ldr	r3, [r7, #12]
 80011ee:	6a1b      	ldr	r3, [r3, #32]
 80011f0:	693a      	ldr	r2, [r7, #16]
 80011f2:	429a      	cmp	r2, r3
 80011f4:	d11c      	bne.n	8001230 <canardCleanupStaleTransfers+0x78>
            {
                releaseStatePayload(ins, state);
 80011f6:	6939      	ldr	r1, [r7, #16]
 80011f8:	68f8      	ldr	r0, [r7, #12]
 80011fa:	f000 fdd1 	bl	8001da0 <releaseStatePayload>
                ins->rx_states = canardRxFromIdx(&ins->allocator, ins->rx_states->next);
 80011fe:	68fb      	ldr	r3, [r7, #12]
 8001200:	f103 020c 	add.w	r2, r3, #12
 8001204:	68fb      	ldr	r3, [r7, #12]
 8001206:	6a1b      	ldr	r3, [r3, #32]
 8001208:	681b      	ldr	r3, [r3, #0]
 800120a:	4619      	mov	r1, r3
 800120c:	4610      	mov	r0, r2
 800120e:	f7ff fb49 	bl	80008a4 <canardRxFromIdx>
 8001212:	4602      	mov	r2, r0
 8001214:	68fb      	ldr	r3, [r7, #12]
 8001216:	621a      	str	r2, [r3, #32]
                freeBlock(&ins->allocator, state);
 8001218:	68fb      	ldr	r3, [r7, #12]
 800121a:	330c      	adds	r3, #12
 800121c:	6939      	ldr	r1, [r7, #16]
 800121e:	4618      	mov	r0, r3
 8001220:	f001 f98b 	bl	800253a <freeBlock>
                state = ins->rx_states;
 8001224:	68fb      	ldr	r3, [r7, #12]
 8001226:	6a1b      	ldr	r3, [r3, #32]
 8001228:	613b      	str	r3, [r7, #16]
                prev = state;
 800122a:	693b      	ldr	r3, [r7, #16]
 800122c:	617b      	str	r3, [r7, #20]
 800122e:	e024      	b.n	800127a <canardCleanupStaleTransfers+0xc2>
            }
            else
            {
                releaseStatePayload(ins, state);
 8001230:	6939      	ldr	r1, [r7, #16]
 8001232:	68f8      	ldr	r0, [r7, #12]
 8001234:	f000 fdb4 	bl	8001da0 <releaseStatePayload>
                prev->next = state->next;
 8001238:	693b      	ldr	r3, [r7, #16]
 800123a:	681a      	ldr	r2, [r3, #0]
 800123c:	697b      	ldr	r3, [r7, #20]
 800123e:	601a      	str	r2, [r3, #0]
                freeBlock(&ins->allocator, state);
 8001240:	68fb      	ldr	r3, [r7, #12]
 8001242:	330c      	adds	r3, #12
 8001244:	6939      	ldr	r1, [r7, #16]
 8001246:	4618      	mov	r0, r3
 8001248:	f001 f977 	bl	800253a <freeBlock>
                state = canardRxFromIdx(&ins->allocator, prev->next);
 800124c:	68fb      	ldr	r3, [r7, #12]
 800124e:	f103 020c 	add.w	r2, r3, #12
 8001252:	697b      	ldr	r3, [r7, #20]
 8001254:	681b      	ldr	r3, [r3, #0]
 8001256:	4619      	mov	r1, r3
 8001258:	4610      	mov	r0, r2
 800125a:	f7ff fb23 	bl	80008a4 <canardRxFromIdx>
 800125e:	6138      	str	r0, [r7, #16]
 8001260:	e00b      	b.n	800127a <canardCleanupStaleTransfers+0xc2>
            }
        }
        else
        {
            prev = state;
 8001262:	693b      	ldr	r3, [r7, #16]
 8001264:	617b      	str	r3, [r7, #20]
            state = canardRxFromIdx(&ins->allocator, state->next);
 8001266:	68fb      	ldr	r3, [r7, #12]
 8001268:	f103 020c 	add.w	r2, r3, #12
 800126c:	693b      	ldr	r3, [r7, #16]
 800126e:	681b      	ldr	r3, [r3, #0]
 8001270:	4619      	mov	r1, r3
 8001272:	4610      	mov	r0, r2
 8001274:	f7ff fb16 	bl	80008a4 <canardRxFromIdx>
 8001278:	6138      	str	r0, [r7, #16]
    while (state != NULL)
 800127a:	693b      	ldr	r3, [r7, #16]
 800127c:	2b00      	cmp	r3, #0
 800127e:	d1a8      	bne.n	80011d2 <canardCleanupStaleTransfers+0x1a>
            prev_item = item;
            item = item->next;
        }
    }
#endif
}
 8001280:	bf00      	nop
 8001282:	bf00      	nop
 8001284:	3718      	adds	r7, #24
 8001286:	46bd      	mov	sp, r7
 8001288:	bdb0      	pop	{r4, r5, r7, pc}
 800128a:	bf00      	nop
 800128c:	001e8481 	.word	0x001e8481

08001290 <canardDecodeScalar>:
int16_t canardDecodeScalar(const CanardRxTransfer* transfer,
                           uint32_t bit_offset,
                           uint8_t bit_length,
                           bool value_is_signed,
                           void* out_value)
{
 8001290:	e92d 4ff0 	stmdb	sp!, {r4, r5, r6, r7, r8, r9, sl, fp, lr}
 8001294:	b08d      	sub	sp, #52	@ 0x34
 8001296:	af00      	add	r7, sp, #0
 8001298:	61f8      	str	r0, [r7, #28]
 800129a:	61b9      	str	r1, [r7, #24]
 800129c:	4611      	mov	r1, r2
 800129e:	461a      	mov	r2, r3
 80012a0:	460b      	mov	r3, r1
 80012a2:	75fb      	strb	r3, [r7, #23]
 80012a4:	4613      	mov	r3, r2
 80012a6:	75bb      	strb	r3, [r7, #22]
    if (transfer == NULL || out_value == NULL)
 80012a8:	69fb      	ldr	r3, [r7, #28]
 80012aa:	2b00      	cmp	r3, #0
 80012ac:	d002      	beq.n	80012b4 <canardDecodeScalar+0x24>
 80012ae:	6dbb      	ldr	r3, [r7, #88]	@ 0x58
 80012b0:	2b00      	cmp	r3, #0
 80012b2:	d102      	bne.n	80012ba <canardDecodeScalar+0x2a>
    {
        return -CANARD_ERROR_INVALID_ARGUMENT;
 80012b4:	f06f 0301 	mvn.w	r3, #1
 80012b8:	e16e      	b.n	8001598 <canardDecodeScalar+0x308>
    }

    if (bit_length < 1 || bit_length > 64)
 80012ba:	7dfb      	ldrb	r3, [r7, #23]
 80012bc:	2b00      	cmp	r3, #0
 80012be:	d002      	beq.n	80012c6 <canardDecodeScalar+0x36>
 80012c0:	7dfb      	ldrb	r3, [r7, #23]
 80012c2:	2b40      	cmp	r3, #64	@ 0x40
 80012c4:	d902      	bls.n	80012cc <canardDecodeScalar+0x3c>
    {
        return -CANARD_ERROR_INVALID_ARGUMENT;
 80012c6:	f06f 0301 	mvn.w	r3, #1
 80012ca:	e165      	b.n	8001598 <canardDecodeScalar+0x308>
    }

    if (bit_length == 1 && value_is_signed)
 80012cc:	7dfb      	ldrb	r3, [r7, #23]
 80012ce:	2b01      	cmp	r3, #1
 80012d0:	d105      	bne.n	80012de <canardDecodeScalar+0x4e>
 80012d2:	7dbb      	ldrb	r3, [r7, #22]
 80012d4:	2b00      	cmp	r3, #0
 80012d6:	d002      	beq.n	80012de <canardDecodeScalar+0x4e>
    {
        return -CANARD_ERROR_INVALID_ARGUMENT;
 80012d8:	f06f 0301 	mvn.w	r3, #1
 80012dc:	e15c      	b.n	8001598 <canardDecodeScalar+0x308>
        uint64_t u64;
        int64_t  s64;           ///< Also double, possibly float, possibly long double (depends on implementation)
        uint8_t bytes[8];
    } storage;

    memset(&storage, 0, sizeof(storage));   // This is important
 80012de:	f107 0320 	add.w	r3, r7, #32
 80012e2:	2208      	movs	r2, #8
 80012e4:	2100      	movs	r1, #0
 80012e6:	4618      	mov	r0, r3
 80012e8:	f006 fb39 	bl	800795e <memset>

    const int16_t result = descatterTransferPayload(transfer, bit_offset, bit_length, &storage.bytes[0]);
 80012ec:	f107 0320 	add.w	r3, r7, #32
 80012f0:	7dfa      	ldrb	r2, [r7, #23]
 80012f2:	69b9      	ldr	r1, [r7, #24]
 80012f4:	69f8      	ldr	r0, [r7, #28]
 80012f6:	f000 ff0f 	bl	8002118 <descatterTransferPayload>
 80012fa:	4603      	mov	r3, r0
 80012fc:	85bb      	strh	r3, [r7, #44]	@ 0x2c
    if (result <= 0)
 80012fe:	f9b7 302c 	ldrsh.w	r3, [r7, #44]	@ 0x2c
 8001302:	2b00      	cmp	r3, #0
 8001304:	dc02      	bgt.n	800130c <canardDecodeScalar+0x7c>
    {
        return result;
 8001306:	f9b7 302c 	ldrsh.w	r3, [r7, #44]	@ 0x2c
 800130a:	e145      	b.n	8001598 <canardDecodeScalar+0x308>
     * The bit copy algorithm assumes that more significant bits have lower index, so we need to shift some.
     * Extra most significant bits will be filled with zeroes, which is fine.
     * Coverity Scan mistakenly believes that the array may be overrun if bit_length == 64; however, this branch will
     * not be taken if bit_length == 64, because 64 % 8 == 0.
     */
    if ((bit_length % 8) != 0)
 800130c:	7dfb      	ldrb	r3, [r7, #23]
 800130e:	f003 0307 	and.w	r3, r3, #7
 8001312:	b2db      	uxtb	r3, r3
 8001314:	2b00      	cmp	r3, #0
 8001316:	d018      	beq.n	800134a <canardDecodeScalar+0xba>
    {
        // coverity[overrun-local]
        storage.bytes[bit_length / 8U] = (uint8_t)(storage.bytes[bit_length / 8U] >> ((8U - (bit_length % 8U)) & 7U));
 8001318:	7dfb      	ldrb	r3, [r7, #23]
 800131a:	08db      	lsrs	r3, r3, #3
 800131c:	b2db      	uxtb	r3, r3
 800131e:	3320      	adds	r3, #32
 8001320:	f107 0210 	add.w	r2, r7, #16
 8001324:	4413      	add	r3, r2
 8001326:	f813 3c10 	ldrb.w	r3, [r3, #-16]
 800132a:	461a      	mov	r2, r3
 800132c:	7dfb      	ldrb	r3, [r7, #23]
 800132e:	425b      	negs	r3, r3
 8001330:	f003 0307 	and.w	r3, r3, #7
 8001334:	411a      	asrs	r2, r3
 8001336:	7dfb      	ldrb	r3, [r7, #23]
 8001338:	08db      	lsrs	r3, r3, #3
 800133a:	b2db      	uxtb	r3, r3
 800133c:	b2d2      	uxtb	r2, r2
 800133e:	3320      	adds	r3, #32
 8001340:	f107 0110 	add.w	r1, r7, #16
 8001344:	440b      	add	r3, r1
 8001346:	f803 2c10 	strb.w	r2, [r3, #-16]
    }

    /*
     * Determining the closest standard byte length - this will be needed for byte reordering and sign bit extension.
     */
    uint8_t std_byte_length = 0;
 800134a:	2300      	movs	r3, #0
 800134c:	f887 302f 	strb.w	r3, [r7, #47]	@ 0x2f
    if      (bit_length == 1)   { std_byte_length = sizeof(bool); }
 8001350:	7dfb      	ldrb	r3, [r7, #23]
 8001352:	2b01      	cmp	r3, #1
 8001354:	d103      	bne.n	800135e <canardDecodeScalar+0xce>
 8001356:	2301      	movs	r3, #1
 8001358:	f887 302f 	strb.w	r3, [r7, #47]	@ 0x2f
 800135c:	e01e      	b.n	800139c <canardDecodeScalar+0x10c>
    else if (bit_length <= 8)   { std_byte_length = 1; }
 800135e:	7dfb      	ldrb	r3, [r7, #23]
 8001360:	2b08      	cmp	r3, #8
 8001362:	d803      	bhi.n	800136c <canardDecodeScalar+0xdc>
 8001364:	2301      	movs	r3, #1
 8001366:	f887 302f 	strb.w	r3, [r7, #47]	@ 0x2f
 800136a:	e017      	b.n	800139c <canardDecodeScalar+0x10c>
    else if (bit_length <= 16)  { std_byte_length = 2; }
 800136c:	7dfb      	ldrb	r3, [r7, #23]
 800136e:	2b10      	cmp	r3, #16
 8001370:	d803      	bhi.n	800137a <canardDecodeScalar+0xea>
 8001372:	2302      	movs	r3, #2
 8001374:	f887 302f 	strb.w	r3, [r7, #47]	@ 0x2f
 8001378:	e010      	b.n	800139c <canardDecodeScalar+0x10c>
    else if (bit_length <= 32)  { std_byte_length = 4; }
 800137a:	7dfb      	ldrb	r3, [r7, #23]
 800137c:	2b20      	cmp	r3, #32
 800137e:	d803      	bhi.n	8001388 <canardDecodeScalar+0xf8>
 8001380:	2304      	movs	r3, #4
 8001382:	f887 302f 	strb.w	r3, [r7, #47]	@ 0x2f
 8001386:	e009      	b.n	800139c <canardDecodeScalar+0x10c>
    else if (bit_length <= 64)  { std_byte_length = 8; }
 8001388:	7dfb      	ldrb	r3, [r7, #23]
 800138a:	2b40      	cmp	r3, #64	@ 0x40
 800138c:	d803      	bhi.n	8001396 <canardDecodeScalar+0x106>
 800138e:	2308      	movs	r3, #8
 8001390:	f887 302f 	strb.w	r3, [r7, #47]	@ 0x2f
 8001394:	e002      	b.n	800139c <canardDecodeScalar+0x10c>
    else
    {
        CANARD_ASSERT(false);
        return -CANARD_ERROR_INTERNAL;
 8001396:	f06f 0308 	mvn.w	r3, #8
 800139a:	e0fd      	b.n	8001598 <canardDecodeScalar+0x308>
    CANARD_ASSERT((std_byte_length > 0) && (std_byte_length <= 8));

    /*
     * Flipping the byte order if needed.
     */
    if (isBigEndian())
 800139c:	f000 ffb1 	bl	8002302 <isBigEndian>
 80013a0:	4603      	mov	r3, r0
 80013a2:	2b00      	cmp	r3, #0
 80013a4:	d007      	beq.n	80013b6 <canardDecodeScalar+0x126>
    {
        swapByteOrder(&storage.bytes[0], std_byte_length);
 80013a6:	f897 202f 	ldrb.w	r2, [r7, #47]	@ 0x2f
 80013aa:	f107 0320 	add.w	r3, r7, #32
 80013ae:	4611      	mov	r1, r2
 80013b0:	4618      	mov	r0, r3
 80013b2:	f000 ffb7 	bl	8002324 <swapByteOrder>

    /*
     * Extending the sign bit if needed. I miss templates.
     * Note that we operate on unsigned values in order to avoid undefined behaviors.
     */
    if (value_is_signed && (std_byte_length * 8 != bit_length))
 80013b6:	7dbb      	ldrb	r3, [r7, #22]
 80013b8:	2b00      	cmp	r3, #0
 80013ba:	f000 809b 	beq.w	80014f4 <canardDecodeScalar+0x264>
 80013be:	f897 302f 	ldrb.w	r3, [r7, #47]	@ 0x2f
 80013c2:	00da      	lsls	r2, r3, #3
 80013c4:	7dfb      	ldrb	r3, [r7, #23]
 80013c6:	429a      	cmp	r2, r3
 80013c8:	f000 8094 	beq.w	80014f4 <canardDecodeScalar+0x264>
    {
        if (bit_length <= 8)
 80013cc:	7dfb      	ldrb	r3, [r7, #23]
 80013ce:	2b08      	cmp	r3, #8
 80013d0:	d819      	bhi.n	8001406 <canardDecodeScalar+0x176>
        {
            if ((storage.u8 & (1U << (bit_length - 1U))) != 0)                           // If the sign bit is set...
 80013d2:	f897 3020 	ldrb.w	r3, [r7, #32]
 80013d6:	461a      	mov	r2, r3
 80013d8:	7dfb      	ldrb	r3, [r7, #23]
 80013da:	3b01      	subs	r3, #1
 80013dc:	fa22 f303 	lsr.w	r3, r2, r3
 80013e0:	f003 0301 	and.w	r3, r3, #1
 80013e4:	2b00      	cmp	r3, #0
 80013e6:	f000 8085 	beq.w	80014f4 <canardDecodeScalar+0x264>
            {
                storage.u8 |= (uint8_t) 0xFFU & (uint8_t) ~((1U << bit_length) - 1U);   // ...set all bits above it.
 80013ea:	f897 2020 	ldrb.w	r2, [r7, #32]
 80013ee:	7dfb      	ldrb	r3, [r7, #23]
 80013f0:	2101      	movs	r1, #1
 80013f2:	fa01 f303 	lsl.w	r3, r1, r3
 80013f6:	b2db      	uxtb	r3, r3
 80013f8:	425b      	negs	r3, r3
 80013fa:	b2db      	uxtb	r3, r3
 80013fc:	4313      	orrs	r3, r2
 80013fe:	b2db      	uxtb	r3, r3
 8001400:	f887 3020 	strb.w	r3, [r7, #32]
 8001404:	e076      	b.n	80014f4 <canardDecodeScalar+0x264>
            }
        }
        else if (bit_length <= 16)
 8001406:	7dfb      	ldrb	r3, [r7, #23]
 8001408:	2b10      	cmp	r3, #16
 800140a:	d815      	bhi.n	8001438 <canardDecodeScalar+0x1a8>
        {
            if ((storage.u16 & (1U << (bit_length - 1U))) != 0)
 800140c:	8c3b      	ldrh	r3, [r7, #32]
 800140e:	461a      	mov	r2, r3
 8001410:	7dfb      	ldrb	r3, [r7, #23]
 8001412:	3b01      	subs	r3, #1
 8001414:	fa22 f303 	lsr.w	r3, r2, r3
 8001418:	f003 0301 	and.w	r3, r3, #1
 800141c:	2b00      	cmp	r3, #0
 800141e:	d069      	beq.n	80014f4 <canardDecodeScalar+0x264>
            {
                storage.u16 |= (uint16_t) 0xFFFFU & (uint16_t) ~((1U << bit_length) - 1U);
 8001420:	8c3a      	ldrh	r2, [r7, #32]
 8001422:	7dfb      	ldrb	r3, [r7, #23]
 8001424:	2101      	movs	r1, #1
 8001426:	fa01 f303 	lsl.w	r3, r1, r3
 800142a:	b29b      	uxth	r3, r3
 800142c:	425b      	negs	r3, r3
 800142e:	b29b      	uxth	r3, r3
 8001430:	4313      	orrs	r3, r2
 8001432:	b29b      	uxth	r3, r3
 8001434:	843b      	strh	r3, [r7, #32]
 8001436:	e05d      	b.n	80014f4 <canardDecodeScalar+0x264>
            }
        }
        else if (bit_length <= 32)
 8001438:	7dfb      	ldrb	r3, [r7, #23]
 800143a:	2b20      	cmp	r3, #32
 800143c:	d811      	bhi.n	8001462 <canardDecodeScalar+0x1d2>
        {
            if ((storage.u32 & (((uint32_t) 1) << (bit_length - 1U))) != 0)
 800143e:	6a3a      	ldr	r2, [r7, #32]
 8001440:	7dfb      	ldrb	r3, [r7, #23]
 8001442:	3b01      	subs	r3, #1
 8001444:	fa22 f303 	lsr.w	r3, r2, r3
 8001448:	f003 0301 	and.w	r3, r3, #1
 800144c:	2b00      	cmp	r3, #0
 800144e:	d051      	beq.n	80014f4 <canardDecodeScalar+0x264>
            {
                storage.u32 |= (uint32_t) 0xFFFFFFFFUL & (uint32_t) ~((((uint32_t) 1) << bit_length) - 1U);
 8001450:	6a3a      	ldr	r2, [r7, #32]
 8001452:	7dfb      	ldrb	r3, [r7, #23]
 8001454:	2101      	movs	r1, #1
 8001456:	fa01 f303 	lsl.w	r3, r1, r3
 800145a:	425b      	negs	r3, r3
 800145c:	4313      	orrs	r3, r2
 800145e:	623b      	str	r3, [r7, #32]
 8001460:	e048      	b.n	80014f4 <canardDecodeScalar+0x264>
            }
        }
        else if (bit_length < 64)   // Strictly less, this is not a typo
 8001462:	7dfb      	ldrb	r3, [r7, #23]
 8001464:	2b3f      	cmp	r3, #63	@ 0x3f
 8001466:	d842      	bhi.n	80014ee <canardDecodeScalar+0x25e>
        {
            if ((storage.u64 & (((uint64_t) 1) << (bit_length - 1U))) != 0)
 8001468:	e9d7 2308 	ldrd	r2, r3, [r7, #32]
 800146c:	7df9      	ldrb	r1, [r7, #23]
 800146e:	1e48      	subs	r0, r1, #1
 8001470:	f1c0 0620 	rsb	r6, r0, #32
 8001474:	f1a0 0120 	sub.w	r1, r0, #32
 8001478:	fa22 f400 	lsr.w	r4, r2, r0
 800147c:	fa03 f606 	lsl.w	r6, r3, r6
 8001480:	4334      	orrs	r4, r6
 8001482:	fa23 f101 	lsr.w	r1, r3, r1
 8001486:	430c      	orrs	r4, r1
 8001488:	fa23 f500 	lsr.w	r5, r3, r0
 800148c:	f004 0301 	and.w	r3, r4, #1
 8001490:	60bb      	str	r3, [r7, #8]
 8001492:	2300      	movs	r3, #0
 8001494:	60fb      	str	r3, [r7, #12]
 8001496:	e9d7 1202 	ldrd	r1, r2, [r7, #8]
 800149a:	460b      	mov	r3, r1
 800149c:	4313      	orrs	r3, r2
 800149e:	d029      	beq.n	80014f4 <canardDecodeScalar+0x264>
            {
                storage.u64 |= (uint64_t) 0xFFFFFFFFFFFFFFFFULL & (uint64_t) ~((((uint64_t) 1) << bit_length) - 1U);
 80014a0:	e9d7 4508 	ldrd	r4, r5, [r7, #32]
 80014a4:	7df9      	ldrb	r1, [r7, #23]
 80014a6:	f04f 0201 	mov.w	r2, #1
 80014aa:	f04f 0300 	mov.w	r3, #0
 80014ae:	f1a1 0620 	sub.w	r6, r1, #32
 80014b2:	f1c1 0020 	rsb	r0, r1, #32
 80014b6:	fa03 f901 	lsl.w	r9, r3, r1
 80014ba:	fa02 f606 	lsl.w	r6, r2, r6
 80014be:	ea49 0906 	orr.w	r9, r9, r6
 80014c2:	fa22 f000 	lsr.w	r0, r2, r0
 80014c6:	ea49 0900 	orr.w	r9, r9, r0
 80014ca:	fa02 f801 	lsl.w	r8, r2, r1
 80014ce:	2300      	movs	r3, #0
 80014d0:	f1d8 0a00 	rsbs	sl, r8, #0
 80014d4:	eb63 0b09 	sbc.w	fp, r3, r9
 80014d8:	ea44 030a 	orr.w	r3, r4, sl
 80014dc:	603b      	str	r3, [r7, #0]
 80014de:	ea45 030b 	orr.w	r3, r5, fp
 80014e2:	607b      	str	r3, [r7, #4]
 80014e4:	e9d7 3400 	ldrd	r3, r4, [r7]
 80014e8:	e9c7 3408 	strd	r3, r4, [r7, #32]
 80014ec:	e002      	b.n	80014f4 <canardDecodeScalar+0x264>
            }
        }
        else
        {
            CANARD_ASSERT(false);
            return -CANARD_ERROR_INTERNAL;
 80014ee:	f06f 0308 	mvn.w	r3, #8
 80014f2:	e051      	b.n	8001598 <canardDecodeScalar+0x308>
    }

    /*
     * Copying the result out.
     */
    if (value_is_signed)
 80014f4:	7dbb      	ldrb	r3, [r7, #22]
 80014f6:	2b00      	cmp	r3, #0
 80014f8:	d022      	beq.n	8001540 <canardDecodeScalar+0x2b0>
    {
        if      (bit_length <= 8)   { *( (int8_t*) out_value) = storage.s8;  }
 80014fa:	7dfb      	ldrb	r3, [r7, #23]
 80014fc:	2b08      	cmp	r3, #8
 80014fe:	d804      	bhi.n	800150a <canardDecodeScalar+0x27a>
 8001500:	f997 2020 	ldrsb.w	r2, [r7, #32]
 8001504:	6dbb      	ldr	r3, [r7, #88]	@ 0x58
 8001506:	701a      	strb	r2, [r3, #0]
 8001508:	e044      	b.n	8001594 <canardDecodeScalar+0x304>
        else if (bit_length <= 16)  { *((int16_t*) out_value) = storage.s16; }
 800150a:	7dfb      	ldrb	r3, [r7, #23]
 800150c:	2b10      	cmp	r3, #16
 800150e:	d804      	bhi.n	800151a <canardDecodeScalar+0x28a>
 8001510:	f9b7 2020 	ldrsh.w	r2, [r7, #32]
 8001514:	6dbb      	ldr	r3, [r7, #88]	@ 0x58
 8001516:	801a      	strh	r2, [r3, #0]
 8001518:	e03c      	b.n	8001594 <canardDecodeScalar+0x304>
        else if (bit_length <= 32)  { *((int32_t*) out_value) = storage.s32; }
 800151a:	7dfb      	ldrb	r3, [r7, #23]
 800151c:	2b20      	cmp	r3, #32
 800151e:	d803      	bhi.n	8001528 <canardDecodeScalar+0x298>
 8001520:	6a3a      	ldr	r2, [r7, #32]
 8001522:	6dbb      	ldr	r3, [r7, #88]	@ 0x58
 8001524:	601a      	str	r2, [r3, #0]
 8001526:	e035      	b.n	8001594 <canardDecodeScalar+0x304>
        else if (bit_length <= 64)  { *((int64_t*) out_value) = storage.s64; }
 8001528:	7dfb      	ldrb	r3, [r7, #23]
 800152a:	2b40      	cmp	r3, #64	@ 0x40
 800152c:	d805      	bhi.n	800153a <canardDecodeScalar+0x2aa>
 800152e:	e9d7 2308 	ldrd	r2, r3, [r7, #32]
 8001532:	6db9      	ldr	r1, [r7, #88]	@ 0x58
 8001534:	e9c1 2300 	strd	r2, r3, [r1]
 8001538:	e02c      	b.n	8001594 <canardDecodeScalar+0x304>
        else
        {
            CANARD_ASSERT(false);
            return -CANARD_ERROR_INTERNAL;
 800153a:	f06f 0308 	mvn.w	r3, #8
 800153e:	e02b      	b.n	8001598 <canardDecodeScalar+0x308>
        }
    }
    else
    {
        if      (bit_length == 1)   { *(    (bool*) out_value) = storage.boolean; }
 8001540:	7dfb      	ldrb	r3, [r7, #23]
 8001542:	2b01      	cmp	r3, #1
 8001544:	d104      	bne.n	8001550 <canardDecodeScalar+0x2c0>
 8001546:	f897 2020 	ldrb.w	r2, [r7, #32]
 800154a:	6dbb      	ldr	r3, [r7, #88]	@ 0x58
 800154c:	701a      	strb	r2, [r3, #0]
 800154e:	e021      	b.n	8001594 <canardDecodeScalar+0x304>
        else if (bit_length <= 8)   { *( (uint8_t*) out_value) = storage.u8;  }
 8001550:	7dfb      	ldrb	r3, [r7, #23]
 8001552:	2b08      	cmp	r3, #8
 8001554:	d804      	bhi.n	8001560 <canardDecodeScalar+0x2d0>
 8001556:	f897 2020 	ldrb.w	r2, [r7, #32]
 800155a:	6dbb      	ldr	r3, [r7, #88]	@ 0x58
 800155c:	701a      	strb	r2, [r3, #0]
 800155e:	e019      	b.n	8001594 <canardDecodeScalar+0x304>
        else if (bit_length <= 16)  { *((uint16_t*) out_value) = storage.u16; }
 8001560:	7dfb      	ldrb	r3, [r7, #23]
 8001562:	2b10      	cmp	r3, #16
 8001564:	d803      	bhi.n	800156e <canardDecodeScalar+0x2de>
 8001566:	8c3a      	ldrh	r2, [r7, #32]
 8001568:	6dbb      	ldr	r3, [r7, #88]	@ 0x58
 800156a:	801a      	strh	r2, [r3, #0]
 800156c:	e012      	b.n	8001594 <canardDecodeScalar+0x304>
        else if (bit_length <= 32)  { *((uint32_t*) out_value) = storage.u32; }
 800156e:	7dfb      	ldrb	r3, [r7, #23]
 8001570:	2b20      	cmp	r3, #32
 8001572:	d803      	bhi.n	800157c <canardDecodeScalar+0x2ec>
 8001574:	6a3a      	ldr	r2, [r7, #32]
 8001576:	6dbb      	ldr	r3, [r7, #88]	@ 0x58
 8001578:	601a      	str	r2, [r3, #0]
 800157a:	e00b      	b.n	8001594 <canardDecodeScalar+0x304>
        else if (bit_length <= 64)  { *((uint64_t*) out_value) = storage.u64; }
 800157c:	7dfb      	ldrb	r3, [r7, #23]
 800157e:	2b40      	cmp	r3, #64	@ 0x40
 8001580:	d805      	bhi.n	800158e <canardDecodeScalar+0x2fe>
 8001582:	e9d7 2308 	ldrd	r2, r3, [r7, #32]
 8001586:	6db9      	ldr	r1, [r7, #88]	@ 0x58
 8001588:	e9c1 2300 	strd	r2, r3, [r1]
 800158c:	e002      	b.n	8001594 <canardDecodeScalar+0x304>
        else
        {
            CANARD_ASSERT(false);
            return -CANARD_ERROR_INTERNAL;
 800158e:	f06f 0308 	mvn.w	r3, #8
 8001592:	e001      	b.n	8001598 <canardDecodeScalar+0x308>
        }
    }

    CANARD_ASSERT(result <= bit_length);
    CANARD_ASSERT(result > 0);
    return result;
 8001594:	f9b7 302c 	ldrsh.w	r3, [r7, #44]	@ 0x2c
}
 8001598:	4618      	mov	r0, r3
 800159a:	3734      	adds	r7, #52	@ 0x34
 800159c:	46bd      	mov	sp, r7
 800159e:	e8bd 8ff0 	ldmia.w	sp!, {r4, r5, r6, r7, r8, r9, sl, fp, pc}

080015a2 <canardEncodeScalar>:

void canardEncodeScalar(void* destination,
                        uint32_t bit_offset,
                        uint8_t bit_length,
                        const void* value)
{
 80015a2:	b580      	push	{r7, lr}
 80015a4:	b08a      	sub	sp, #40	@ 0x28
 80015a6:	af02      	add	r7, sp, #8
 80015a8:	60f8      	str	r0, [r7, #12]
 80015aa:	60b9      	str	r1, [r7, #8]
 80015ac:	603b      	str	r3, [r7, #0]
 80015ae:	4613      	mov	r3, r2
 80015b0:	71fb      	strb	r3, [r7, #7]
     * Maybe not the best solution, but it simplifies the API.
     */
    CANARD_ASSERT(destination != NULL);
    CANARD_ASSERT(value != NULL);

    if (bit_length > 64)
 80015b2:	79fb      	ldrb	r3, [r7, #7]
 80015b4:	2b40      	cmp	r3, #64	@ 0x40
 80015b6:	d901      	bls.n	80015bc <canardEncodeScalar+0x1a>
    {
        CANARD_ASSERT(false);
        bit_length = 64;
 80015b8:	2340      	movs	r3, #64	@ 0x40
 80015ba:	71fb      	strb	r3, [r7, #7]
    }

    if (bit_length < 1)
 80015bc:	79fb      	ldrb	r3, [r7, #7]
 80015be:	2b00      	cmp	r3, #0
 80015c0:	d101      	bne.n	80015c6 <canardEncodeScalar+0x24>
    {
        CANARD_ASSERT(false);
        bit_length = 1;
 80015c2:	2301      	movs	r3, #1
 80015c4:	71fb      	strb	r3, [r7, #7]
        uint32_t u32;
        uint64_t u64;
        uint8_t bytes[8];
    } storage;

    memset(&storage, 0, sizeof(storage));
 80015c6:	f107 0310 	add.w	r3, r7, #16
 80015ca:	2208      	movs	r2, #8
 80015cc:	2100      	movs	r1, #0
 80015ce:	4618      	mov	r0, r3
 80015d0:	f006 f9c5 	bl	800795e <memset>

    uint8_t std_byte_length = 0;
 80015d4:	2300      	movs	r3, #0
 80015d6:	77fb      	strb	r3, [r7, #31]

    // Extra most significant bits can be safely ignored here.
    if      (bit_length == 1)   { std_byte_length = sizeof(bool);   storage.boolean = (*((bool*) value) != 0); }
 80015d8:	79fb      	ldrb	r3, [r7, #7]
 80015da:	2b01      	cmp	r3, #1
 80015dc:	d105      	bne.n	80015ea <canardEncodeScalar+0x48>
 80015de:	2301      	movs	r3, #1
 80015e0:	77fb      	strb	r3, [r7, #31]
 80015e2:	683b      	ldr	r3, [r7, #0]
 80015e4:	781b      	ldrb	r3, [r3, #0]
 80015e6:	743b      	strb	r3, [r7, #16]
 80015e8:	e024      	b.n	8001634 <canardEncodeScalar+0x92>
    else if (bit_length <= 8)   { std_byte_length = 1;              storage.u8  = *((uint8_t*) value);  }
 80015ea:	79fb      	ldrb	r3, [r7, #7]
 80015ec:	2b08      	cmp	r3, #8
 80015ee:	d805      	bhi.n	80015fc <canardEncodeScalar+0x5a>
 80015f0:	2301      	movs	r3, #1
 80015f2:	77fb      	strb	r3, [r7, #31]
 80015f4:	683b      	ldr	r3, [r7, #0]
 80015f6:	781b      	ldrb	r3, [r3, #0]
 80015f8:	743b      	strb	r3, [r7, #16]
 80015fa:	e01b      	b.n	8001634 <canardEncodeScalar+0x92>
    else if (bit_length <= 16)  { std_byte_length = 2;              storage.u16 = *((uint16_t*) value); }
 80015fc:	79fb      	ldrb	r3, [r7, #7]
 80015fe:	2b10      	cmp	r3, #16
 8001600:	d805      	bhi.n	800160e <canardEncodeScalar+0x6c>
 8001602:	2302      	movs	r3, #2
 8001604:	77fb      	strb	r3, [r7, #31]
 8001606:	683b      	ldr	r3, [r7, #0]
 8001608:	881b      	ldrh	r3, [r3, #0]
 800160a:	823b      	strh	r3, [r7, #16]
 800160c:	e012      	b.n	8001634 <canardEncodeScalar+0x92>
    else if (bit_length <= 32)  { std_byte_length = 4;              storage.u32 = *((uint32_t*) value); }
 800160e:	79fb      	ldrb	r3, [r7, #7]
 8001610:	2b20      	cmp	r3, #32
 8001612:	d805      	bhi.n	8001620 <canardEncodeScalar+0x7e>
 8001614:	2304      	movs	r3, #4
 8001616:	77fb      	strb	r3, [r7, #31]
 8001618:	683b      	ldr	r3, [r7, #0]
 800161a:	681b      	ldr	r3, [r3, #0]
 800161c:	613b      	str	r3, [r7, #16]
 800161e:	e009      	b.n	8001634 <canardEncodeScalar+0x92>
    else if (bit_length <= 64)  { std_byte_length = 8;              storage.u64 = *((uint64_t*) value); }
 8001620:	79fb      	ldrb	r3, [r7, #7]
 8001622:	2b40      	cmp	r3, #64	@ 0x40
 8001624:	d806      	bhi.n	8001634 <canardEncodeScalar+0x92>
 8001626:	2308      	movs	r3, #8
 8001628:	77fb      	strb	r3, [r7, #31]
 800162a:	683b      	ldr	r3, [r7, #0]
 800162c:	e9d3 2300 	ldrd	r2, r3, [r3]
 8001630:	e9c7 2304 	strd	r2, r3, [r7, #16]
            storage.bytes[i] = (temp >> (8*i)) & 0xFFU;
        }
    }
#endif

    if (isBigEndian())
 8001634:	f000 fe65 	bl	8002302 <isBigEndian>
 8001638:	4603      	mov	r3, r0
 800163a:	2b00      	cmp	r3, #0
 800163c:	d006      	beq.n	800164c <canardEncodeScalar+0xaa>
    {
        swapByteOrder(&storage.bytes[0], std_byte_length);
 800163e:	7ffa      	ldrb	r2, [r7, #31]
 8001640:	f107 0310 	add.w	r3, r7, #16
 8001644:	4611      	mov	r1, r2
 8001646:	4618      	mov	r0, r3
 8001648:	f000 fe6c 	bl	8002324 <swapByteOrder>
     * Extra least significant bits will be filled with zeroes, which is fine.
     * Extra most significant bits will be discarded here.
     * Coverity Scan mistakenly believes that the array may be overrun if bit_length == 64; however, this branch will
     * not be taken if bit_length == 64, because 64 % 8 == 0.
     */
    if ((bit_length % 8) != 0)
 800164c:	79fb      	ldrb	r3, [r7, #7]
 800164e:	f003 0307 	and.w	r3, r3, #7
 8001652:	b2db      	uxtb	r3, r3
 8001654:	2b00      	cmp	r3, #0
 8001656:	d014      	beq.n	8001682 <canardEncodeScalar+0xe0>
    {
        // coverity[overrun-local]
        storage.bytes[bit_length / 8U] = (uint8_t)(storage.bytes[bit_length / 8U] << ((8U - (bit_length % 8U)) & 7U));
 8001658:	79fb      	ldrb	r3, [r7, #7]
 800165a:	08db      	lsrs	r3, r3, #3
 800165c:	b2db      	uxtb	r3, r3
 800165e:	3320      	adds	r3, #32
 8001660:	443b      	add	r3, r7
 8001662:	f813 3c10 	ldrb.w	r3, [r3, #-16]
 8001666:	461a      	mov	r2, r3
 8001668:	79fb      	ldrb	r3, [r7, #7]
 800166a:	425b      	negs	r3, r3
 800166c:	f003 0307 	and.w	r3, r3, #7
 8001670:	409a      	lsls	r2, r3
 8001672:	79fb      	ldrb	r3, [r7, #7]
 8001674:	08db      	lsrs	r3, r3, #3
 8001676:	b2db      	uxtb	r3, r3
 8001678:	b2d2      	uxtb	r2, r2
 800167a:	3320      	adds	r3, #32
 800167c:	443b      	add	r3, r7
 800167e:	f803 2c10 	strb.w	r2, [r3, #-16]
    }

    /*
     * Now, the storage contains properly serialized scalar. Copying it out.
     */
    copyBitArray(&storage.bytes[0], 0, bit_length, (uint8_t*) destination, bit_offset);
 8001682:	79fa      	ldrb	r2, [r7, #7]
 8001684:	f107 0010 	add.w	r0, r7, #16
 8001688:	68bb      	ldr	r3, [r7, #8]
 800168a:	9300      	str	r3, [sp, #0]
 800168c:	68fb      	ldr	r3, [r7, #12]
 800168e:	2100      	movs	r1, #0
 8001690:	f000 fccb 	bl	800202a <copyBitArray>
}
 8001694:	bf00      	nop
 8001696:	3720      	adds	r7, #32
 8001698:	46bd      	mov	sp, r7
 800169a:	bd80      	pop	{r7, pc}

0800169c <canardReleaseRxTransferPayload>:

void canardReleaseRxTransferPayload(CanardInstance* ins, CanardRxTransfer* transfer)
{
 800169c:	b580      	push	{r7, lr}
 800169e:	b084      	sub	sp, #16
 80016a0:	af00      	add	r7, sp, #0
 80016a2:	6078      	str	r0, [r7, #4]
 80016a4:	6039      	str	r1, [r7, #0]
    while (transfer->payload_middle != NULL)
 80016a6:	e00f      	b.n	80016c8 <canardReleaseRxTransferPayload+0x2c>
    {
        CanardBufferBlock* const temp = transfer->payload_middle->next;
 80016a8:	683b      	ldr	r3, [r7, #0]
 80016aa:	68db      	ldr	r3, [r3, #12]
 80016ac:	681b      	ldr	r3, [r3, #0]
 80016ae:	60fb      	str	r3, [r7, #12]
        freeBlock(&ins->allocator, transfer->payload_middle);
 80016b0:	687b      	ldr	r3, [r7, #4]
 80016b2:	f103 020c 	add.w	r2, r3, #12
 80016b6:	683b      	ldr	r3, [r7, #0]
 80016b8:	68db      	ldr	r3, [r3, #12]
 80016ba:	4619      	mov	r1, r3
 80016bc:	4610      	mov	r0, r2
 80016be:	f000 ff3c 	bl	800253a <freeBlock>
        transfer->payload_middle = temp;
 80016c2:	683b      	ldr	r3, [r7, #0]
 80016c4:	68fa      	ldr	r2, [r7, #12]
 80016c6:	60da      	str	r2, [r3, #12]
    while (transfer->payload_middle != NULL)
 80016c8:	683b      	ldr	r3, [r7, #0]
 80016ca:	68db      	ldr	r3, [r3, #12]
 80016cc:	2b00      	cmp	r3, #0
 80016ce:	d1eb      	bne.n	80016a8 <canardReleaseRxTransferPayload+0xc>
    }

    transfer->payload_middle = NULL;
 80016d0:	683b      	ldr	r3, [r7, #0]
 80016d2:	2200      	movs	r2, #0
 80016d4:	60da      	str	r2, [r3, #12]
    transfer->payload_head = NULL;
 80016d6:	683b      	ldr	r3, [r7, #0]
 80016d8:	2200      	movs	r2, #0
 80016da:	609a      	str	r2, [r3, #8]
    transfer->payload_tail = NULL;
 80016dc:	683b      	ldr	r3, [r7, #0]
 80016de:	2200      	movs	r2, #0
 80016e0:	611a      	str	r2, [r3, #16]
    transfer->payload_len = 0;
 80016e2:	683b      	ldr	r3, [r7, #0]
 80016e4:	2200      	movs	r2, #0
 80016e6:	829a      	strh	r2, [r3, #20]
}
 80016e8:	bf00      	nop
 80016ea:	3710      	adds	r7, #16
 80016ec:	46bd      	mov	sp, r7
 80016ee:	bd80      	pop	{r7, pc}

080016f0 <computeTransferIDForwardDistance>:

/*
 * Internal (static functions)
 */
CANARD_INTERNAL int16_t computeTransferIDForwardDistance(uint8_t a, uint8_t b)
{
 80016f0:	b480      	push	{r7}
 80016f2:	b085      	sub	sp, #20
 80016f4:	af00      	add	r7, sp, #0
 80016f6:	4603      	mov	r3, r0
 80016f8:	460a      	mov	r2, r1
 80016fa:	71fb      	strb	r3, [r7, #7]
 80016fc:	4613      	mov	r3, r2
 80016fe:	71bb      	strb	r3, [r7, #6]
    int16_t d = (int16_t)(a - b);
 8001700:	79fb      	ldrb	r3, [r7, #7]
 8001702:	b29a      	uxth	r2, r3
 8001704:	79bb      	ldrb	r3, [r7, #6]
 8001706:	b29b      	uxth	r3, r3
 8001708:	1ad3      	subs	r3, r2, r3
 800170a:	b29b      	uxth	r3, r3
 800170c:	81fb      	strh	r3, [r7, #14]
    if (d < 0)
 800170e:	f9b7 300e 	ldrsh.w	r3, [r7, #14]
 8001712:	2b00      	cmp	r3, #0
 8001714:	da03      	bge.n	800171e <computeTransferIDForwardDistance+0x2e>
    {
        d = (int16_t)(d + (int16_t)(1U << TRANSFER_ID_BIT_LEN));
 8001716:	89fb      	ldrh	r3, [r7, #14]
 8001718:	3320      	adds	r3, #32
 800171a:	b29b      	uxth	r3, r3
 800171c:	81fb      	strh	r3, [r7, #14]
    }
    return d;
 800171e:	f9b7 300e 	ldrsh.w	r3, [r7, #14]
}
 8001722:	4618      	mov	r0, r3
 8001724:	3714      	adds	r7, #20
 8001726:	46bd      	mov	sp, r7
 8001728:	f85d 7b04 	ldr.w	r7, [sp], #4
 800172c:	4770      	bx	lr

0800172e <incrementTransferID>:

CANARD_INTERNAL void incrementTransferID(uint8_t* transfer_id)
{
 800172e:	b480      	push	{r7}
 8001730:	b083      	sub	sp, #12
 8001732:	af00      	add	r7, sp, #0
 8001734:	6078      	str	r0, [r7, #4]
    CANARD_ASSERT(transfer_id != NULL);

    (*transfer_id)++;
 8001736:	687b      	ldr	r3, [r7, #4]
 8001738:	781b      	ldrb	r3, [r3, #0]
 800173a:	3301      	adds	r3, #1
 800173c:	b2da      	uxtb	r2, r3
 800173e:	687b      	ldr	r3, [r7, #4]
 8001740:	701a      	strb	r2, [r3, #0]
    if (*transfer_id >= 32)
 8001742:	687b      	ldr	r3, [r7, #4]
 8001744:	781b      	ldrb	r3, [r3, #0]
 8001746:	2b1f      	cmp	r3, #31
 8001748:	d902      	bls.n	8001750 <incrementTransferID+0x22>
    {
        *transfer_id = 0;
 800174a:	687b      	ldr	r3, [r7, #4]
 800174c:	2200      	movs	r2, #0
 800174e:	701a      	strb	r2, [r3, #0]
    }
}
 8001750:	bf00      	nop
 8001752:	370c      	adds	r7, #12
 8001754:	46bd      	mov	sp, r7
 8001756:	f85d 7b04 	ldr.w	r7, [sp], #4
 800175a:	4770      	bx	lr

0800175c <dlcToDataLength>:

CANARD_INTERNAL uint16_t dlcToDataLength(uint16_t dlc) {
 800175c:	b480      	push	{r7}
 800175e:	b083      	sub	sp, #12
 8001760:	af00      	add	r7, sp, #0
 8001762:	4603      	mov	r3, r0
 8001764:	80fb      	strh	r3, [r7, #6]
    /*
    Data Length Code      9  10  11  12  13  14  15
    Number of data bytes 12  16  20  24  32  48  64
    */
    if (dlc <= 8) {
 8001766:	88fb      	ldrh	r3, [r7, #6]
 8001768:	2b08      	cmp	r3, #8
 800176a:	d801      	bhi.n	8001770 <dlcToDataLength+0x14>
        return dlc;
 800176c:	88fb      	ldrh	r3, [r7, #6]
 800176e:	e01e      	b.n	80017ae <dlcToDataLength+0x52>
    } else if (dlc == 9) {
 8001770:	88fb      	ldrh	r3, [r7, #6]
 8001772:	2b09      	cmp	r3, #9
 8001774:	d101      	bne.n	800177a <dlcToDataLength+0x1e>
        return 12;
 8001776:	230c      	movs	r3, #12
 8001778:	e019      	b.n	80017ae <dlcToDataLength+0x52>
    } else if (dlc == 10) {
 800177a:	88fb      	ldrh	r3, [r7, #6]
 800177c:	2b0a      	cmp	r3, #10
 800177e:	d101      	bne.n	8001784 <dlcToDataLength+0x28>
        return 16;
 8001780:	2310      	movs	r3, #16
 8001782:	e014      	b.n	80017ae <dlcToDataLength+0x52>
    } else if (dlc == 11) {
 8001784:	88fb      	ldrh	r3, [r7, #6]
 8001786:	2b0b      	cmp	r3, #11
 8001788:	d101      	bne.n	800178e <dlcToDataLength+0x32>
        return 20;
 800178a:	2314      	movs	r3, #20
 800178c:	e00f      	b.n	80017ae <dlcToDataLength+0x52>
    } else if (dlc == 12) {
 800178e:	88fb      	ldrh	r3, [r7, #6]
 8001790:	2b0c      	cmp	r3, #12
 8001792:	d101      	bne.n	8001798 <dlcToDataLength+0x3c>
        return 24;
 8001794:	2318      	movs	r3, #24
 8001796:	e00a      	b.n	80017ae <dlcToDataLength+0x52>
    } else if (dlc == 13) {
 8001798:	88fb      	ldrh	r3, [r7, #6]
 800179a:	2b0d      	cmp	r3, #13
 800179c:	d101      	bne.n	80017a2 <dlcToDataLength+0x46>
        return 32;
 800179e:	2320      	movs	r3, #32
 80017a0:	e005      	b.n	80017ae <dlcToDataLength+0x52>
    } else if (dlc == 14) {
 80017a2:	88fb      	ldrh	r3, [r7, #6]
 80017a4:	2b0e      	cmp	r3, #14
 80017a6:	d101      	bne.n	80017ac <dlcToDataLength+0x50>
        return 48;
 80017a8:	2330      	movs	r3, #48	@ 0x30
 80017aa:	e000      	b.n	80017ae <dlcToDataLength+0x52>
    }
    return 64;
 80017ac:	2340      	movs	r3, #64	@ 0x40
}
 80017ae:	4618      	mov	r0, r3
 80017b0:	370c      	adds	r7, #12
 80017b2:	46bd      	mov	sp, r7
 80017b4:	f85d 7b04 	ldr.w	r7, [sp], #4
 80017b8:	4770      	bx	lr

080017ba <dataLengthToDlc>:

CANARD_INTERNAL uint16_t dataLengthToDlc(uint16_t data_length) {
 80017ba:	b480      	push	{r7}
 80017bc:	b083      	sub	sp, #12
 80017be:	af00      	add	r7, sp, #0
 80017c0:	4603      	mov	r3, r0
 80017c2:	80fb      	strh	r3, [r7, #6]
    if (data_length <= 8) {
 80017c4:	88fb      	ldrh	r3, [r7, #6]
 80017c6:	2b08      	cmp	r3, #8
 80017c8:	d801      	bhi.n	80017ce <dataLengthToDlc+0x14>
        return data_length;
 80017ca:	88fb      	ldrh	r3, [r7, #6]
 80017cc:	e01e      	b.n	800180c <dataLengthToDlc+0x52>
    } else if (data_length <= 12) {
 80017ce:	88fb      	ldrh	r3, [r7, #6]
 80017d0:	2b0c      	cmp	r3, #12
 80017d2:	d801      	bhi.n	80017d8 <dataLengthToDlc+0x1e>
        return 9;
 80017d4:	2309      	movs	r3, #9
 80017d6:	e019      	b.n	800180c <dataLengthToDlc+0x52>
    } else if (data_length <= 16) {
 80017d8:	88fb      	ldrh	r3, [r7, #6]
 80017da:	2b10      	cmp	r3, #16
 80017dc:	d801      	bhi.n	80017e2 <dataLengthToDlc+0x28>
        return 10;
 80017de:	230a      	movs	r3, #10
 80017e0:	e014      	b.n	800180c <dataLengthToDlc+0x52>
    } else if (data_length <= 20) {
 80017e2:	88fb      	ldrh	r3, [r7, #6]
 80017e4:	2b14      	cmp	r3, #20
 80017e6:	d801      	bhi.n	80017ec <dataLengthToDlc+0x32>
        return 11;
 80017e8:	230b      	movs	r3, #11
 80017ea:	e00f      	b.n	800180c <dataLengthToDlc+0x52>
    } else if (data_length <= 24) {
 80017ec:	88fb      	ldrh	r3, [r7, #6]
 80017ee:	2b18      	cmp	r3, #24
 80017f0:	d801      	bhi.n	80017f6 <dataLengthToDlc+0x3c>
        return 12;
 80017f2:	230c      	movs	r3, #12
 80017f4:	e00a      	b.n	800180c <dataLengthToDlc+0x52>
    } else if (data_length <= 32) {
 80017f6:	88fb      	ldrh	r3, [r7, #6]
 80017f8:	2b20      	cmp	r3, #32
 80017fa:	d801      	bhi.n	8001800 <dataLengthToDlc+0x46>
        return 13;
 80017fc:	230d      	movs	r3, #13
 80017fe:	e005      	b.n	800180c <dataLengthToDlc+0x52>
    } else if (data_length <= 48) {
 8001800:	88fb      	ldrh	r3, [r7, #6]
 8001802:	2b30      	cmp	r3, #48	@ 0x30
 8001804:	d801      	bhi.n	800180a <dataLengthToDlc+0x50>
        return 14;
 8001806:	230e      	movs	r3, #14
 8001808:	e000      	b.n	800180c <dataLengthToDlc+0x52>
    }
    return 15;
 800180a:	230f      	movs	r3, #15
}
 800180c:	4618      	mov	r0, r3
 800180e:	370c      	adds	r7, #12
 8001810:	46bd      	mov	sp, r7
 8001812:	f85d 7b04 	ldr.w	r7, [sp], #4
 8001816:	4770      	bx	lr

08001818 <enqueueTxFrames>:
CANARD_INTERNAL int16_t enqueueTxFrames(CanardInstance* ins,
                                        uint32_t can_id,
                                        uint16_t crc,
                                        CanardTxTransfer* transfer
)
{
 8001818:	b580      	push	{r7, lr}
 800181a:	b08a      	sub	sp, #40	@ 0x28
 800181c:	af00      	add	r7, sp, #0
 800181e:	60f8      	str	r0, [r7, #12]
 8001820:	60b9      	str	r1, [r7, #8]
 8001822:	603b      	str	r3, [r7, #0]
 8001824:	4613      	mov	r3, r2
 8001826:	80fb      	strh	r3, [r7, #6]
    CANARD_ASSERT(ins != NULL);
    CANARD_ASSERT((can_id & CANARD_CAN_EXT_ID_MASK) == can_id);            // Flags must be cleared

    if (transfer->inout_transfer_id == NULL)
 8001828:	683b      	ldr	r3, [r7, #0]
 800182a:	695b      	ldr	r3, [r3, #20]
 800182c:	2b00      	cmp	r3, #0
 800182e:	d102      	bne.n	8001836 <enqueueTxFrames+0x1e>
    {
        return -CANARD_ERROR_INVALID_ARGUMENT;
 8001830:	f06f 0301 	mvn.w	r3, #1
 8001834:	e0f9      	b.n	8001a2a <enqueueTxFrames+0x212>
    }

    if ((transfer->payload_len > 0) && (transfer->payload == NULL))
 8001836:	683b      	ldr	r3, [r7, #0]
 8001838:	8c1b      	ldrh	r3, [r3, #32]
 800183a:	2b00      	cmp	r3, #0
 800183c:	d006      	beq.n	800184c <enqueueTxFrames+0x34>
 800183e:	683b      	ldr	r3, [r7, #0]
 8001840:	69db      	ldr	r3, [r3, #28]
 8001842:	2b00      	cmp	r3, #0
 8001844:	d102      	bne.n	800184c <enqueueTxFrames+0x34>
    {
        return -CANARD_ERROR_INVALID_ARGUMENT;
 8001846:	f06f 0301 	mvn.w	r3, #1
 800184a:	e0ee      	b.n	8001a2a <enqueueTxFrames+0x212>
    }

    int16_t result = 0;
 800184c:	2300      	movs	r3, #0
 800184e:	84fb      	strh	r3, [r7, #38]	@ 0x26
#if CANARD_ENABLE_CANFD
    uint8_t frame_max_data_len = transfer->canfd ? CANARD_CANFD_FRAME_MAX_DATA_LEN:CANARD_CAN_FRAME_MAX_DATA_LEN;
#else
    uint8_t frame_max_data_len = CANARD_CAN_FRAME_MAX_DATA_LEN;
 8001850:	2308      	movs	r3, #8
 8001852:	77fb      	strb	r3, [r7, #31]
#endif
    if (transfer->payload_len < frame_max_data_len)                        // Single frame transfer
 8001854:	683b      	ldr	r3, [r7, #0]
 8001856:	8c1a      	ldrh	r2, [r3, #32]
 8001858:	7ffb      	ldrb	r3, [r7, #31]
 800185a:	b29b      	uxth	r3, r3
 800185c:	429a      	cmp	r2, r3
 800185e:	d24b      	bcs.n	80018f8 <enqueueTxFrames+0xe0>
    {
        CanardTxQueueItem* queue_item = createTxItem(&ins->allocator);
 8001860:	68fb      	ldr	r3, [r7, #12]
 8001862:	330c      	adds	r3, #12
 8001864:	4618      	mov	r0, r3
 8001866:	f000 f929 	bl	8001abc <createTxItem>
 800186a:	6178      	str	r0, [r7, #20]
        if (queue_item == NULL)
 800186c:	697b      	ldr	r3, [r7, #20]
 800186e:	2b00      	cmp	r3, #0
 8001870:	d102      	bne.n	8001878 <enqueueTxFrames+0x60>
        {
            return -CANARD_ERROR_OUT_OF_MEMORY;
 8001872:	f06f 0302 	mvn.w	r3, #2
 8001876:	e0d8      	b.n	8001a2a <enqueueTxFrames+0x212>
        }

        memcpy(queue_item->frame.data, transfer->payload, transfer->payload_len);
 8001878:	697b      	ldr	r3, [r7, #20]
 800187a:	f103 0008 	add.w	r0, r3, #8
 800187e:	683b      	ldr	r3, [r7, #0]
 8001880:	69d9      	ldr	r1, [r3, #28]
 8001882:	683b      	ldr	r3, [r7, #0]
 8001884:	8c1b      	ldrh	r3, [r3, #32]
 8001886:	461a      	mov	r2, r3
 8001888:	f006 f8f7 	bl	8007a7a <memcpy>

        transfer->payload_len = dlcToDataLength(dataLengthToDlc(transfer->payload_len+1))-1;
 800188c:	683b      	ldr	r3, [r7, #0]
 800188e:	8c1b      	ldrh	r3, [r3, #32]
 8001890:	3301      	adds	r3, #1
 8001892:	b29b      	uxth	r3, r3
 8001894:	4618      	mov	r0, r3
 8001896:	f7ff ff90 	bl	80017ba <dataLengthToDlc>
 800189a:	4603      	mov	r3, r0
 800189c:	4618      	mov	r0, r3
 800189e:	f7ff ff5d 	bl	800175c <dlcToDataLength>
 80018a2:	4603      	mov	r3, r0
 80018a4:	3b01      	subs	r3, #1
 80018a6:	b29a      	uxth	r2, r3
 80018a8:	683b      	ldr	r3, [r7, #0]
 80018aa:	841a      	strh	r2, [r3, #32]
        queue_item->frame.data_len = (uint8_t)(transfer->payload_len + 1);
 80018ac:	683b      	ldr	r3, [r7, #0]
 80018ae:	8c1b      	ldrh	r3, [r3, #32]
 80018b0:	b2db      	uxtb	r3, r3
 80018b2:	3301      	adds	r3, #1
 80018b4:	b2da      	uxtb	r2, r3
 80018b6:	697b      	ldr	r3, [r7, #20]
 80018b8:	741a      	strb	r2, [r3, #16]
        queue_item->frame.data[transfer->payload_len] = (uint8_t)(0xC0U | (*transfer->inout_transfer_id & 31U));
 80018ba:	683b      	ldr	r3, [r7, #0]
 80018bc:	695b      	ldr	r3, [r3, #20]
 80018be:	781b      	ldrb	r3, [r3, #0]
 80018c0:	f003 031f 	and.w	r3, r3, #31
 80018c4:	b2db      	uxtb	r3, r3
 80018c6:	683a      	ldr	r2, [r7, #0]
 80018c8:	8c12      	ldrh	r2, [r2, #32]
 80018ca:	4611      	mov	r1, r2
 80018cc:	f063 033f 	orn	r3, r3, #63	@ 0x3f
 80018d0:	b2da      	uxtb	r2, r3
 80018d2:	697b      	ldr	r3, [r7, #20]
 80018d4:	440b      	add	r3, r1
 80018d6:	721a      	strb	r2, [r3, #8]
        queue_item->frame.id = can_id | CANARD_CAN_FRAME_EFF;
 80018d8:	68bb      	ldr	r3, [r7, #8]
 80018da:	f043 4200 	orr.w	r2, r3, #2147483648	@ 0x80000000
 80018de:	697b      	ldr	r3, [r7, #20]
 80018e0:	605a      	str	r2, [r3, #4]
        queue_item->frame.iface_mask = transfer->iface_mask;
#endif
#if CANARD_ENABLE_CANFD
        queue_item->frame.canfd = transfer->canfd;
#endif
        pushTxQueue(ins, queue_item);
 80018e2:	6979      	ldr	r1, [r7, #20]
 80018e4:	68f8      	ldr	r0, [r7, #12]
 80018e6:	f000 f8a4 	bl	8001a32 <pushTxQueue>
        result++;
 80018ea:	f9b7 3026 	ldrsh.w	r3, [r7, #38]	@ 0x26
 80018ee:	b29b      	uxth	r3, r3
 80018f0:	3301      	adds	r3, #1
 80018f2:	b29b      	uxth	r3, r3
 80018f4:	84fb      	strh	r3, [r7, #38]	@ 0x26
 80018f6:	e096      	b.n	8001a26 <enqueueTxFrames+0x20e>
    }
    else                                                                    // Multi frame transfer
    {
        uint16_t data_index = 0;
 80018f8:	2300      	movs	r3, #0
 80018fa:	84bb      	strh	r3, [r7, #36]	@ 0x24
        uint8_t toggle = 0;
 80018fc:	2300      	movs	r3, #0
 80018fe:	f887 3023 	strb.w	r3, [r7, #35]	@ 0x23
        uint8_t sot_eot = 0x80;
 8001902:	2380      	movs	r3, #128	@ 0x80
 8001904:	f887 3022 	strb.w	r3, [r7, #34]	@ 0x22

        CanardTxQueueItem* queue_item = NULL;
 8001908:	2300      	movs	r3, #0
 800190a:	61bb      	str	r3, [r7, #24]

        while (transfer->payload_len - data_index != 0)
 800190c:	e085      	b.n	8001a1a <enqueueTxFrames+0x202>
        {
            queue_item = createTxItem(&ins->allocator);
 800190e:	68fb      	ldr	r3, [r7, #12]
 8001910:	330c      	adds	r3, #12
 8001912:	4618      	mov	r0, r3
 8001914:	f000 f8d2 	bl	8001abc <createTxItem>
 8001918:	61b8      	str	r0, [r7, #24]
            if (queue_item == NULL)
 800191a:	69bb      	ldr	r3, [r7, #24]
 800191c:	2b00      	cmp	r3, #0
 800191e:	d102      	bne.n	8001926 <enqueueTxFrames+0x10e>
            {
                CANARD_ASSERT(false);
                return -CANARD_ERROR_OUT_OF_MEMORY;          // TODO: Purge all frames enqueued so far
 8001920:	f06f 0302 	mvn.w	r3, #2
 8001924:	e081      	b.n	8001a2a <enqueueTxFrames+0x212>
            }

            uint16_t i = 0;
 8001926:	2300      	movs	r3, #0
 8001928:	843b      	strh	r3, [r7, #32]
            if (data_index == 0)
 800192a:	8cbb      	ldrh	r3, [r7, #36]	@ 0x24
 800192c:	2b00      	cmp	r3, #0
 800192e:	d10c      	bne.n	800194a <enqueueTxFrames+0x132>
            {
                // add crc
                queue_item->frame.data[0] = (uint8_t) (crc);
 8001930:	88fb      	ldrh	r3, [r7, #6]
 8001932:	b2da      	uxtb	r2, r3
 8001934:	69bb      	ldr	r3, [r7, #24]
 8001936:	721a      	strb	r2, [r3, #8]
                queue_item->frame.data[1] = (uint8_t) (crc >> 8U);
 8001938:	88fb      	ldrh	r3, [r7, #6]
 800193a:	0a1b      	lsrs	r3, r3, #8
 800193c:	b29b      	uxth	r3, r3
 800193e:	b2da      	uxtb	r2, r3
 8001940:	69bb      	ldr	r3, [r7, #24]
 8001942:	725a      	strb	r2, [r3, #9]
                i = 2;
 8001944:	2302      	movs	r3, #2
 8001946:	843b      	strh	r3, [r7, #32]
 8001948:	e012      	b.n	8001970 <enqueueTxFrames+0x158>
            }
            else
            {
                i = 0;
 800194a:	2300      	movs	r3, #0
 800194c:	843b      	strh	r3, [r7, #32]
            }

            for (; i < (frame_max_data_len - 1) && data_index < transfer->payload_len; i++, data_index++)
 800194e:	e00f      	b.n	8001970 <enqueueTxFrames+0x158>
            {
                queue_item->frame.data[i] = transfer->payload[data_index];
 8001950:	683b      	ldr	r3, [r7, #0]
 8001952:	69da      	ldr	r2, [r3, #28]
 8001954:	8cbb      	ldrh	r3, [r7, #36]	@ 0x24
 8001956:	441a      	add	r2, r3
 8001958:	8c3b      	ldrh	r3, [r7, #32]
 800195a:	7811      	ldrb	r1, [r2, #0]
 800195c:	69ba      	ldr	r2, [r7, #24]
 800195e:	4413      	add	r3, r2
 8001960:	460a      	mov	r2, r1
 8001962:	721a      	strb	r2, [r3, #8]
            for (; i < (frame_max_data_len - 1) && data_index < transfer->payload_len; i++, data_index++)
 8001964:	8c3b      	ldrh	r3, [r7, #32]
 8001966:	3301      	adds	r3, #1
 8001968:	843b      	strh	r3, [r7, #32]
 800196a:	8cbb      	ldrh	r3, [r7, #36]	@ 0x24
 800196c:	3301      	adds	r3, #1
 800196e:	84bb      	strh	r3, [r7, #36]	@ 0x24
 8001970:	8c3a      	ldrh	r2, [r7, #32]
 8001972:	7ffb      	ldrb	r3, [r7, #31]
 8001974:	3b01      	subs	r3, #1
 8001976:	429a      	cmp	r2, r3
 8001978:	da04      	bge.n	8001984 <enqueueTxFrames+0x16c>
 800197a:	683b      	ldr	r3, [r7, #0]
 800197c:	8c1b      	ldrh	r3, [r3, #32]
 800197e:	8cba      	ldrh	r2, [r7, #36]	@ 0x24
 8001980:	429a      	cmp	r2, r3
 8001982:	d3e5      	bcc.n	8001950 <enqueueTxFrames+0x138>
            }
            // tail byte
            sot_eot = (data_index == transfer->payload_len) ? (uint8_t)0x40 : sot_eot;
 8001984:	683b      	ldr	r3, [r7, #0]
 8001986:	8c1b      	ldrh	r3, [r3, #32]
 8001988:	8cba      	ldrh	r2, [r7, #36]	@ 0x24
 800198a:	429a      	cmp	r2, r3
 800198c:	d002      	beq.n	8001994 <enqueueTxFrames+0x17c>
 800198e:	f897 3022 	ldrb.w	r3, [r7, #34]	@ 0x22
 8001992:	e000      	b.n	8001996 <enqueueTxFrames+0x17e>
 8001994:	2340      	movs	r3, #64	@ 0x40
 8001996:	f887 3022 	strb.w	r3, [r7, #34]	@ 0x22
            
            i = dlcToDataLength(dataLengthToDlc(i+1))-1;
 800199a:	8c3b      	ldrh	r3, [r7, #32]
 800199c:	3301      	adds	r3, #1
 800199e:	b29b      	uxth	r3, r3
 80019a0:	4618      	mov	r0, r3
 80019a2:	f7ff ff0a 	bl	80017ba <dataLengthToDlc>
 80019a6:	4603      	mov	r3, r0
 80019a8:	4618      	mov	r0, r3
 80019aa:	f7ff fed7 	bl	800175c <dlcToDataLength>
 80019ae:	4603      	mov	r3, r0
 80019b0:	3b01      	subs	r3, #1
 80019b2:	843b      	strh	r3, [r7, #32]
            queue_item->frame.data[i] = (uint8_t)(sot_eot | ((uint32_t)toggle << 5U) | ((uint32_t)*transfer->inout_transfer_id & 31U));
 80019b4:	f897 3023 	ldrb.w	r3, [r7, #35]	@ 0x23
 80019b8:	015b      	lsls	r3, r3, #5
 80019ba:	b2da      	uxtb	r2, r3
 80019bc:	f897 3022 	ldrb.w	r3, [r7, #34]	@ 0x22
 80019c0:	4313      	orrs	r3, r2
 80019c2:	b2d9      	uxtb	r1, r3
 80019c4:	683b      	ldr	r3, [r7, #0]
 80019c6:	695b      	ldr	r3, [r3, #20]
 80019c8:	781b      	ldrb	r3, [r3, #0]
 80019ca:	f003 031f 	and.w	r3, r3, #31
 80019ce:	b2da      	uxtb	r2, r3
 80019d0:	8c3b      	ldrh	r3, [r7, #32]
 80019d2:	430a      	orrs	r2, r1
 80019d4:	b2d1      	uxtb	r1, r2
 80019d6:	69ba      	ldr	r2, [r7, #24]
 80019d8:	4413      	add	r3, r2
 80019da:	460a      	mov	r2, r1
 80019dc:	721a      	strb	r2, [r3, #8]
            queue_item->frame.id = can_id | CANARD_CAN_FRAME_EFF;
 80019de:	68bb      	ldr	r3, [r7, #8]
 80019e0:	f043 4200 	orr.w	r2, r3, #2147483648	@ 0x80000000
 80019e4:	69bb      	ldr	r3, [r7, #24]
 80019e6:	605a      	str	r2, [r3, #4]
            queue_item->frame.data_len = (uint8_t)(i + 1);
 80019e8:	8c3b      	ldrh	r3, [r7, #32]
 80019ea:	b2db      	uxtb	r3, r3
 80019ec:	3301      	adds	r3, #1
 80019ee:	b2da      	uxtb	r2, r3
 80019f0:	69bb      	ldr	r3, [r7, #24]
 80019f2:	741a      	strb	r2, [r3, #16]
            queue_item->frame.iface_mask = transfer->iface_mask;
#endif
#if CANARD_ENABLE_CANFD
            queue_item->frame.canfd = transfer->canfd;
#endif
            pushTxQueue(ins, queue_item);
 80019f4:	69b9      	ldr	r1, [r7, #24]
 80019f6:	68f8      	ldr	r0, [r7, #12]
 80019f8:	f000 f81b 	bl	8001a32 <pushTxQueue>

            result++;
 80019fc:	f9b7 3026 	ldrsh.w	r3, [r7, #38]	@ 0x26
 8001a00:	b29b      	uxth	r3, r3
 8001a02:	3301      	adds	r3, #1
 8001a04:	b29b      	uxth	r3, r3
 8001a06:	84fb      	strh	r3, [r7, #38]	@ 0x26
            toggle ^= 1;
 8001a08:	f897 3023 	ldrb.w	r3, [r7, #35]	@ 0x23
 8001a0c:	f083 0301 	eor.w	r3, r3, #1
 8001a10:	f887 3023 	strb.w	r3, [r7, #35]	@ 0x23
            sot_eot = 0;
 8001a14:	2300      	movs	r3, #0
 8001a16:	f887 3022 	strb.w	r3, [r7, #34]	@ 0x22
        while (transfer->payload_len - data_index != 0)
 8001a1a:	683b      	ldr	r3, [r7, #0]
 8001a1c:	8c1b      	ldrh	r3, [r3, #32]
 8001a1e:	8cba      	ldrh	r2, [r7, #36]	@ 0x24
 8001a20:	429a      	cmp	r2, r3
 8001a22:	f47f af74 	bne.w	800190e <enqueueTxFrames+0xf6>
        }
    }

    return result;
 8001a26:	f9b7 3026 	ldrsh.w	r3, [r7, #38]	@ 0x26
}
 8001a2a:	4618      	mov	r0, r3
 8001a2c:	3728      	adds	r7, #40	@ 0x28
 8001a2e:	46bd      	mov	sp, r7
 8001a30:	bd80      	pop	{r7, pc}

08001a32 <pushTxQueue>:

/**
 * Puts frame on on the TX queue. Higher priority placed first
 */
CANARD_INTERNAL void pushTxQueue(CanardInstance* ins, CanardTxQueueItem* item)
{
 8001a32:	b580      	push	{r7, lr}
 8001a34:	b084      	sub	sp, #16
 8001a36:	af00      	add	r7, sp, #0
 8001a38:	6078      	str	r0, [r7, #4]
 8001a3a:	6039      	str	r1, [r7, #0]
    CANARD_ASSERT(ins != NULL);
    CANARD_ASSERT(item->frame.data_len > 0);       // UAVCAN doesn't allow zero-payload frames

    if (ins->tx_queue == NULL)
 8001a3c:	687b      	ldr	r3, [r7, #4]
 8001a3e:	6a5b      	ldr	r3, [r3, #36]	@ 0x24
 8001a40:	2b00      	cmp	r3, #0
 8001a42:	d103      	bne.n	8001a4c <pushTxQueue+0x1a>
    {
        ins->tx_queue = item;
 8001a44:	687b      	ldr	r3, [r7, #4]
 8001a46:	683a      	ldr	r2, [r7, #0]
 8001a48:	625a      	str	r2, [r3, #36]	@ 0x24
        return;
 8001a4a:	e034      	b.n	8001ab6 <pushTxQueue+0x84>
    }

    CanardTxQueueItem* queue = ins->tx_queue;
 8001a4c:	687b      	ldr	r3, [r7, #4]
 8001a4e:	6a5b      	ldr	r3, [r3, #36]	@ 0x24
 8001a50:	60fb      	str	r3, [r7, #12]
    CanardTxQueueItem* previous = ins->tx_queue;
 8001a52:	687b      	ldr	r3, [r7, #4]
 8001a54:	6a5b      	ldr	r3, [r3, #36]	@ 0x24
 8001a56:	60bb      	str	r3, [r7, #8]

    while (queue != NULL)
 8001a58:	e02a      	b.n	8001ab0 <pushTxQueue+0x7e>
    {
        if (isPriorityHigher(queue->frame.id, item->frame.id)) // lower number wins
 8001a5a:	68fb      	ldr	r3, [r7, #12]
 8001a5c:	685a      	ldr	r2, [r3, #4]
 8001a5e:	683b      	ldr	r3, [r7, #0]
 8001a60:	685b      	ldr	r3, [r3, #4]
 8001a62:	4619      	mov	r1, r3
 8001a64:	4610      	mov	r0, r2
 8001a66:	f000 f840 	bl	8001aea <isPriorityHigher>
 8001a6a:	4603      	mov	r3, r0
 8001a6c:	2b00      	cmp	r3, #0
 8001a6e:	d012      	beq.n	8001a96 <pushTxQueue+0x64>
        {
            if (queue == ins->tx_queue)
 8001a70:	687b      	ldr	r3, [r7, #4]
 8001a72:	6a5b      	ldr	r3, [r3, #36]	@ 0x24
 8001a74:	68fa      	ldr	r2, [r7, #12]
 8001a76:	429a      	cmp	r2, r3
 8001a78:	d106      	bne.n	8001a88 <pushTxQueue+0x56>
            {
                item->next = queue;
 8001a7a:	683b      	ldr	r3, [r7, #0]
 8001a7c:	68fa      	ldr	r2, [r7, #12]
 8001a7e:	601a      	str	r2, [r3, #0]
                ins->tx_queue = item;
 8001a80:	687b      	ldr	r3, [r7, #4]
 8001a82:	683a      	ldr	r2, [r7, #0]
 8001a84:	625a      	str	r2, [r3, #36]	@ 0x24
            else
            {
                previous->next = item;
                item->next = queue;
            }
            return;
 8001a86:	e016      	b.n	8001ab6 <pushTxQueue+0x84>
                previous->next = item;
 8001a88:	68bb      	ldr	r3, [r7, #8]
 8001a8a:	683a      	ldr	r2, [r7, #0]
 8001a8c:	601a      	str	r2, [r3, #0]
                item->next = queue;
 8001a8e:	683b      	ldr	r3, [r7, #0]
 8001a90:	68fa      	ldr	r2, [r7, #12]
 8001a92:	601a      	str	r2, [r3, #0]
            return;
 8001a94:	e00f      	b.n	8001ab6 <pushTxQueue+0x84>
        }
        else
        {
            if (queue->next == NULL)
 8001a96:	68fb      	ldr	r3, [r7, #12]
 8001a98:	681b      	ldr	r3, [r3, #0]
 8001a9a:	2b00      	cmp	r3, #0
 8001a9c:	d103      	bne.n	8001aa6 <pushTxQueue+0x74>
            {
                queue->next = item;
 8001a9e:	68fb      	ldr	r3, [r7, #12]
 8001aa0:	683a      	ldr	r2, [r7, #0]
 8001aa2:	601a      	str	r2, [r3, #0]
                return;
 8001aa4:	e007      	b.n	8001ab6 <pushTxQueue+0x84>
            }
            else
            {
                previous = queue;
 8001aa6:	68fb      	ldr	r3, [r7, #12]
 8001aa8:	60bb      	str	r3, [r7, #8]
                queue = queue->next;
 8001aaa:	68fb      	ldr	r3, [r7, #12]
 8001aac:	681b      	ldr	r3, [r3, #0]
 8001aae:	60fb      	str	r3, [r7, #12]
    while (queue != NULL)
 8001ab0:	68fb      	ldr	r3, [r7, #12]
 8001ab2:	2b00      	cmp	r3, #0
 8001ab4:	d1d1      	bne.n	8001a5a <pushTxQueue+0x28>
            }
        }
    }
}
 8001ab6:	3710      	adds	r7, #16
 8001ab8:	46bd      	mov	sp, r7
 8001aba:	bd80      	pop	{r7, pc}

08001abc <createTxItem>:

/**
 * Creates new tx queue item from allocator
 */
CANARD_INTERNAL CanardTxQueueItem* createTxItem(CanardPoolAllocator* allocator)
{
 8001abc:	b580      	push	{r7, lr}
 8001abe:	b084      	sub	sp, #16
 8001ac0:	af00      	add	r7, sp, #0
 8001ac2:	6078      	str	r0, [r7, #4]
    CanardTxQueueItem* item = (CanardTxQueueItem*) allocateBlock(allocator);
 8001ac4:	6878      	ldr	r0, [r7, #4]
 8001ac6:	f000 fd0f 	bl	80024e8 <allocateBlock>
 8001aca:	60f8      	str	r0, [r7, #12]
    if (item == NULL)
 8001acc:	68fb      	ldr	r3, [r7, #12]
 8001ace:	2b00      	cmp	r3, #0
 8001ad0:	d101      	bne.n	8001ad6 <createTxItem+0x1a>
    {
        return NULL;
 8001ad2:	2300      	movs	r3, #0
 8001ad4:	e005      	b.n	8001ae2 <createTxItem+0x26>
    }
    memset(item, 0, sizeof(*item));
 8001ad6:	2214      	movs	r2, #20
 8001ad8:	2100      	movs	r1, #0
 8001ada:	68f8      	ldr	r0, [r7, #12]
 8001adc:	f005 ff3f 	bl	800795e <memset>
    return item;
 8001ae0:	68fb      	ldr	r3, [r7, #12]
}
 8001ae2:	4618      	mov	r0, r3
 8001ae4:	3710      	adds	r7, #16
 8001ae6:	46bd      	mov	sp, r7
 8001ae8:	bd80      	pop	{r7, pc}

08001aea <isPriorityHigher>:

/**
 * Returns true if priority of rhs is higher than id
 */
CANARD_INTERNAL bool isPriorityHigher(uint32_t rhs, uint32_t id)
{
 8001aea:	b480      	push	{r7}
 8001aec:	b089      	sub	sp, #36	@ 0x24
 8001aee:	af00      	add	r7, sp, #0
 8001af0:	6078      	str	r0, [r7, #4]
 8001af2:	6039      	str	r1, [r7, #0]
    const uint32_t clean_id = id & CANARD_CAN_EXT_ID_MASK;
 8001af4:	683b      	ldr	r3, [r7, #0]
 8001af6:	f023 4360 	bic.w	r3, r3, #3758096384	@ 0xe0000000
 8001afa:	61fb      	str	r3, [r7, #28]
    const uint32_t rhs_clean_id = rhs & CANARD_CAN_EXT_ID_MASK;
 8001afc:	687b      	ldr	r3, [r7, #4]
 8001afe:	f023 4360 	bic.w	r3, r3, #3758096384	@ 0xe0000000
 8001b02:	61bb      	str	r3, [r7, #24]

    /*
     * STD vs EXT - if 11 most significant bits are the same, EXT loses.
     */
    const bool ext = (id & CANARD_CAN_FRAME_EFF) != 0;
 8001b04:	683b      	ldr	r3, [r7, #0]
 8001b06:	0fdb      	lsrs	r3, r3, #31
 8001b08:	75fb      	strb	r3, [r7, #23]
    const bool rhs_ext = (rhs & CANARD_CAN_FRAME_EFF) != 0;
 8001b0a:	687b      	ldr	r3, [r7, #4]
 8001b0c:	0fdb      	lsrs	r3, r3, #31
 8001b0e:	75bb      	strb	r3, [r7, #22]
    if (ext != rhs_ext)
 8001b10:	7dfa      	ldrb	r2, [r7, #23]
 8001b12:	7dbb      	ldrb	r3, [r7, #22]
 8001b14:	429a      	cmp	r2, r3
 8001b16:	d01d      	beq.n	8001b54 <isPriorityHigher+0x6a>
    {
        uint32_t arb11 = ext ? (clean_id >> 18U) : clean_id;
 8001b18:	7dfb      	ldrb	r3, [r7, #23]
 8001b1a:	2b00      	cmp	r3, #0
 8001b1c:	d002      	beq.n	8001b24 <isPriorityHigher+0x3a>
 8001b1e:	69fb      	ldr	r3, [r7, #28]
 8001b20:	0c9b      	lsrs	r3, r3, #18
 8001b22:	e000      	b.n	8001b26 <isPriorityHigher+0x3c>
 8001b24:	69fb      	ldr	r3, [r7, #28]
 8001b26:	613b      	str	r3, [r7, #16]
        uint32_t rhs_arb11 = rhs_ext ? (rhs_clean_id >> 18U) : rhs_clean_id;
 8001b28:	7dbb      	ldrb	r3, [r7, #22]
 8001b2a:	2b00      	cmp	r3, #0
 8001b2c:	d002      	beq.n	8001b34 <isPriorityHigher+0x4a>
 8001b2e:	69bb      	ldr	r3, [r7, #24]
 8001b30:	0c9b      	lsrs	r3, r3, #18
 8001b32:	e000      	b.n	8001b36 <isPriorityHigher+0x4c>
 8001b34:	69bb      	ldr	r3, [r7, #24]
 8001b36:	60fb      	str	r3, [r7, #12]
        if (arb11 != rhs_arb11)
 8001b38:	693a      	ldr	r2, [r7, #16]
 8001b3a:	68fb      	ldr	r3, [r7, #12]
 8001b3c:	429a      	cmp	r2, r3
 8001b3e:	d007      	beq.n	8001b50 <isPriorityHigher+0x66>
        {
            return arb11 < rhs_arb11;
 8001b40:	693a      	ldr	r2, [r7, #16]
 8001b42:	68fb      	ldr	r3, [r7, #12]
 8001b44:	429a      	cmp	r2, r3
 8001b46:	bf34      	ite	cc
 8001b48:	2301      	movcc	r3, #1
 8001b4a:	2300      	movcs	r3, #0
 8001b4c:	b2db      	uxtb	r3, r3
 8001b4e:	e022      	b.n	8001b96 <isPriorityHigher+0xac>
        }
        else
        {
            return rhs_ext;
 8001b50:	7dbb      	ldrb	r3, [r7, #22]
 8001b52:	e020      	b.n	8001b96 <isPriorityHigher+0xac>
    }

    /*
     * RTR vs Data frame - if frame identifiers and frame types are the same, RTR loses.
     */
    const bool rtr = (id & CANARD_CAN_FRAME_RTR) != 0;
 8001b54:	683b      	ldr	r3, [r7, #0]
 8001b56:	f003 4380 	and.w	r3, r3, #1073741824	@ 0x40000000
 8001b5a:	2b00      	cmp	r3, #0
 8001b5c:	bf14      	ite	ne
 8001b5e:	2301      	movne	r3, #1
 8001b60:	2300      	moveq	r3, #0
 8001b62:	757b      	strb	r3, [r7, #21]
    const bool rhs_rtr = (rhs & CANARD_CAN_FRAME_RTR) != 0;
 8001b64:	687b      	ldr	r3, [r7, #4]
 8001b66:	f003 4380 	and.w	r3, r3, #1073741824	@ 0x40000000
 8001b6a:	2b00      	cmp	r3, #0
 8001b6c:	bf14      	ite	ne
 8001b6e:	2301      	movne	r3, #1
 8001b70:	2300      	moveq	r3, #0
 8001b72:	753b      	strb	r3, [r7, #20]
    if (clean_id == rhs_clean_id && rtr != rhs_rtr)
 8001b74:	69fa      	ldr	r2, [r7, #28]
 8001b76:	69bb      	ldr	r3, [r7, #24]
 8001b78:	429a      	cmp	r2, r3
 8001b7a:	d105      	bne.n	8001b88 <isPriorityHigher+0x9e>
 8001b7c:	7d7a      	ldrb	r2, [r7, #21]
 8001b7e:	7d3b      	ldrb	r3, [r7, #20]
 8001b80:	429a      	cmp	r2, r3
 8001b82:	d001      	beq.n	8001b88 <isPriorityHigher+0x9e>
    {
        return rhs_rtr;
 8001b84:	7d3b      	ldrb	r3, [r7, #20]
 8001b86:	e006      	b.n	8001b96 <isPriorityHigher+0xac>
    }

    /*
     * Plain ID arbitration - greater value loses.
     */
    return clean_id < rhs_clean_id;
 8001b88:	69fa      	ldr	r2, [r7, #28]
 8001b8a:	69bb      	ldr	r3, [r7, #24]
 8001b8c:	429a      	cmp	r2, r3
 8001b8e:	bf34      	ite	cc
 8001b90:	2301      	movcc	r3, #1
 8001b92:	2300      	movcs	r3, #0
 8001b94:	b2db      	uxtb	r3, r3
}
 8001b96:	4618      	mov	r0, r3
 8001b98:	3724      	adds	r7, #36	@ 0x24
 8001b9a:	46bd      	mov	sp, r7
 8001b9c:	f85d 7b04 	ldr.w	r7, [sp], #4
 8001ba0:	4770      	bx	lr

08001ba2 <prepareForNextTransfer>:

/**
 * preps the rx state for the next transfer. does not delete the state
 */
CANARD_INTERNAL void prepareForNextTransfer(CanardRxState* state)
{
 8001ba2:	b480      	push	{r7}
 8001ba4:	b083      	sub	sp, #12
 8001ba6:	af00      	add	r7, sp, #0
 8001ba8:	6078      	str	r0, [r7, #4]
    CANARD_ASSERT(state->buffer_blocks == CANARD_BUFFER_IDX_NONE);
    state->transfer_id++;
 8001baa:	687b      	ldr	r3, [r7, #4]
 8001bac:	7ddb      	ldrb	r3, [r3, #23]
 8001bae:	f3c3 0384 	ubfx	r3, r3, #2, #5
 8001bb2:	b2db      	uxtb	r3, r3
 8001bb4:	3301      	adds	r3, #1
 8001bb6:	f003 031f 	and.w	r3, r3, #31
 8001bba:	b2d9      	uxtb	r1, r3
 8001bbc:	687a      	ldr	r2, [r7, #4]
 8001bbe:	7dd3      	ldrb	r3, [r2, #23]
 8001bc0:	f361 0386 	bfi	r3, r1, #2, #5
 8001bc4:	75d3      	strb	r3, [r2, #23]
    state->payload_len = 0;
 8001bc6:	687a      	ldr	r2, [r7, #4]
 8001bc8:	8ad3      	ldrh	r3, [r2, #22]
 8001bca:	f36f 0309 	bfc	r3, #0, #10
 8001bce:	82d3      	strh	r3, [r2, #22]
    state->next_toggle = 0;
 8001bd0:	687a      	ldr	r2, [r7, #4]
 8001bd2:	7dd3      	ldrb	r3, [r2, #23]
 8001bd4:	f023 0380 	bic.w	r3, r3, #128	@ 0x80
 8001bd8:	75d3      	strb	r3, [r2, #23]
}
 8001bda:	bf00      	nop
 8001bdc:	370c      	adds	r7, #12
 8001bde:	46bd      	mov	sp, r7
 8001be0:	f85d 7b04 	ldr.w	r7, [sp], #4
 8001be4:	4770      	bx	lr

08001be6 <extractDataType>:

/**
 * returns data type from id
 */
uint16_t extractDataType(uint32_t id)
{
 8001be6:	b580      	push	{r7, lr}
 8001be8:	b084      	sub	sp, #16
 8001bea:	af00      	add	r7, sp, #0
 8001bec:	6078      	str	r0, [r7, #4]
    if (extractTransferType(id) == CanardTransferTypeBroadcast)
 8001bee:	6878      	ldr	r0, [r7, #4]
 8001bf0:	f000 f819 	bl	8001c26 <extractTransferType>
 8001bf4:	4603      	mov	r3, r0
 8001bf6:	2b02      	cmp	r3, #2
 8001bf8:	d10e      	bne.n	8001c18 <extractDataType+0x32>
    {
        uint16_t dtid = MSG_TYPE_FROM_ID(id);
 8001bfa:	687b      	ldr	r3, [r7, #4]
 8001bfc:	0a1b      	lsrs	r3, r3, #8
 8001bfe:	81fb      	strh	r3, [r7, #14]
        if (SOURCE_ID_FROM_ID(id) == CANARD_BROADCAST_NODE_ID)
 8001c00:	687b      	ldr	r3, [r7, #4]
 8001c02:	b2db      	uxtb	r3, r3
 8001c04:	f003 037f 	and.w	r3, r3, #127	@ 0x7f
 8001c08:	2b00      	cmp	r3, #0
 8001c0a:	d103      	bne.n	8001c14 <extractDataType+0x2e>
        {
            dtid &= (1U << ANON_MSG_DATA_TYPE_ID_BIT_LEN) - 1U;
 8001c0c:	89fb      	ldrh	r3, [r7, #14]
 8001c0e:	f003 0303 	and.w	r3, r3, #3
 8001c12:	81fb      	strh	r3, [r7, #14]
        }
        return dtid;
 8001c14:	89fb      	ldrh	r3, [r7, #14]
 8001c16:	e002      	b.n	8001c1e <extractDataType+0x38>
    }
    else
    {
        return (uint16_t) SRV_TYPE_FROM_ID(id);
 8001c18:	687b      	ldr	r3, [r7, #4]
 8001c1a:	0c1b      	lsrs	r3, r3, #16
 8001c1c:	b2db      	uxtb	r3, r3
    }
}
 8001c1e:	4618      	mov	r0, r3
 8001c20:	3710      	adds	r7, #16
 8001c22:	46bd      	mov	sp, r7
 8001c24:	bd80      	pop	{r7, pc}

08001c26 <extractTransferType>:

/**
 * returns transfer type from id
 */
CanardTransferType extractTransferType(uint32_t id)
{
 8001c26:	b480      	push	{r7}
 8001c28:	b085      	sub	sp, #20
 8001c2a:	af00      	add	r7, sp, #0
 8001c2c:	6078      	str	r0, [r7, #4]
    const bool is_service = SERVICE_NOT_MSG_FROM_ID(id);
 8001c2e:	687b      	ldr	r3, [r7, #4]
 8001c30:	09db      	lsrs	r3, r3, #7
 8001c32:	f003 0301 	and.w	r3, r3, #1
 8001c36:	2b00      	cmp	r3, #0
 8001c38:	bf14      	ite	ne
 8001c3a:	2301      	movne	r3, #1
 8001c3c:	2300      	moveq	r3, #0
 8001c3e:	73fb      	strb	r3, [r7, #15]
    if (!is_service)
 8001c40:	7bfb      	ldrb	r3, [r7, #15]
 8001c42:	f083 0301 	eor.w	r3, r3, #1
 8001c46:	b2db      	uxtb	r3, r3
 8001c48:	2b00      	cmp	r3, #0
 8001c4a:	d001      	beq.n	8001c50 <extractTransferType+0x2a>
    {
        return CanardTransferTypeBroadcast;
 8001c4c:	2302      	movs	r3, #2
 8001c4e:	e008      	b.n	8001c62 <extractTransferType+0x3c>
    }
    else if (REQUEST_NOT_RESPONSE_FROM_ID(id) == 1)
 8001c50:	687b      	ldr	r3, [r7, #4]
 8001c52:	0bdb      	lsrs	r3, r3, #15
 8001c54:	f003 0301 	and.w	r3, r3, #1
 8001c58:	2b00      	cmp	r3, #0
 8001c5a:	d001      	beq.n	8001c60 <extractTransferType+0x3a>
    {
        return CanardTransferTypeRequest;
 8001c5c:	2301      	movs	r3, #1
 8001c5e:	e000      	b.n	8001c62 <extractTransferType+0x3c>
    }
    else
    {
        return CanardTransferTypeResponse;
 8001c60:	2300      	movs	r3, #0
    }
}
 8001c62:	4618      	mov	r0, r3
 8001c64:	3714      	adds	r7, #20
 8001c66:	46bd      	mov	sp, r7
 8001c68:	f85d 7b04 	ldr.w	r7, [sp], #4
 8001c6c:	4770      	bx	lr

08001c6e <traverseRxStates>:
/**
 * Traverses the list of CanardRxState's and returns a pointer to the CanardRxState
 * with either the Id or a new one at the end
 */
CANARD_INTERNAL CanardRxState* traverseRxStates(CanardInstance* ins, uint32_t transfer_descriptor)
{
 8001c6e:	b580      	push	{r7, lr}
 8001c70:	b084      	sub	sp, #16
 8001c72:	af00      	add	r7, sp, #0
 8001c74:	6078      	str	r0, [r7, #4]
 8001c76:	6039      	str	r1, [r7, #0]
    CanardRxState* states = ins->rx_states;
 8001c78:	687b      	ldr	r3, [r7, #4]
 8001c7a:	6a1b      	ldr	r3, [r3, #32]
 8001c7c:	60fb      	str	r3, [r7, #12]

    if (states == NULL) // initialize CanardRxStates
 8001c7e:	68fb      	ldr	r3, [r7, #12]
 8001c80:	2b00      	cmp	r3, #0
 8001c82:	d110      	bne.n	8001ca6 <traverseRxStates+0x38>
    {
        states = createRxState(&ins->allocator, transfer_descriptor);
 8001c84:	687b      	ldr	r3, [r7, #4]
 8001c86:	330c      	adds	r3, #12
 8001c88:	6839      	ldr	r1, [r7, #0]
 8001c8a:	4618      	mov	r0, r3
 8001c8c:	f000 f865 	bl	8001d5a <createRxState>
 8001c90:	60f8      	str	r0, [r7, #12]

        if(states == NULL)
 8001c92:	68fb      	ldr	r3, [r7, #12]
 8001c94:	2b00      	cmp	r3, #0
 8001c96:	d101      	bne.n	8001c9c <traverseRxStates+0x2e>
        {
            return NULL;
 8001c98:	2300      	movs	r3, #0
 8001c9a:	e013      	b.n	8001cc4 <traverseRxStates+0x56>
        }

        ins->rx_states = states;
 8001c9c:	687b      	ldr	r3, [r7, #4]
 8001c9e:	68fa      	ldr	r2, [r7, #12]
 8001ca0:	621a      	str	r2, [r3, #32]
        return states;
 8001ca2:	68fb      	ldr	r3, [r7, #12]
 8001ca4:	e00e      	b.n	8001cc4 <traverseRxStates+0x56>
    }

    states = findRxState(ins, transfer_descriptor);
 8001ca6:	6839      	ldr	r1, [r7, #0]
 8001ca8:	6878      	ldr	r0, [r7, #4]
 8001caa:	f000 f80f 	bl	8001ccc <findRxState>
 8001cae:	60f8      	str	r0, [r7, #12]
    if (states != NULL)
 8001cb0:	68fb      	ldr	r3, [r7, #12]
 8001cb2:	2b00      	cmp	r3, #0
 8001cb4:	d001      	beq.n	8001cba <traverseRxStates+0x4c>
    {
        return states;
 8001cb6:	68fb      	ldr	r3, [r7, #12]
 8001cb8:	e004      	b.n	8001cc4 <traverseRxStates+0x56>
    }
    else
    {
        return prependRxState(ins, transfer_descriptor);
 8001cba:	6839      	ldr	r1, [r7, #0]
 8001cbc:	6878      	ldr	r0, [r7, #4]
 8001cbe:	f000 f827 	bl	8001d10 <prependRxState>
 8001cc2:	4603      	mov	r3, r0
    }
}
 8001cc4:	4618      	mov	r0, r3
 8001cc6:	3710      	adds	r7, #16
 8001cc8:	46bd      	mov	sp, r7
 8001cca:	bd80      	pop	{r7, pc}

08001ccc <findRxState>:

/**
 * returns pointer to the rx state of transfer descriptor or null if not found
 */
CANARD_INTERNAL CanardRxState* findRxState(CanardInstance *ins, uint32_t transfer_descriptor)
{
 8001ccc:	b580      	push	{r7, lr}
 8001cce:	b084      	sub	sp, #16
 8001cd0:	af00      	add	r7, sp, #0
 8001cd2:	6078      	str	r0, [r7, #4]
 8001cd4:	6039      	str	r1, [r7, #0]
    CanardRxState *state = ins->rx_states;
 8001cd6:	687b      	ldr	r3, [r7, #4]
 8001cd8:	6a1b      	ldr	r3, [r3, #32]
 8001cda:	60fb      	str	r3, [r7, #12]
    while (state != NULL)
 8001cdc:	e010      	b.n	8001d00 <findRxState+0x34>
    {
        if (state->dtid_tt_snid_dnid == transfer_descriptor)
 8001cde:	68fb      	ldr	r3, [r7, #12]
 8001ce0:	691b      	ldr	r3, [r3, #16]
 8001ce2:	683a      	ldr	r2, [r7, #0]
 8001ce4:	429a      	cmp	r2, r3
 8001ce6:	d101      	bne.n	8001cec <findRxState+0x20>
        {
            return state;
 8001ce8:	68fb      	ldr	r3, [r7, #12]
 8001cea:	e00d      	b.n	8001d08 <findRxState+0x3c>
        }
        state = canardRxFromIdx(&ins->allocator, state->next);
 8001cec:	687b      	ldr	r3, [r7, #4]
 8001cee:	f103 020c 	add.w	r2, r3, #12
 8001cf2:	68fb      	ldr	r3, [r7, #12]
 8001cf4:	681b      	ldr	r3, [r3, #0]
 8001cf6:	4619      	mov	r1, r3
 8001cf8:	4610      	mov	r0, r2
 8001cfa:	f7fe fdd3 	bl	80008a4 <canardRxFromIdx>
 8001cfe:	60f8      	str	r0, [r7, #12]
    while (state != NULL)
 8001d00:	68fb      	ldr	r3, [r7, #12]
 8001d02:	2b00      	cmp	r3, #0
 8001d04:	d1eb      	bne.n	8001cde <findRxState+0x12>
    }
    return NULL;
 8001d06:	2300      	movs	r3, #0
}
 8001d08:	4618      	mov	r0, r3
 8001d0a:	3710      	adds	r7, #16
 8001d0c:	46bd      	mov	sp, r7
 8001d0e:	bd80      	pop	{r7, pc}

08001d10 <prependRxState>:

/**
 * prepends rx state to the canard instance rx_states
 */
CANARD_INTERNAL CanardRxState* prependRxState(CanardInstance* ins, uint32_t transfer_descriptor)
{
 8001d10:	b580      	push	{r7, lr}
 8001d12:	b084      	sub	sp, #16
 8001d14:	af00      	add	r7, sp, #0
 8001d16:	6078      	str	r0, [r7, #4]
 8001d18:	6039      	str	r1, [r7, #0]
    CanardRxState* state = createRxState(&ins->allocator, transfer_descriptor);
 8001d1a:	687b      	ldr	r3, [r7, #4]
 8001d1c:	330c      	adds	r3, #12
 8001d1e:	6839      	ldr	r1, [r7, #0]
 8001d20:	4618      	mov	r0, r3
 8001d22:	f000 f81a 	bl	8001d5a <createRxState>
 8001d26:	60f8      	str	r0, [r7, #12]

    if(state == NULL)
 8001d28:	68fb      	ldr	r3, [r7, #12]
 8001d2a:	2b00      	cmp	r3, #0
 8001d2c:	d101      	bne.n	8001d32 <prependRxState+0x22>
    {
        return NULL;
 8001d2e:	2300      	movs	r3, #0
 8001d30:	e00f      	b.n	8001d52 <prependRxState+0x42>
    }

    state->next = canardRxToIdx(&ins->allocator, ins->rx_states);
 8001d32:	687b      	ldr	r3, [r7, #4]
 8001d34:	f103 020c 	add.w	r2, r3, #12
 8001d38:	687b      	ldr	r3, [r7, #4]
 8001d3a:	6a1b      	ldr	r3, [r3, #32]
 8001d3c:	4619      	mov	r1, r3
 8001d3e:	4610      	mov	r0, r2
 8001d40:	f7fe fdbc 	bl	80008bc <canardRxToIdx>
 8001d44:	4602      	mov	r2, r0
 8001d46:	68fb      	ldr	r3, [r7, #12]
 8001d48:	601a      	str	r2, [r3, #0]
    ins->rx_states = state;
 8001d4a:	687b      	ldr	r3, [r7, #4]
 8001d4c:	68fa      	ldr	r2, [r7, #12]
 8001d4e:	621a      	str	r2, [r3, #32]
    return state;
 8001d50:	68fb      	ldr	r3, [r7, #12]
}
 8001d52:	4618      	mov	r0, r3
 8001d54:	3710      	adds	r7, #16
 8001d56:	46bd      	mov	sp, r7
 8001d58:	bd80      	pop	{r7, pc}

08001d5a <createRxState>:

CANARD_INTERNAL CanardRxState* createRxState(CanardPoolAllocator* allocator, uint32_t transfer_descriptor)
{
 8001d5a:	b580      	push	{r7, lr}
 8001d5c:	b08c      	sub	sp, #48	@ 0x30
 8001d5e:	af00      	add	r7, sp, #0
 8001d60:	6078      	str	r0, [r7, #4]
 8001d62:	6039      	str	r1, [r7, #0]
    CanardRxState init = {
 8001d64:	f107 0308 	add.w	r3, r7, #8
 8001d68:	2220      	movs	r2, #32
 8001d6a:	2100      	movs	r1, #0
 8001d6c:	4618      	mov	r0, r3
 8001d6e:	f005 fdf6 	bl	800795e <memset>
 8001d72:	683b      	ldr	r3, [r7, #0]
 8001d74:	61bb      	str	r3, [r7, #24]
        .next = CANARD_BUFFER_IDX_NONE,
        .buffer_blocks = CANARD_BUFFER_IDX_NONE,
        .dtid_tt_snid_dnid = transfer_descriptor
    };

    CanardRxState* state = (CanardRxState*) allocateBlock(allocator);
 8001d76:	6878      	ldr	r0, [r7, #4]
 8001d78:	f000 fbb6 	bl	80024e8 <allocateBlock>
 8001d7c:	62f8      	str	r0, [r7, #44]	@ 0x2c
    if (state == NULL)
 8001d7e:	6afb      	ldr	r3, [r7, #44]	@ 0x2c
 8001d80:	2b00      	cmp	r3, #0
 8001d82:	d101      	bne.n	8001d88 <createRxState+0x2e>
    {
        return NULL;
 8001d84:	2300      	movs	r3, #0
 8001d86:	e007      	b.n	8001d98 <createRxState+0x3e>
    }
    memcpy(state, &init, sizeof(*state));
 8001d88:	f107 0308 	add.w	r3, r7, #8
 8001d8c:	2220      	movs	r2, #32
 8001d8e:	4619      	mov	r1, r3
 8001d90:	6af8      	ldr	r0, [r7, #44]	@ 0x2c
 8001d92:	f005 fe72 	bl	8007a7a <memcpy>

    return state;
 8001d96:	6afb      	ldr	r3, [r7, #44]	@ 0x2c
}
 8001d98:	4618      	mov	r0, r3
 8001d9a:	3730      	adds	r7, #48	@ 0x30
 8001d9c:	46bd      	mov	sp, r7
 8001d9e:	bd80      	pop	{r7, pc}

08001da0 <releaseStatePayload>:

CANARD_INTERNAL uint64_t releaseStatePayload(CanardInstance* ins, CanardRxState* rxstate)
{
 8001da0:	b580      	push	{r7, lr}
 8001da2:	b084      	sub	sp, #16
 8001da4:	af00      	add	r7, sp, #0
 8001da6:	6078      	str	r0, [r7, #4]
 8001da8:	6039      	str	r1, [r7, #0]
    while (rxstate->buffer_blocks != CANARD_BUFFER_IDX_NONE)
 8001daa:	e01b      	b.n	8001de4 <releaseStatePayload+0x44>
    {
        CanardBufferBlock* block = canardBufferFromIdx(&ins->allocator, rxstate->buffer_blocks);
 8001dac:	687b      	ldr	r3, [r7, #4]
 8001dae:	f103 020c 	add.w	r2, r3, #12
 8001db2:	683b      	ldr	r3, [r7, #0]
 8001db4:	685b      	ldr	r3, [r3, #4]
 8001db6:	4619      	mov	r1, r3
 8001db8:	4610      	mov	r0, r2
 8001dba:	f7fe fd5b 	bl	8000874 <canardBufferFromIdx>
 8001dbe:	60f8      	str	r0, [r7, #12]
        CanardBufferBlock* const temp = block->next;
 8001dc0:	68fb      	ldr	r3, [r7, #12]
 8001dc2:	681b      	ldr	r3, [r3, #0]
 8001dc4:	60bb      	str	r3, [r7, #8]
        freeBlock(&ins->allocator, block);
 8001dc6:	687b      	ldr	r3, [r7, #4]
 8001dc8:	330c      	adds	r3, #12
 8001dca:	68f9      	ldr	r1, [r7, #12]
 8001dcc:	4618      	mov	r0, r3
 8001dce:	f000 fbb4 	bl	800253a <freeBlock>
        rxstate->buffer_blocks = canardBufferToIdx(&ins->allocator, temp);
 8001dd2:	687b      	ldr	r3, [r7, #4]
 8001dd4:	330c      	adds	r3, #12
 8001dd6:	68b9      	ldr	r1, [r7, #8]
 8001dd8:	4618      	mov	r0, r3
 8001dda:	f7fe fd57 	bl	800088c <canardBufferToIdx>
 8001dde:	4602      	mov	r2, r0
 8001de0:	683b      	ldr	r3, [r7, #0]
 8001de2:	605a      	str	r2, [r3, #4]
    while (rxstate->buffer_blocks != CANARD_BUFFER_IDX_NONE)
 8001de4:	683b      	ldr	r3, [r7, #0]
 8001de6:	685b      	ldr	r3, [r3, #4]
 8001de8:	2b00      	cmp	r3, #0
 8001dea:	d1df      	bne.n	8001dac <releaseStatePayload+0xc>
    }
    rxstate->payload_len = 0;
 8001dec:	683a      	ldr	r2, [r7, #0]
 8001dee:	8ad3      	ldrh	r3, [r2, #22]
 8001df0:	f36f 0309 	bfc	r3, #0, #10
 8001df4:	82d3      	strh	r3, [r2, #22]
    return CANARD_OK;
 8001df6:	f04f 0200 	mov.w	r2, #0
 8001dfa:	f04f 0300 	mov.w	r3, #0
}
 8001dfe:	4610      	mov	r0, r2
 8001e00:	4619      	mov	r1, r3
 8001e02:	3710      	adds	r7, #16
 8001e04:	46bd      	mov	sp, r7
 8001e06:	bd80      	pop	{r7, pc}

08001e08 <bufferBlockPushBytes>:
 */
CANARD_INTERNAL int16_t bufferBlockPushBytes(CanardPoolAllocator* allocator,
                                             CanardRxState* state,
                                             const uint8_t* data,
                                             uint8_t data_len)
{
 8001e08:	b580      	push	{r7, lr}
 8001e0a:	b08a      	sub	sp, #40	@ 0x28
 8001e0c:	af00      	add	r7, sp, #0
 8001e0e:	60f8      	str	r0, [r7, #12]
 8001e10:	60b9      	str	r1, [r7, #8]
 8001e12:	607a      	str	r2, [r7, #4]
 8001e14:	70fb      	strb	r3, [r7, #3]
    uint16_t data_index = 0;
 8001e16:	2300      	movs	r3, #0
 8001e18:	84fb      	strh	r3, [r7, #38]	@ 0x26

    // if head is not full, add data to head
    if ((CANARD_MULTIFRAME_RX_PAYLOAD_HEAD_SIZE - state->payload_len) > 0)
 8001e1a:	68bb      	ldr	r3, [r7, #8]
 8001e1c:	8adb      	ldrh	r3, [r3, #22]
 8001e1e:	f3c3 0309 	ubfx	r3, r3, #0, #10
 8001e22:	b29b      	uxth	r3, r3
 8001e24:	2b05      	cmp	r3, #5
 8001e26:	d036      	beq.n	8001e96 <bufferBlockPushBytes+0x8e>
    {
        for (uint16_t i = (uint16_t)state->payload_len;
 8001e28:	68bb      	ldr	r3, [r7, #8]
 8001e2a:	8adb      	ldrh	r3, [r3, #22]
 8001e2c:	f3c3 0309 	ubfx	r3, r3, #0, #10
 8001e30:	b29b      	uxth	r3, r3
 8001e32:	84bb      	strh	r3, [r7, #36]	@ 0x24
 8001e34:	e00e      	b.n	8001e54 <bufferBlockPushBytes+0x4c>
             i < CANARD_MULTIFRAME_RX_PAYLOAD_HEAD_SIZE && data_index < data_len;
             i++, data_index++)
        {
            state->buffer_head[i] = data[data_index];
 8001e36:	8cfb      	ldrh	r3, [r7, #38]	@ 0x26
 8001e38:	687a      	ldr	r2, [r7, #4]
 8001e3a:	441a      	add	r2, r3
 8001e3c:	8cbb      	ldrh	r3, [r7, #36]	@ 0x24
 8001e3e:	7811      	ldrb	r1, [r2, #0]
 8001e40:	68ba      	ldr	r2, [r7, #8]
 8001e42:	4413      	add	r3, r2
 8001e44:	460a      	mov	r2, r1
 8001e46:	76da      	strb	r2, [r3, #27]
             i++, data_index++)
 8001e48:	8cbb      	ldrh	r3, [r7, #36]	@ 0x24
 8001e4a:	3301      	adds	r3, #1
 8001e4c:	84bb      	strh	r3, [r7, #36]	@ 0x24
 8001e4e:	8cfb      	ldrh	r3, [r7, #38]	@ 0x26
 8001e50:	3301      	adds	r3, #1
 8001e52:	84fb      	strh	r3, [r7, #38]	@ 0x26
             i < CANARD_MULTIFRAME_RX_PAYLOAD_HEAD_SIZE && data_index < data_len;
 8001e54:	8cbb      	ldrh	r3, [r7, #36]	@ 0x24
 8001e56:	2b04      	cmp	r3, #4
 8001e58:	d804      	bhi.n	8001e64 <bufferBlockPushBytes+0x5c>
 8001e5a:	78fb      	ldrb	r3, [r7, #3]
 8001e5c:	b29b      	uxth	r3, r3
 8001e5e:	8cfa      	ldrh	r2, [r7, #38]	@ 0x26
 8001e60:	429a      	cmp	r2, r3
 8001e62:	d3e8      	bcc.n	8001e36 <bufferBlockPushBytes+0x2e>
        }
        if (data_index >= data_len)
 8001e64:	78fb      	ldrb	r3, [r7, #3]
 8001e66:	b29b      	uxth	r3, r3
 8001e68:	8cfa      	ldrh	r2, [r7, #38]	@ 0x26
 8001e6a:	429a      	cmp	r2, r3
 8001e6c:	d313      	bcc.n	8001e96 <bufferBlockPushBytes+0x8e>
        {
            state->payload_len =
                (uint16_t)(state->payload_len + data_len) & ((1U << CANARD_TRANSFER_PAYLOAD_LEN_BITS) - 1U);
 8001e6e:	68bb      	ldr	r3, [r7, #8]
 8001e70:	8adb      	ldrh	r3, [r3, #22]
 8001e72:	f3c3 0309 	ubfx	r3, r3, #0, #10
 8001e76:	b29b      	uxth	r3, r3
 8001e78:	461a      	mov	r2, r3
 8001e7a:	78fb      	ldrb	r3, [r7, #3]
 8001e7c:	b29b      	uxth	r3, r3
 8001e7e:	4413      	add	r3, r2
 8001e80:	b29b      	uxth	r3, r3
 8001e82:	f3c3 0309 	ubfx	r3, r3, #0, #10
 8001e86:	b299      	uxth	r1, r3
            state->payload_len =
 8001e88:	68ba      	ldr	r2, [r7, #8]
 8001e8a:	8ad3      	ldrh	r3, [r2, #22]
 8001e8c:	f361 0309 	bfi	r3, r1, #0, #10
 8001e90:	82d3      	strh	r3, [r2, #22]
            return 1;
 8001e92:	2301      	movs	r3, #1
 8001e94:	e0ae      	b.n	8001ff4 <bufferBlockPushBytes+0x1ec>
        }
    } // head is full.

    uint16_t index_at_nth_block =
        (uint16_t)(((state->payload_len) - CANARD_MULTIFRAME_RX_PAYLOAD_HEAD_SIZE) % CANARD_BUFFER_BLOCK_DATA_SIZE);
 8001e96:	68bb      	ldr	r3, [r7, #8]
 8001e98:	8adb      	ldrh	r3, [r3, #22]
 8001e9a:	f3c3 0309 	ubfx	r3, r3, #0, #10
 8001e9e:	b29b      	uxth	r3, r3
 8001ea0:	1f5a      	subs	r2, r3, #5
 8001ea2:	0893      	lsrs	r3, r2, #2
 8001ea4:	4955      	ldr	r1, [pc, #340]	@ (8001ffc <bufferBlockPushBytes+0x1f4>)
 8001ea6:	fba1 3103 	umull	r3, r1, r1, r3
 8001eaa:	460b      	mov	r3, r1
 8001eac:	00db      	lsls	r3, r3, #3
 8001eae:	1a5b      	subs	r3, r3, r1
 8001eb0:	009b      	lsls	r3, r3, #2
 8001eb2:	1ad3      	subs	r3, r2, r3
    uint16_t index_at_nth_block =
 8001eb4:	847b      	strh	r3, [r7, #34]	@ 0x22

    // get to current block
    CanardBufferBlock* block = NULL;
 8001eb6:	2300      	movs	r3, #0
 8001eb8:	61fb      	str	r3, [r7, #28]

    // buffer blocks uninitialized
    if (state->buffer_blocks == CANARD_BUFFER_IDX_NONE)
 8001eba:	68bb      	ldr	r3, [r7, #8]
 8001ebc:	685b      	ldr	r3, [r3, #4]
 8001ebe:	2b00      	cmp	r3, #0
 8001ec0:	d113      	bne.n	8001eea <bufferBlockPushBytes+0xe2>
    {
        block = createBufferBlock(allocator);
 8001ec2:	68f8      	ldr	r0, [r7, #12]
 8001ec4:	f000 f89c 	bl	8002000 <createBufferBlock>
 8001ec8:	61f8      	str	r0, [r7, #28]
        state->buffer_blocks = canardBufferToIdx(allocator, block);
 8001eca:	69f9      	ldr	r1, [r7, #28]
 8001ecc:	68f8      	ldr	r0, [r7, #12]
 8001ece:	f7fe fcdd 	bl	800088c <canardBufferToIdx>
 8001ed2:	4602      	mov	r2, r0
 8001ed4:	68bb      	ldr	r3, [r7, #8]
 8001ed6:	605a      	str	r2, [r3, #4]
        if (block == NULL)
 8001ed8:	69fb      	ldr	r3, [r7, #28]
 8001eda:	2b00      	cmp	r3, #0
 8001edc:	d102      	bne.n	8001ee4 <bufferBlockPushBytes+0xdc>
        {
            return -CANARD_ERROR_OUT_OF_MEMORY;
 8001ede:	f06f 0302 	mvn.w	r3, #2
 8001ee2:	e087      	b.n	8001ff4 <bufferBlockPushBytes+0x1ec>
        }

        index_at_nth_block = 0;
 8001ee4:	2300      	movs	r3, #0
 8001ee6:	847b      	strh	r3, [r7, #34]	@ 0x22
 8001ee8:	e06c      	b.n	8001fc4 <bufferBlockPushBytes+0x1bc>
    }
    else
    {
        uint16_t nth_block = 1;
 8001eea:	2301      	movs	r3, #1
 8001eec:	837b      	strh	r3, [r7, #26]

        // get to block
        block = canardBufferFromIdx(allocator, state->buffer_blocks);
 8001eee:	68bb      	ldr	r3, [r7, #8]
 8001ef0:	685b      	ldr	r3, [r3, #4]
 8001ef2:	4619      	mov	r1, r3
 8001ef4:	68f8      	ldr	r0, [r7, #12]
 8001ef6:	f7fe fcbd 	bl	8000874 <canardBufferFromIdx>
 8001efa:	61f8      	str	r0, [r7, #28]
        while (block->next != NULL)
 8001efc:	e005      	b.n	8001f0a <bufferBlockPushBytes+0x102>
        {
            nth_block++;
 8001efe:	8b7b      	ldrh	r3, [r7, #26]
 8001f00:	3301      	adds	r3, #1
 8001f02:	837b      	strh	r3, [r7, #26]
            block = block->next;
 8001f04:	69fb      	ldr	r3, [r7, #28]
 8001f06:	681b      	ldr	r3, [r3, #0]
 8001f08:	61fb      	str	r3, [r7, #28]
        while (block->next != NULL)
 8001f0a:	69fb      	ldr	r3, [r7, #28]
 8001f0c:	681b      	ldr	r3, [r3, #0]
 8001f0e:	2b00      	cmp	r3, #0
 8001f10:	d1f5      	bne.n	8001efe <bufferBlockPushBytes+0xf6>
        }

        const uint16_t num_buffer_blocks =
            (uint16_t) (((((uint32_t)state->payload_len + data_len) - CANARD_MULTIFRAME_RX_PAYLOAD_HEAD_SIZE) /
 8001f12:	68bb      	ldr	r3, [r7, #8]
 8001f14:	8adb      	ldrh	r3, [r3, #22]
 8001f16:	f3c3 0309 	ubfx	r3, r3, #0, #10
 8001f1a:	b29b      	uxth	r3, r3
 8001f1c:	461a      	mov	r2, r3
 8001f1e:	78fb      	ldrb	r3, [r7, #3]
 8001f20:	4413      	add	r3, r2
 8001f22:	3b05      	subs	r3, #5
 8001f24:	089b      	lsrs	r3, r3, #2
 8001f26:	4a35      	ldr	r2, [pc, #212]	@ (8001ffc <bufferBlockPushBytes+0x1f4>)
 8001f28:	fba2 2303 	umull	r2, r3, r2, r3
 8001f2c:	b29b      	uxth	r3, r3
        const uint16_t num_buffer_blocks =
 8001f2e:	3301      	adds	r3, #1
 8001f30:	82fb      	strh	r3, [r7, #22]
                         CANARD_BUFFER_BLOCK_DATA_SIZE) + 1U);

        if (num_buffer_blocks > nth_block && index_at_nth_block == 0)
 8001f32:	8afa      	ldrh	r2, [r7, #22]
 8001f34:	8b7b      	ldrh	r3, [r7, #26]
 8001f36:	429a      	cmp	r2, r3
 8001f38:	d944      	bls.n	8001fc4 <bufferBlockPushBytes+0x1bc>
 8001f3a:	8c7b      	ldrh	r3, [r7, #34]	@ 0x22
 8001f3c:	2b00      	cmp	r3, #0
 8001f3e:	d141      	bne.n	8001fc4 <bufferBlockPushBytes+0x1bc>
        {
            block->next = createBufferBlock(allocator);
 8001f40:	68f8      	ldr	r0, [r7, #12]
 8001f42:	f000 f85d 	bl	8002000 <createBufferBlock>
 8001f46:	4602      	mov	r2, r0
 8001f48:	69fb      	ldr	r3, [r7, #28]
 8001f4a:	601a      	str	r2, [r3, #0]
            if (block->next == NULL)
 8001f4c:	69fb      	ldr	r3, [r7, #28]
 8001f4e:	681b      	ldr	r3, [r3, #0]
 8001f50:	2b00      	cmp	r3, #0
 8001f52:	d102      	bne.n	8001f5a <bufferBlockPushBytes+0x152>
            {
                return -CANARD_ERROR_OUT_OF_MEMORY;
 8001f54:	f06f 0302 	mvn.w	r3, #2
 8001f58:	e04c      	b.n	8001ff4 <bufferBlockPushBytes+0x1ec>
            }
            block = block->next;
 8001f5a:	69fb      	ldr	r3, [r7, #28]
 8001f5c:	681b      	ldr	r3, [r3, #0]
 8001f5e:	61fb      	str	r3, [r7, #28]
        }
    }

    // add data to current block until it becomes full, add new block if necessary
    while (data_index < data_len)
 8001f60:	e030      	b.n	8001fc4 <bufferBlockPushBytes+0x1bc>
    {
        for (uint16_t i = index_at_nth_block;
 8001f62:	8c7b      	ldrh	r3, [r7, #34]	@ 0x22
 8001f64:	833b      	strh	r3, [r7, #24]
 8001f66:	e00e      	b.n	8001f86 <bufferBlockPushBytes+0x17e>
             i < CANARD_BUFFER_BLOCK_DATA_SIZE && data_index < data_len;
             i++, data_index++)
        {
            block->data[i] = data[data_index];
 8001f68:	8cfb      	ldrh	r3, [r7, #38]	@ 0x26
 8001f6a:	687a      	ldr	r2, [r7, #4]
 8001f6c:	441a      	add	r2, r3
 8001f6e:	8b3b      	ldrh	r3, [r7, #24]
 8001f70:	7811      	ldrb	r1, [r2, #0]
 8001f72:	69fa      	ldr	r2, [r7, #28]
 8001f74:	4413      	add	r3, r2
 8001f76:	460a      	mov	r2, r1
 8001f78:	711a      	strb	r2, [r3, #4]
             i++, data_index++)
 8001f7a:	8b3b      	ldrh	r3, [r7, #24]
 8001f7c:	3301      	adds	r3, #1
 8001f7e:	833b      	strh	r3, [r7, #24]
 8001f80:	8cfb      	ldrh	r3, [r7, #38]	@ 0x26
 8001f82:	3301      	adds	r3, #1
 8001f84:	84fb      	strh	r3, [r7, #38]	@ 0x26
             i < CANARD_BUFFER_BLOCK_DATA_SIZE && data_index < data_len;
 8001f86:	8b3b      	ldrh	r3, [r7, #24]
 8001f88:	2b1b      	cmp	r3, #27
 8001f8a:	d804      	bhi.n	8001f96 <bufferBlockPushBytes+0x18e>
 8001f8c:	78fb      	ldrb	r3, [r7, #3]
 8001f8e:	b29b      	uxth	r3, r3
 8001f90:	8cfa      	ldrh	r2, [r7, #38]	@ 0x26
 8001f92:	429a      	cmp	r2, r3
 8001f94:	d3e8      	bcc.n	8001f68 <bufferBlockPushBytes+0x160>
        }

        if (data_index < data_len)
 8001f96:	78fb      	ldrb	r3, [r7, #3]
 8001f98:	b29b      	uxth	r3, r3
 8001f9a:	8cfa      	ldrh	r2, [r7, #38]	@ 0x26
 8001f9c:	429a      	cmp	r2, r3
 8001f9e:	d211      	bcs.n	8001fc4 <bufferBlockPushBytes+0x1bc>
        {
            block->next = createBufferBlock(allocator);
 8001fa0:	68f8      	ldr	r0, [r7, #12]
 8001fa2:	f000 f82d 	bl	8002000 <createBufferBlock>
 8001fa6:	4602      	mov	r2, r0
 8001fa8:	69fb      	ldr	r3, [r7, #28]
 8001faa:	601a      	str	r2, [r3, #0]
            if (block->next == NULL)
 8001fac:	69fb      	ldr	r3, [r7, #28]
 8001fae:	681b      	ldr	r3, [r3, #0]
 8001fb0:	2b00      	cmp	r3, #0
 8001fb2:	d102      	bne.n	8001fba <bufferBlockPushBytes+0x1b2>
            {
                return -CANARD_ERROR_OUT_OF_MEMORY;
 8001fb4:	f06f 0302 	mvn.w	r3, #2
 8001fb8:	e01c      	b.n	8001ff4 <bufferBlockPushBytes+0x1ec>
            }
            block = block->next;
 8001fba:	69fb      	ldr	r3, [r7, #28]
 8001fbc:	681b      	ldr	r3, [r3, #0]
 8001fbe:	61fb      	str	r3, [r7, #28]
            index_at_nth_block = 0;
 8001fc0:	2300      	movs	r3, #0
 8001fc2:	847b      	strh	r3, [r7, #34]	@ 0x22
    while (data_index < data_len)
 8001fc4:	78fb      	ldrb	r3, [r7, #3]
 8001fc6:	b29b      	uxth	r3, r3
 8001fc8:	8cfa      	ldrh	r2, [r7, #38]	@ 0x26
 8001fca:	429a      	cmp	r2, r3
 8001fcc:	d3c9      	bcc.n	8001f62 <bufferBlockPushBytes+0x15a>
        }
    }

    state->payload_len = (uint16_t)(state->payload_len + data_len) & ((1U << CANARD_TRANSFER_PAYLOAD_LEN_BITS) - 1U);
 8001fce:	68bb      	ldr	r3, [r7, #8]
 8001fd0:	8adb      	ldrh	r3, [r3, #22]
 8001fd2:	f3c3 0309 	ubfx	r3, r3, #0, #10
 8001fd6:	b29b      	uxth	r3, r3
 8001fd8:	461a      	mov	r2, r3
 8001fda:	78fb      	ldrb	r3, [r7, #3]
 8001fdc:	b29b      	uxth	r3, r3
 8001fde:	4413      	add	r3, r2
 8001fe0:	b29b      	uxth	r3, r3
 8001fe2:	f3c3 0309 	ubfx	r3, r3, #0, #10
 8001fe6:	b299      	uxth	r1, r3
 8001fe8:	68ba      	ldr	r2, [r7, #8]
 8001fea:	8ad3      	ldrh	r3, [r2, #22]
 8001fec:	f361 0309 	bfi	r3, r1, #0, #10
 8001ff0:	82d3      	strh	r3, [r2, #22]

    return 1;
 8001ff2:	2301      	movs	r3, #1
}
 8001ff4:	4618      	mov	r0, r3
 8001ff6:	3728      	adds	r7, #40	@ 0x28
 8001ff8:	46bd      	mov	sp, r7
 8001ffa:	bd80      	pop	{r7, pc}
 8001ffc:	24924925 	.word	0x24924925

08002000 <createBufferBlock>:

CANARD_INTERNAL CanardBufferBlock* createBufferBlock(CanardPoolAllocator* allocator)
{
 8002000:	b580      	push	{r7, lr}
 8002002:	b084      	sub	sp, #16
 8002004:	af00      	add	r7, sp, #0
 8002006:	6078      	str	r0, [r7, #4]
    CanardBufferBlock* block = (CanardBufferBlock*) allocateBlock(allocator);
 8002008:	6878      	ldr	r0, [r7, #4]
 800200a:	f000 fa6d 	bl	80024e8 <allocateBlock>
 800200e:	60f8      	str	r0, [r7, #12]
    if (block == NULL)
 8002010:	68fb      	ldr	r3, [r7, #12]
 8002012:	2b00      	cmp	r3, #0
 8002014:	d101      	bne.n	800201a <createBufferBlock+0x1a>
    {
        return NULL;
 8002016:	2300      	movs	r3, #0
 8002018:	e003      	b.n	8002022 <createBufferBlock+0x22>
    }
    block->next = NULL;
 800201a:	68fb      	ldr	r3, [r7, #12]
 800201c:	2200      	movs	r2, #0
 800201e:	601a      	str	r2, [r3, #0]
    return block;
 8002020:	68fb      	ldr	r3, [r7, #12]
}
 8002022:	4618      	mov	r0, r3
 8002024:	3710      	adds	r7, #16
 8002026:	46bd      	mov	sp, r7
 8002028:	bd80      	pop	{r7, pc}

0800202a <copyBitArray>:
/**
 * Bit array copy routine, originally developed by Ben Dyer for Libuavcan. Thanks Ben.
 */
void copyBitArray(const uint8_t* src, uint32_t src_offset, uint32_t src_len,
                        uint8_t* dst, uint32_t dst_offset)
{
 800202a:	b480      	push	{r7}
 800202c:	b089      	sub	sp, #36	@ 0x24
 800202e:	af00      	add	r7, sp, #0
 8002030:	60f8      	str	r0, [r7, #12]
 8002032:	60b9      	str	r1, [r7, #8]
 8002034:	607a      	str	r2, [r7, #4]
 8002036:	603b      	str	r3, [r7, #0]
    CANARD_ASSERT(src_len > 0U);

    // Normalizing inputs
    src += src_offset / 8U;
 8002038:	68bb      	ldr	r3, [r7, #8]
 800203a:	08db      	lsrs	r3, r3, #3
 800203c:	68fa      	ldr	r2, [r7, #12]
 800203e:	4413      	add	r3, r2
 8002040:	60fb      	str	r3, [r7, #12]
    dst += dst_offset / 8U;
 8002042:	6abb      	ldr	r3, [r7, #40]	@ 0x28
 8002044:	08db      	lsrs	r3, r3, #3
 8002046:	683a      	ldr	r2, [r7, #0]
 8002048:	4413      	add	r3, r2
 800204a:	603b      	str	r3, [r7, #0]

    src_offset %= 8U;
 800204c:	68bb      	ldr	r3, [r7, #8]
 800204e:	f003 0307 	and.w	r3, r3, #7
 8002052:	60bb      	str	r3, [r7, #8]
    dst_offset %= 8U;
 8002054:	6abb      	ldr	r3, [r7, #40]	@ 0x28
 8002056:	f003 0307 	and.w	r3, r3, #7
 800205a:	62bb      	str	r3, [r7, #40]	@ 0x28

    const size_t last_bit = src_offset + src_len;
 800205c:	68ba      	ldr	r2, [r7, #8]
 800205e:	687b      	ldr	r3, [r7, #4]
 8002060:	4413      	add	r3, r2
 8002062:	61fb      	str	r3, [r7, #28]
    while (last_bit - src_offset)
 8002064:	e04d      	b.n	8002102 <copyBitArray+0xd8>
    {
        const uint8_t src_bit_offset = (uint8_t)(src_offset % 8U);
 8002066:	68bb      	ldr	r3, [r7, #8]
 8002068:	b2db      	uxtb	r3, r3
 800206a:	f003 0307 	and.w	r3, r3, #7
 800206e:	76fb      	strb	r3, [r7, #27]
        const uint8_t dst_bit_offset = (uint8_t)(dst_offset % 8U);
 8002070:	6abb      	ldr	r3, [r7, #40]	@ 0x28
 8002072:	b2db      	uxtb	r3, r3
 8002074:	f003 0307 	and.w	r3, r3, #7
 8002078:	76bb      	strb	r3, [r7, #26]

        const uint8_t max_offset = MAX(src_bit_offset, dst_bit_offset);
 800207a:	7eba      	ldrb	r2, [r7, #26]
 800207c:	7efb      	ldrb	r3, [r7, #27]
 800207e:	4293      	cmp	r3, r2
 8002080:	bf38      	it	cc
 8002082:	4613      	movcc	r3, r2
 8002084:	767b      	strb	r3, [r7, #25]
        const uint32_t copy_bits = (uint32_t)MIN(last_bit - src_offset, 8U - max_offset);
 8002086:	7e7b      	ldrb	r3, [r7, #25]
 8002088:	f1c3 0208 	rsb	r2, r3, #8
 800208c:	69f9      	ldr	r1, [r7, #28]
 800208e:	68bb      	ldr	r3, [r7, #8]
 8002090:	1acb      	subs	r3, r1, r3
 8002092:	4293      	cmp	r3, r2
 8002094:	bf28      	it	cs
 8002096:	4613      	movcs	r3, r2
 8002098:	617b      	str	r3, [r7, #20]
        const uint8_t src_data = (uint8_t)(((uint32_t)src[src_offset / 8U] << src_bit_offset) >> dst_bit_offset)&0xFF;

        dst[dst_offset / 8U] =
            (uint8_t)(((uint32_t)dst[dst_offset / 8U] & (uint32_t)~write_mask) | (uint32_t)(src_data & write_mask))&0xFF;
#else
        const uint8_t write_mask = (uint8_t)((uint8_t)(0xFF00U >> copy_bits) >> dst_bit_offset);
 800209a:	f44f 427f 	mov.w	r2, #65280	@ 0xff00
 800209e:	697b      	ldr	r3, [r7, #20]
 80020a0:	fa22 f303 	lsr.w	r3, r2, r3
 80020a4:	b2db      	uxtb	r3, r3
 80020a6:	461a      	mov	r2, r3
 80020a8:	7ebb      	ldrb	r3, [r7, #26]
 80020aa:	fa42 f303 	asr.w	r3, r2, r3
 80020ae:	74fb      	strb	r3, [r7, #19]
        const uint8_t src_data = (uint8_t)(((uint32_t)src[src_offset / 8U] << src_bit_offset) >> dst_bit_offset);
 80020b0:	68bb      	ldr	r3, [r7, #8]
 80020b2:	08db      	lsrs	r3, r3, #3
 80020b4:	68fa      	ldr	r2, [r7, #12]
 80020b6:	4413      	add	r3, r2
 80020b8:	781b      	ldrb	r3, [r3, #0]
 80020ba:	461a      	mov	r2, r3
 80020bc:	7efb      	ldrb	r3, [r7, #27]
 80020be:	409a      	lsls	r2, r3
 80020c0:	7ebb      	ldrb	r3, [r7, #26]
 80020c2:	fa22 f303 	lsr.w	r3, r2, r3
 80020c6:	74bb      	strb	r3, [r7, #18]

        dst[dst_offset / 8U] =
            (uint8_t)(((uint32_t)dst[dst_offset / 8U] & (uint32_t)~write_mask) | (uint32_t)(src_data & write_mask));
 80020c8:	6abb      	ldr	r3, [r7, #40]	@ 0x28
 80020ca:	08db      	lsrs	r3, r3, #3
 80020cc:	683a      	ldr	r2, [r7, #0]
 80020ce:	4413      	add	r3, r2
 80020d0:	781a      	ldrb	r2, [r3, #0]
 80020d2:	7cfb      	ldrb	r3, [r7, #19]
 80020d4:	43db      	mvns	r3, r3
 80020d6:	b2db      	uxtb	r3, r3
 80020d8:	4013      	ands	r3, r2
 80020da:	b2d9      	uxtb	r1, r3
 80020dc:	7cba      	ldrb	r2, [r7, #18]
 80020de:	7cfb      	ldrb	r3, [r7, #19]
 80020e0:	4013      	ands	r3, r2
 80020e2:	b2da      	uxtb	r2, r3
        dst[dst_offset / 8U] =
 80020e4:	6abb      	ldr	r3, [r7, #40]	@ 0x28
 80020e6:	08db      	lsrs	r3, r3, #3
 80020e8:	6838      	ldr	r0, [r7, #0]
 80020ea:	4403      	add	r3, r0
            (uint8_t)(((uint32_t)dst[dst_offset / 8U] & (uint32_t)~write_mask) | (uint32_t)(src_data & write_mask));
 80020ec:	430a      	orrs	r2, r1
 80020ee:	b2d2      	uxtb	r2, r2
        dst[dst_offset / 8U] =
 80020f0:	701a      	strb	r2, [r3, #0]
#endif

        src_offset += copy_bits;
 80020f2:	68ba      	ldr	r2, [r7, #8]
 80020f4:	697b      	ldr	r3, [r7, #20]
 80020f6:	4413      	add	r3, r2
 80020f8:	60bb      	str	r3, [r7, #8]
        dst_offset += copy_bits;
 80020fa:	6aba      	ldr	r2, [r7, #40]	@ 0x28
 80020fc:	697b      	ldr	r3, [r7, #20]
 80020fe:	4413      	add	r3, r2
 8002100:	62bb      	str	r3, [r7, #40]	@ 0x28
    while (last_bit - src_offset)
 8002102:	69fa      	ldr	r2, [r7, #28]
 8002104:	68bb      	ldr	r3, [r7, #8]
 8002106:	429a      	cmp	r2, r3
 8002108:	d1ad      	bne.n	8002066 <copyBitArray+0x3c>
    }
}
 800210a:	bf00      	nop
 800210c:	bf00      	nop
 800210e:	3724      	adds	r7, #36	@ 0x24
 8002110:	46bd      	mov	sp, r7
 8002112:	f85d 7b04 	ldr.w	r7, [sp], #4
 8002116:	4770      	bx	lr

08002118 <descatterTransferPayload>:

CANARD_INTERNAL int16_t descatterTransferPayload(const CanardRxTransfer* transfer,
                                                 uint32_t bit_offset,
                                                 uint8_t bit_length,
                                                 void* output)
{
 8002118:	b580      	push	{r7, lr}
 800211a:	b090      	sub	sp, #64	@ 0x40
 800211c:	af02      	add	r7, sp, #8
 800211e:	60f8      	str	r0, [r7, #12]
 8002120:	60b9      	str	r1, [r7, #8]
 8002122:	603b      	str	r3, [r7, #0]
 8002124:	4613      	mov	r3, r2
 8002126:	71fb      	strb	r3, [r7, #7]
    CANARD_ASSERT(transfer != 0);

    if (bit_offset >= transfer->payload_len * 8)
 8002128:	68fb      	ldr	r3, [r7, #12]
 800212a:	8a9b      	ldrh	r3, [r3, #20]
 800212c:	00db      	lsls	r3, r3, #3
 800212e:	461a      	mov	r2, r3
 8002130:	68bb      	ldr	r3, [r7, #8]
 8002132:	4293      	cmp	r3, r2
 8002134:	d301      	bcc.n	800213a <descatterTransferPayload+0x22>
    {
        return 0;       // Out of range, reading zero bits
 8002136:	2300      	movs	r3, #0
 8002138:	e0df      	b.n	80022fa <descatterTransferPayload+0x1e2>
    }

    if (bit_offset + bit_length > transfer->payload_len * 8)
 800213a:	79fa      	ldrb	r2, [r7, #7]
 800213c:	68bb      	ldr	r3, [r7, #8]
 800213e:	4413      	add	r3, r2
 8002140:	68fa      	ldr	r2, [r7, #12]
 8002142:	8a92      	ldrh	r2, [r2, #20]
 8002144:	00d2      	lsls	r2, r2, #3
 8002146:	4293      	cmp	r3, r2
 8002148:	d908      	bls.n	800215c <descatterTransferPayload+0x44>
    {
        bit_length = (uint8_t)(transfer->payload_len * 8U - bit_offset);
 800214a:	68fb      	ldr	r3, [r7, #12]
 800214c:	8a9b      	ldrh	r3, [r3, #20]
 800214e:	b2db      	uxtb	r3, r3
 8002150:	00db      	lsls	r3, r3, #3
 8002152:	b2da      	uxtb	r2, r3
 8002154:	68bb      	ldr	r3, [r7, #8]
 8002156:	b2db      	uxtb	r3, r3
 8002158:	1ad3      	subs	r3, r2, r3
 800215a:	71fb      	strb	r3, [r7, #7]
    }

    CANARD_ASSERT(bit_length > 0);

    if ((transfer->payload_middle != NULL) || (transfer->payload_tail != NULL)) // Multi frame
 800215c:	68fb      	ldr	r3, [r7, #12]
 800215e:	68db      	ldr	r3, [r3, #12]
 8002160:	2b00      	cmp	r3, #0
 8002162:	d104      	bne.n	800216e <descatterTransferPayload+0x56>
 8002164:	68fb      	ldr	r3, [r7, #12]
 8002166:	691b      	ldr	r3, [r3, #16]
 8002168:	2b00      	cmp	r3, #0
 800216a:	f000 80b9 	beq.w	80022e0 <descatterTransferPayload+0x1c8>
        /*
         * This part is hideously complicated and probably should be redesigned.
         * The objective here is to copy the requested number of bits from scattered storage into the temporary
         * local storage. We go through great pains to ensure that all corner cases are handled correctly.
         */
        uint32_t input_bit_offset = bit_offset;
 800216e:	68bb      	ldr	r3, [r7, #8]
 8002170:	637b      	str	r3, [r7, #52]	@ 0x34
        uint8_t output_bit_offset = 0;
 8002172:	2300      	movs	r3, #0
 8002174:	f887 3033 	strb.w	r3, [r7, #51]	@ 0x33
        uint8_t remaining_bit_length = bit_length;
 8002178:	79fb      	ldrb	r3, [r7, #7]
 800217a:	f887 3032 	strb.w	r3, [r7, #50]	@ 0x32

        // Reading head
        if (input_bit_offset < CANARD_MULTIFRAME_RX_PAYLOAD_HEAD_SIZE * 8)
 800217e:	6b7b      	ldr	r3, [r7, #52]	@ 0x34
 8002180:	2b27      	cmp	r3, #39	@ 0x27
 8002182:	d82d      	bhi.n	80021e0 <descatterTransferPayload+0xc8>
        {
            const uint8_t amount = (uint8_t)MIN(remaining_bit_length,
 8002184:	f897 2032 	ldrb.w	r2, [r7, #50]	@ 0x32
 8002188:	6b7b      	ldr	r3, [r7, #52]	@ 0x34
 800218a:	f1c3 0328 	rsb	r3, r3, #40	@ 0x28
 800218e:	429a      	cmp	r2, r3
 8002190:	d305      	bcc.n	800219e <descatterTransferPayload+0x86>
 8002192:	6b7b      	ldr	r3, [r7, #52]	@ 0x34
 8002194:	b2db      	uxtb	r3, r3
 8002196:	f1c3 0328 	rsb	r3, r3, #40	@ 0x28
 800219a:	b2db      	uxtb	r3, r3
 800219c:	e001      	b.n	80021a2 <descatterTransferPayload+0x8a>
 800219e:	f897 3032 	ldrb.w	r3, [r7, #50]	@ 0x32
 80021a2:	f887 3023 	strb.w	r3, [r7, #35]	@ 0x23
                                                CANARD_MULTIFRAME_RX_PAYLOAD_HEAD_SIZE * 8U - input_bit_offset);

            copyBitArray(&transfer->payload_head[0], input_bit_offset, amount, (uint8_t*) output, 0);
 80021a6:	68fb      	ldr	r3, [r7, #12]
 80021a8:	6898      	ldr	r0, [r3, #8]
 80021aa:	f897 2023 	ldrb.w	r2, [r7, #35]	@ 0x23
 80021ae:	2300      	movs	r3, #0
 80021b0:	9300      	str	r3, [sp, #0]
 80021b2:	683b      	ldr	r3, [r7, #0]
 80021b4:	6b79      	ldr	r1, [r7, #52]	@ 0x34
 80021b6:	f7ff ff38 	bl	800202a <copyBitArray>

            input_bit_offset += amount;
 80021ba:	f897 3023 	ldrb.w	r3, [r7, #35]	@ 0x23
 80021be:	6b7a      	ldr	r2, [r7, #52]	@ 0x34
 80021c0:	4413      	add	r3, r2
 80021c2:	637b      	str	r3, [r7, #52]	@ 0x34
            output_bit_offset = (uint8_t)(output_bit_offset + amount);
 80021c4:	f897 2033 	ldrb.w	r2, [r7, #51]	@ 0x33
 80021c8:	f897 3023 	ldrb.w	r3, [r7, #35]	@ 0x23
 80021cc:	4413      	add	r3, r2
 80021ce:	f887 3033 	strb.w	r3, [r7, #51]	@ 0x33
            remaining_bit_length = (uint8_t)(remaining_bit_length - amount);
 80021d2:	f897 2032 	ldrb.w	r2, [r7, #50]	@ 0x32
 80021d6:	f897 3023 	ldrb.w	r3, [r7, #35]	@ 0x23
 80021da:	1ad3      	subs	r3, r2, r3
 80021dc:	f887 3032 	strb.w	r3, [r7, #50]	@ 0x32
        }

        // Reading middle
        uint32_t remaining_bits = (uint32_t)(transfer->payload_len * 8U - CANARD_MULTIFRAME_RX_PAYLOAD_HEAD_SIZE * 8U);
 80021e0:	68fb      	ldr	r3, [r7, #12]
 80021e2:	8a9b      	ldrh	r3, [r3, #20]
 80021e4:	f103 5300 	add.w	r3, r3, #536870912	@ 0x20000000
 80021e8:	3b05      	subs	r3, #5
 80021ea:	00db      	lsls	r3, r3, #3
 80021ec:	62fb      	str	r3, [r7, #44]	@ 0x2c
        uint32_t block_bit_offset = CANARD_MULTIFRAME_RX_PAYLOAD_HEAD_SIZE * 8U;
 80021ee:	2328      	movs	r3, #40	@ 0x28
 80021f0:	62bb      	str	r3, [r7, #40]	@ 0x28
        const CanardBufferBlock* block = transfer->payload_middle;
 80021f2:	68fb      	ldr	r3, [r7, #12]
 80021f4:	68db      	ldr	r3, [r3, #12]
 80021f6:	627b      	str	r3, [r7, #36]	@ 0x24

        while ((block != NULL) && (remaining_bit_length > 0))
 80021f8:	e044      	b.n	8002284 <descatterTransferPayload+0x16c>
        {
            CANARD_ASSERT(remaining_bits > 0);
            const uint32_t block_end_bit_offset = block_bit_offset + MIN(CANARD_BUFFER_BLOCK_DATA_SIZE * 8,
 80021fa:	6afb      	ldr	r3, [r7, #44]	@ 0x2c
 80021fc:	2be0      	cmp	r3, #224	@ 0xe0
 80021fe:	bf28      	it	cs
 8002200:	23e0      	movcs	r3, #224	@ 0xe0
 8002202:	6aba      	ldr	r2, [r7, #40]	@ 0x28
 8002204:	4413      	add	r3, r2
 8002206:	61fb      	str	r3, [r7, #28]
                                                                         remaining_bits);

            // Perform copy if we've reached the requested offset, otherwise jump over this block and try next
            if (block_end_bit_offset > input_bit_offset)
 8002208:	69fa      	ldr	r2, [r7, #28]
 800220a:	6b7b      	ldr	r3, [r7, #52]	@ 0x34
 800220c:	429a      	cmp	r2, r3
 800220e:	d92e      	bls.n	800226e <descatterTransferPayload+0x156>
            {
                const uint8_t amount = (uint8_t) MIN(remaining_bit_length, block_end_bit_offset - input_bit_offset);
 8002210:	f897 2032 	ldrb.w	r2, [r7, #50]	@ 0x32
 8002214:	69f9      	ldr	r1, [r7, #28]
 8002216:	6b7b      	ldr	r3, [r7, #52]	@ 0x34
 8002218:	1acb      	subs	r3, r1, r3
 800221a:	429a      	cmp	r2, r3
 800221c:	d306      	bcc.n	800222c <descatterTransferPayload+0x114>
 800221e:	69fb      	ldr	r3, [r7, #28]
 8002220:	b2da      	uxtb	r2, r3
 8002222:	6b7b      	ldr	r3, [r7, #52]	@ 0x34
 8002224:	b2db      	uxtb	r3, r3
 8002226:	1ad3      	subs	r3, r2, r3
 8002228:	b2db      	uxtb	r3, r3
 800222a:	e001      	b.n	8002230 <descatterTransferPayload+0x118>
 800222c:	f897 3032 	ldrb.w	r3, [r7, #50]	@ 0x32
 8002230:	76fb      	strb	r3, [r7, #27]

                CANARD_ASSERT(input_bit_offset >= block_bit_offset);
                const uint32_t bit_offset_within_block = input_bit_offset - block_bit_offset;
 8002232:	6b7a      	ldr	r2, [r7, #52]	@ 0x34
 8002234:	6abb      	ldr	r3, [r7, #40]	@ 0x28
 8002236:	1ad3      	subs	r3, r2, r3
 8002238:	617b      	str	r3, [r7, #20]

                copyBitArray(&block->data[0], bit_offset_within_block, amount, (uint8_t*) output, output_bit_offset);
 800223a:	6a7b      	ldr	r3, [r7, #36]	@ 0x24
 800223c:	1d18      	adds	r0, r3, #4
 800223e:	7efa      	ldrb	r2, [r7, #27]
 8002240:	f897 3033 	ldrb.w	r3, [r7, #51]	@ 0x33
 8002244:	9300      	str	r3, [sp, #0]
 8002246:	683b      	ldr	r3, [r7, #0]
 8002248:	6979      	ldr	r1, [r7, #20]
 800224a:	f7ff feee 	bl	800202a <copyBitArray>

                input_bit_offset += amount;
 800224e:	7efb      	ldrb	r3, [r7, #27]
 8002250:	6b7a      	ldr	r2, [r7, #52]	@ 0x34
 8002252:	4413      	add	r3, r2
 8002254:	637b      	str	r3, [r7, #52]	@ 0x34
                output_bit_offset = (uint8_t)(output_bit_offset + amount);
 8002256:	f897 2033 	ldrb.w	r2, [r7, #51]	@ 0x33
 800225a:	7efb      	ldrb	r3, [r7, #27]
 800225c:	4413      	add	r3, r2
 800225e:	f887 3033 	strb.w	r3, [r7, #51]	@ 0x33
                remaining_bit_length = (uint8_t)(remaining_bit_length - amount);
 8002262:	f897 2032 	ldrb.w	r2, [r7, #50]	@ 0x32
 8002266:	7efb      	ldrb	r3, [r7, #27]
 8002268:	1ad3      	subs	r3, r2, r3
 800226a:	f887 3032 	strb.w	r3, [r7, #50]	@ 0x32
            }

            CANARD_ASSERT(block_end_bit_offset > block_bit_offset);
            remaining_bits -= block_end_bit_offset - block_bit_offset;
 800226e:	6aba      	ldr	r2, [r7, #40]	@ 0x28
 8002270:	69fb      	ldr	r3, [r7, #28]
 8002272:	1ad3      	subs	r3, r2, r3
 8002274:	6afa      	ldr	r2, [r7, #44]	@ 0x2c
 8002276:	4413      	add	r3, r2
 8002278:	62fb      	str	r3, [r7, #44]	@ 0x2c
            block_bit_offset = block_end_bit_offset;
 800227a:	69fb      	ldr	r3, [r7, #28]
 800227c:	62bb      	str	r3, [r7, #40]	@ 0x28
            block = block->next;
 800227e:	6a7b      	ldr	r3, [r7, #36]	@ 0x24
 8002280:	681b      	ldr	r3, [r3, #0]
 8002282:	627b      	str	r3, [r7, #36]	@ 0x24
        while ((block != NULL) && (remaining_bit_length > 0))
 8002284:	6a7b      	ldr	r3, [r7, #36]	@ 0x24
 8002286:	2b00      	cmp	r3, #0
 8002288:	d003      	beq.n	8002292 <descatterTransferPayload+0x17a>
 800228a:	f897 3032 	ldrb.w	r3, [r7, #50]	@ 0x32
 800228e:	2b00      	cmp	r3, #0
 8002290:	d1b3      	bne.n	80021fa <descatterTransferPayload+0xe2>
        }

        CANARD_ASSERT(remaining_bit_length <= remaining_bits);

        // Reading tail
        if ((transfer->payload_tail != NULL) && (remaining_bit_length > 0))
 8002292:	68fb      	ldr	r3, [r7, #12]
 8002294:	691b      	ldr	r3, [r3, #16]
 8002296:	2b00      	cmp	r3, #0
 8002298:	d02c      	beq.n	80022f4 <descatterTransferPayload+0x1dc>
 800229a:	f897 3032 	ldrb.w	r3, [r7, #50]	@ 0x32
 800229e:	2b00      	cmp	r3, #0
 80022a0:	d028      	beq.n	80022f4 <descatterTransferPayload+0x1dc>
        {
            CANARD_ASSERT(input_bit_offset >= block_bit_offset);
            const uint32_t offset = input_bit_offset - block_bit_offset;
 80022a2:	6b7a      	ldr	r2, [r7, #52]	@ 0x34
 80022a4:	6abb      	ldr	r3, [r7, #40]	@ 0x28
 80022a6:	1ad3      	subs	r3, r2, r3
 80022a8:	613b      	str	r3, [r7, #16]

            copyBitArray(&transfer->payload_tail[0], offset, remaining_bit_length, (uint8_t*) output,
 80022aa:	68fb      	ldr	r3, [r7, #12]
 80022ac:	6918      	ldr	r0, [r3, #16]
 80022ae:	f897 2032 	ldrb.w	r2, [r7, #50]	@ 0x32
 80022b2:	f897 3033 	ldrb.w	r3, [r7, #51]	@ 0x33
 80022b6:	9300      	str	r3, [sp, #0]
 80022b8:	683b      	ldr	r3, [r7, #0]
 80022ba:	6939      	ldr	r1, [r7, #16]
 80022bc:	f7ff feb5 	bl	800202a <copyBitArray>
                         output_bit_offset);

            input_bit_offset += remaining_bit_length;
 80022c0:	f897 3032 	ldrb.w	r3, [r7, #50]	@ 0x32
 80022c4:	6b7a      	ldr	r2, [r7, #52]	@ 0x34
 80022c6:	4413      	add	r3, r2
 80022c8:	637b      	str	r3, [r7, #52]	@ 0x34
            output_bit_offset = (uint8_t)(output_bit_offset + remaining_bit_length);
 80022ca:	f897 2033 	ldrb.w	r2, [r7, #51]	@ 0x33
 80022ce:	f897 3032 	ldrb.w	r3, [r7, #50]	@ 0x32
 80022d2:	4413      	add	r3, r2
 80022d4:	f887 3033 	strb.w	r3, [r7, #51]	@ 0x33
            remaining_bit_length = 0;
 80022d8:	2300      	movs	r3, #0
 80022da:	f887 3032 	strb.w	r3, [r7, #50]	@ 0x32
    {
 80022de:	e009      	b.n	80022f4 <descatterTransferPayload+0x1dc>
        CANARD_ASSERT(output_bit_offset <= 64);
        CANARD_ASSERT(remaining_bit_length == 0);
    }
    else                                                                    // Single frame
    {
        copyBitArray(&transfer->payload_head[0], bit_offset, bit_length, (uint8_t*) output, 0);
 80022e0:	68fb      	ldr	r3, [r7, #12]
 80022e2:	6898      	ldr	r0, [r3, #8]
 80022e4:	79fa      	ldrb	r2, [r7, #7]
 80022e6:	2300      	movs	r3, #0
 80022e8:	9300      	str	r3, [sp, #0]
 80022ea:	683b      	ldr	r3, [r7, #0]
 80022ec:	68b9      	ldr	r1, [r7, #8]
 80022ee:	f7ff fe9c 	bl	800202a <copyBitArray>
 80022f2:	e000      	b.n	80022f6 <descatterTransferPayload+0x1de>
    {
 80022f4:	bf00      	nop
    }

    return bit_length;
 80022f6:	79fb      	ldrb	r3, [r7, #7]
 80022f8:	b21b      	sxth	r3, r3
}
 80022fa:	4618      	mov	r0, r3
 80022fc:	3738      	adds	r7, #56	@ 0x38
 80022fe:	46bd      	mov	sp, r7
 8002300:	bd80      	pop	{r7, pc}

08002302 <isBigEndian>:

CANARD_INTERNAL bool isBigEndian(void)
{
 8002302:	b480      	push	{r7}
 8002304:	b083      	sub	sp, #12
 8002306:	af00      	add	r7, sp, #0
#else
        uint16_t a;
        uint8_t b[2];
#endif
    } u;
    u.a = 1;
 8002308:	2301      	movs	r3, #1
 800230a:	80bb      	strh	r3, [r7, #4]
    return u.b[1] == 1;                             // Some don't...
 800230c:	797b      	ldrb	r3, [r7, #5]
 800230e:	2b01      	cmp	r3, #1
 8002310:	bf0c      	ite	eq
 8002312:	2301      	moveq	r3, #1
 8002314:	2300      	movne	r3, #0
 8002316:	b2db      	uxtb	r3, r3
#endif
}
 8002318:	4618      	mov	r0, r3
 800231a:	370c      	adds	r7, #12
 800231c:	46bd      	mov	sp, r7
 800231e:	f85d 7b04 	ldr.w	r7, [sp], #4
 8002322:	4770      	bx	lr

08002324 <swapByteOrder>:

CANARD_INTERNAL void swapByteOrder(void* data, unsigned size)
{
 8002324:	b480      	push	{r7}
 8002326:	b087      	sub	sp, #28
 8002328:	af00      	add	r7, sp, #0
 800232a:	6078      	str	r0, [r7, #4]
 800232c:	6039      	str	r1, [r7, #0]
    CANARD_ASSERT(data != NULL);

    uint8_t* const bytes = (uint8_t*) data;
 800232e:	687b      	ldr	r3, [r7, #4]
 8002330:	60fb      	str	r3, [r7, #12]

    size_t fwd = 0;
 8002332:	2300      	movs	r3, #0
 8002334:	617b      	str	r3, [r7, #20]
    size_t rev = size - 1;
 8002336:	683b      	ldr	r3, [r7, #0]
 8002338:	3b01      	subs	r3, #1
 800233a:	613b      	str	r3, [r7, #16]

    while (fwd < rev)
 800233c:	e017      	b.n	800236e <swapByteOrder+0x4a>
    {
        const uint8_t x = bytes[fwd];
 800233e:	68fa      	ldr	r2, [r7, #12]
 8002340:	697b      	ldr	r3, [r7, #20]
 8002342:	4413      	add	r3, r2
 8002344:	781b      	ldrb	r3, [r3, #0]
 8002346:	72fb      	strb	r3, [r7, #11]
        bytes[fwd] = bytes[rev];
 8002348:	68fa      	ldr	r2, [r7, #12]
 800234a:	693b      	ldr	r3, [r7, #16]
 800234c:	441a      	add	r2, r3
 800234e:	68f9      	ldr	r1, [r7, #12]
 8002350:	697b      	ldr	r3, [r7, #20]
 8002352:	440b      	add	r3, r1
 8002354:	7812      	ldrb	r2, [r2, #0]
 8002356:	701a      	strb	r2, [r3, #0]
        bytes[rev] = x;
 8002358:	68fa      	ldr	r2, [r7, #12]
 800235a:	693b      	ldr	r3, [r7, #16]
 800235c:	4413      	add	r3, r2
 800235e:	7afa      	ldrb	r2, [r7, #11]
 8002360:	701a      	strb	r2, [r3, #0]
        fwd++;
 8002362:	697b      	ldr	r3, [r7, #20]
 8002364:	3301      	adds	r3, #1
 8002366:	617b      	str	r3, [r7, #20]
        rev--;
 8002368:	693b      	ldr	r3, [r7, #16]
 800236a:	3b01      	subs	r3, #1
 800236c:	613b      	str	r3, [r7, #16]
    while (fwd < rev)
 800236e:	697a      	ldr	r2, [r7, #20]
 8002370:	693b      	ldr	r3, [r7, #16]
 8002372:	429a      	cmp	r2, r3
 8002374:	d3e3      	bcc.n	800233e <swapByteOrder+0x1a>
    }
}
 8002376:	bf00      	nop
 8002378:	bf00      	nop
 800237a:	371c      	adds	r7, #28
 800237c:	46bd      	mov	sp, r7
 800237e:	f85d 7b04 	ldr.w	r7, [sp], #4
 8002382:	4770      	bx	lr

08002384 <crcAddByte>:

/*
 * CRC functions
 */
CANARD_INTERNAL uint16_t crcAddByte(uint16_t crc_val, uint8_t byte)
{
 8002384:	b480      	push	{r7}
 8002386:	b085      	sub	sp, #20
 8002388:	af00      	add	r7, sp, #0
 800238a:	4603      	mov	r3, r0
 800238c:	460a      	mov	r2, r1
 800238e:	80fb      	strh	r3, [r7, #6]
 8002390:	4613      	mov	r3, r2
 8002392:	717b      	strb	r3, [r7, #5]
    crc_val ^= (uint16_t) ((uint16_t) (byte) << 8U);
 8002394:	797b      	ldrb	r3, [r7, #5]
 8002396:	b29b      	uxth	r3, r3
 8002398:	021b      	lsls	r3, r3, #8
 800239a:	b29a      	uxth	r2, r3
 800239c:	88fb      	ldrh	r3, [r7, #6]
 800239e:	4053      	eors	r3, r2
 80023a0:	80fb      	strh	r3, [r7, #6]
    for (uint8_t j = 0; j < 8; j++)
 80023a2:	2300      	movs	r3, #0
 80023a4:	73fb      	strb	r3, [r7, #15]
 80023a6:	e012      	b.n	80023ce <crcAddByte+0x4a>
    {
        if (crc_val & 0x8000U)
 80023a8:	f9b7 3006 	ldrsh.w	r3, [r7, #6]
 80023ac:	2b00      	cmp	r3, #0
 80023ae:	da08      	bge.n	80023c2 <crcAddByte+0x3e>
        {
            crc_val = (uint16_t) ((uint16_t) (crc_val << 1U) ^ 0x1021U);
 80023b0:	88fb      	ldrh	r3, [r7, #6]
 80023b2:	005b      	lsls	r3, r3, #1
 80023b4:	b29b      	uxth	r3, r3
 80023b6:	f483 5381 	eor.w	r3, r3, #4128	@ 0x1020
 80023ba:	f083 0301 	eor.w	r3, r3, #1
 80023be:	80fb      	strh	r3, [r7, #6]
 80023c0:	e002      	b.n	80023c8 <crcAddByte+0x44>
        }
        else
        {
            crc_val = (uint16_t) (crc_val << 1U);
 80023c2:	88fb      	ldrh	r3, [r7, #6]
 80023c4:	005b      	lsls	r3, r3, #1
 80023c6:	80fb      	strh	r3, [r7, #6]
    for (uint8_t j = 0; j < 8; j++)
 80023c8:	7bfb      	ldrb	r3, [r7, #15]
 80023ca:	3301      	adds	r3, #1
 80023cc:	73fb      	strb	r3, [r7, #15]
 80023ce:	7bfb      	ldrb	r3, [r7, #15]
 80023d0:	2b07      	cmp	r3, #7
 80023d2:	d9e9      	bls.n	80023a8 <crcAddByte+0x24>
        }
    }
    return crc_val;
 80023d4:	88fb      	ldrh	r3, [r7, #6]
}
 80023d6:	4618      	mov	r0, r3
 80023d8:	3714      	adds	r7, #20
 80023da:	46bd      	mov	sp, r7
 80023dc:	f85d 7b04 	ldr.w	r7, [sp], #4
 80023e0:	4770      	bx	lr

080023e2 <crcAddSignature>:

CANARD_INTERNAL uint16_t crcAddSignature(uint16_t crc_val, uint64_t data_type_signature)
{
 80023e2:	b5f0      	push	{r4, r5, r6, r7, lr}
 80023e4:	b087      	sub	sp, #28
 80023e6:	af00      	add	r7, sp, #0
 80023e8:	4601      	mov	r1, r0
 80023ea:	e9c7 2300 	strd	r2, r3, [r7]
 80023ee:	460b      	mov	r3, r1
 80023f0:	81fb      	strh	r3, [r7, #14]
    for (uint16_t shift_val = 0; shift_val < 64; shift_val = (uint16_t)(shift_val + 8U))
 80023f2:	2300      	movs	r3, #0
 80023f4:	82fb      	strh	r3, [r7, #22]
 80023f6:	e01b      	b.n	8002430 <crcAddSignature+0x4e>
    {
        crc_val = crcAddByte(crc_val, (uint8_t) (data_type_signature >> shift_val));
 80023f8:	8af9      	ldrh	r1, [r7, #22]
 80023fa:	e9d7 2300 	ldrd	r2, r3, [r7]
 80023fe:	f1c1 0620 	rsb	r6, r1, #32
 8002402:	f1a1 0020 	sub.w	r0, r1, #32
 8002406:	fa22 f401 	lsr.w	r4, r2, r1
 800240a:	fa03 f606 	lsl.w	r6, r3, r6
 800240e:	4334      	orrs	r4, r6
 8002410:	fa23 f000 	lsr.w	r0, r3, r0
 8002414:	4304      	orrs	r4, r0
 8002416:	fa23 f501 	lsr.w	r5, r3, r1
 800241a:	b2e2      	uxtb	r2, r4
 800241c:	89fb      	ldrh	r3, [r7, #14]
 800241e:	4611      	mov	r1, r2
 8002420:	4618      	mov	r0, r3
 8002422:	f7ff ffaf 	bl	8002384 <crcAddByte>
 8002426:	4603      	mov	r3, r0
 8002428:	81fb      	strh	r3, [r7, #14]
    for (uint16_t shift_val = 0; shift_val < 64; shift_val = (uint16_t)(shift_val + 8U))
 800242a:	8afb      	ldrh	r3, [r7, #22]
 800242c:	3308      	adds	r3, #8
 800242e:	82fb      	strh	r3, [r7, #22]
 8002430:	8afb      	ldrh	r3, [r7, #22]
 8002432:	2b3f      	cmp	r3, #63	@ 0x3f
 8002434:	d9e0      	bls.n	80023f8 <crcAddSignature+0x16>
    }
    return crc_val;
 8002436:	89fb      	ldrh	r3, [r7, #14]
}
 8002438:	4618      	mov	r0, r3
 800243a:	371c      	adds	r7, #28
 800243c:	46bd      	mov	sp, r7
 800243e:	bdf0      	pop	{r4, r5, r6, r7, pc}

08002440 <crcAdd>:

CANARD_INTERNAL uint16_t crcAdd(uint16_t crc_val, const uint8_t* bytes, size_t len)
{
 8002440:	b580      	push	{r7, lr}
 8002442:	b084      	sub	sp, #16
 8002444:	af00      	add	r7, sp, #0
 8002446:	4603      	mov	r3, r0
 8002448:	60b9      	str	r1, [r7, #8]
 800244a:	607a      	str	r2, [r7, #4]
 800244c:	81fb      	strh	r3, [r7, #14]
    while (len--)
 800244e:	e00a      	b.n	8002466 <crcAdd+0x26>
    {
        crc_val = crcAddByte(crc_val, *bytes++);
 8002450:	68bb      	ldr	r3, [r7, #8]
 8002452:	1c5a      	adds	r2, r3, #1
 8002454:	60ba      	str	r2, [r7, #8]
 8002456:	781a      	ldrb	r2, [r3, #0]
 8002458:	89fb      	ldrh	r3, [r7, #14]
 800245a:	4611      	mov	r1, r2
 800245c:	4618      	mov	r0, r3
 800245e:	f7ff ff91 	bl	8002384 <crcAddByte>
 8002462:	4603      	mov	r3, r0
 8002464:	81fb      	strh	r3, [r7, #14]
    while (len--)
 8002466:	687b      	ldr	r3, [r7, #4]
 8002468:	1e5a      	subs	r2, r3, #1
 800246a:	607a      	str	r2, [r7, #4]
 800246c:	2b00      	cmp	r3, #0
 800246e:	d1ef      	bne.n	8002450 <crcAdd+0x10>
    }
    return crc_val;
 8002470:	89fb      	ldrh	r3, [r7, #14]
}
 8002472:	4618      	mov	r0, r3
 8002474:	3710      	adds	r7, #16
 8002476:	46bd      	mov	sp, r7
 8002478:	bd80      	pop	{r7, pc}

0800247a <initPoolAllocator>:
 *  Pool Allocator functions
 */
CANARD_INTERNAL void initPoolAllocator(CanardPoolAllocator* allocator,
                                       void* buf,
                                       uint16_t buf_len)
{
 800247a:	b480      	push	{r7}
 800247c:	b089      	sub	sp, #36	@ 0x24
 800247e:	af00      	add	r7, sp, #0
 8002480:	60f8      	str	r0, [r7, #12]
 8002482:	60b9      	str	r1, [r7, #8]
 8002484:	4613      	mov	r3, r2
 8002486:	80fb      	strh	r3, [r7, #6]
    size_t current_index = 0;
 8002488:	2300      	movs	r3, #0
 800248a:	61fb      	str	r3, [r7, #28]
    CanardPoolAllocatorBlock *abuf = buf;
 800248c:	68bb      	ldr	r3, [r7, #8]
 800248e:	617b      	str	r3, [r7, #20]
    allocator->arena = buf;
 8002490:	68fb      	ldr	r3, [r7, #12]
 8002492:	68ba      	ldr	r2, [r7, #8]
 8002494:	611a      	str	r2, [r3, #16]
    CanardPoolAllocatorBlock** current_block = &(allocator->free_list);
 8002496:	68fb      	ldr	r3, [r7, #12]
 8002498:	3304      	adds	r3, #4
 800249a:	61bb      	str	r3, [r7, #24]
    while (current_index < buf_len)
 800249c:	e00b      	b.n	80024b6 <initPoolAllocator+0x3c>
    {
        *current_block = &abuf[current_index];
 800249e:	69fb      	ldr	r3, [r7, #28]
 80024a0:	015b      	lsls	r3, r3, #5
 80024a2:	697a      	ldr	r2, [r7, #20]
 80024a4:	441a      	add	r2, r3
 80024a6:	69bb      	ldr	r3, [r7, #24]
 80024a8:	601a      	str	r2, [r3, #0]
        current_block = &((*current_block)->next);
 80024aa:	69bb      	ldr	r3, [r7, #24]
 80024ac:	681b      	ldr	r3, [r3, #0]
 80024ae:	61bb      	str	r3, [r7, #24]
        current_index++;
 80024b0:	69fb      	ldr	r3, [r7, #28]
 80024b2:	3301      	adds	r3, #1
 80024b4:	61fb      	str	r3, [r7, #28]
    while (current_index < buf_len)
 80024b6:	88fb      	ldrh	r3, [r7, #6]
 80024b8:	69fa      	ldr	r2, [r7, #28]
 80024ba:	429a      	cmp	r2, r3
 80024bc:	d3ef      	bcc.n	800249e <initPoolAllocator+0x24>
    }
    *current_block = NULL;
 80024be:	69bb      	ldr	r3, [r7, #24]
 80024c0:	2200      	movs	r2, #0
 80024c2:	601a      	str	r2, [r3, #0]

    allocator->statistics.capacity_blocks = buf_len;
 80024c4:	68fb      	ldr	r3, [r7, #12]
 80024c6:	88fa      	ldrh	r2, [r7, #6]
 80024c8:	811a      	strh	r2, [r3, #8]
    allocator->statistics.current_usage_blocks = 0;
 80024ca:	68fb      	ldr	r3, [r7, #12]
 80024cc:	2200      	movs	r2, #0
 80024ce:	815a      	strh	r2, [r3, #10]
    allocator->statistics.peak_usage_blocks = 0;
 80024d0:	68fb      	ldr	r3, [r7, #12]
 80024d2:	2200      	movs	r2, #0
 80024d4:	819a      	strh	r2, [r3, #12]
    // user should initialize semaphore after the canardInit
    // or at first call of canard_allocate_sem_take
    allocator->semaphore = NULL;
 80024d6:	68fb      	ldr	r3, [r7, #12]
 80024d8:	2200      	movs	r2, #0
 80024da:	601a      	str	r2, [r3, #0]
}
 80024dc:	bf00      	nop
 80024de:	3724      	adds	r7, #36	@ 0x24
 80024e0:	46bd      	mov	sp, r7
 80024e2:	f85d 7b04 	ldr.w	r7, [sp], #4
 80024e6:	4770      	bx	lr

080024e8 <allocateBlock>:

CANARD_INTERNAL void* allocateBlock(CanardPoolAllocator* allocator)
{
 80024e8:	b480      	push	{r7}
 80024ea:	b085      	sub	sp, #20
 80024ec:	af00      	add	r7, sp, #0
 80024ee:	6078      	str	r0, [r7, #4]
#if CANARD_ALLOCATE_SEM
    canard_allocate_sem_take(allocator);
#endif
    // Check if there are any blocks available in the free list.
    if (allocator->free_list == NULL)
 80024f0:	687b      	ldr	r3, [r7, #4]
 80024f2:	685b      	ldr	r3, [r3, #4]
 80024f4:	2b00      	cmp	r3, #0
 80024f6:	d101      	bne.n	80024fc <allocateBlock+0x14>
    {
#if CANARD_ALLOCATE_SEM
        canard_allocate_sem_give(allocator);
#endif
        return NULL;
 80024f8:	2300      	movs	r3, #0
 80024fa:	e018      	b.n	800252e <allocateBlock+0x46>
    }

    // Take first available block and prepares next block for use.
    void* result = allocator->free_list;
 80024fc:	687b      	ldr	r3, [r7, #4]
 80024fe:	685b      	ldr	r3, [r3, #4]
 8002500:	60fb      	str	r3, [r7, #12]
    allocator->free_list = allocator->free_list->next;
 8002502:	687b      	ldr	r3, [r7, #4]
 8002504:	685b      	ldr	r3, [r3, #4]
 8002506:	681a      	ldr	r2, [r3, #0]
 8002508:	687b      	ldr	r3, [r7, #4]
 800250a:	605a      	str	r2, [r3, #4]

    // Update statistics
    allocator->statistics.current_usage_blocks++;
 800250c:	687b      	ldr	r3, [r7, #4]
 800250e:	895b      	ldrh	r3, [r3, #10]
 8002510:	3301      	adds	r3, #1
 8002512:	b29a      	uxth	r2, r3
 8002514:	687b      	ldr	r3, [r7, #4]
 8002516:	815a      	strh	r2, [r3, #10]
    if (allocator->statistics.peak_usage_blocks < allocator->statistics.current_usage_blocks)
 8002518:	687b      	ldr	r3, [r7, #4]
 800251a:	899a      	ldrh	r2, [r3, #12]
 800251c:	687b      	ldr	r3, [r7, #4]
 800251e:	895b      	ldrh	r3, [r3, #10]
 8002520:	429a      	cmp	r2, r3
 8002522:	d203      	bcs.n	800252c <allocateBlock+0x44>
    {
        allocator->statistics.peak_usage_blocks = allocator->statistics.current_usage_blocks;
 8002524:	687b      	ldr	r3, [r7, #4]
 8002526:	895a      	ldrh	r2, [r3, #10]
 8002528:	687b      	ldr	r3, [r7, #4]
 800252a:	819a      	strh	r2, [r3, #12]
    }
#if CANARD_ALLOCATE_SEM
    canard_allocate_sem_give(allocator);
#endif
    return result;
 800252c:	68fb      	ldr	r3, [r7, #12]
}
 800252e:	4618      	mov	r0, r3
 8002530:	3714      	adds	r7, #20
 8002532:	46bd      	mov	sp, r7
 8002534:	f85d 7b04 	ldr.w	r7, [sp], #4
 8002538:	4770      	bx	lr

0800253a <freeBlock>:

CANARD_INTERNAL void freeBlock(CanardPoolAllocator* allocator, void* p)
{
 800253a:	b480      	push	{r7}
 800253c:	b085      	sub	sp, #20
 800253e:	af00      	add	r7, sp, #0
 8002540:	6078      	str	r0, [r7, #4]
 8002542:	6039      	str	r1, [r7, #0]
#if CANARD_ALLOCATE_SEM
    canard_allocate_sem_take(allocator);
#endif
    CanardPoolAllocatorBlock* block = (CanardPoolAllocatorBlock*) p;
 8002544:	683b      	ldr	r3, [r7, #0]
 8002546:	60fb      	str	r3, [r7, #12]

    block->next = allocator->free_list;
 8002548:	687b      	ldr	r3, [r7, #4]
 800254a:	685a      	ldr	r2, [r3, #4]
 800254c:	68fb      	ldr	r3, [r7, #12]
 800254e:	601a      	str	r2, [r3, #0]
    allocator->free_list = block;
 8002550:	687b      	ldr	r3, [r7, #4]
 8002552:	68fa      	ldr	r2, [r7, #12]
 8002554:	605a      	str	r2, [r3, #4]

    CANARD_ASSERT(allocator->statistics.current_usage_blocks > 0);
    allocator->statistics.current_usage_blocks--;
 8002556:	687b      	ldr	r3, [r7, #4]
 8002558:	895b      	ldrh	r3, [r3, #10]
 800255a:	3b01      	subs	r3, #1
 800255c:	b29a      	uxth	r2, r3
 800255e:	687b      	ldr	r3, [r7, #4]
 8002560:	815a      	strh	r2, [r3, #10]
#if CANARD_ALLOCATE_SEM
    canard_allocate_sem_give(allocator);
#endif
}
 8002562:	bf00      	nop
 8002564:	3714      	adds	r7, #20
 8002566:	46bd      	mov	sp, r7
 8002568:	f85d 7b04 	ldr.w	r7, [sp], #4
 800256c:	4770      	bx	lr
	...

08002570 <sendNodeStatus>:


// === tx dronecan ===
// uavcan.protocol.nodestatus
static void sendNodeStatus(void)
{
 8002570:	b580      	push	{r7, lr}
 8002572:	b08e      	sub	sp, #56	@ 0x38
 8002574:	af00      	add	r7, sp, #0
  nodeStatus.uptime_sec = HAL_GetTick() / 1000U;
 8002576:	f001 fd29 	bl	8003fcc <HAL_GetTick>
 800257a:	4603      	mov	r3, r0
 800257c:	4a1a      	ldr	r2, [pc, #104]	@ (80025e8 <sendNodeStatus+0x78>)
 800257e:	fba2 2303 	umull	r2, r3, r2, r3
 8002582:	099b      	lsrs	r3, r3, #6
 8002584:	4a19      	ldr	r2, [pc, #100]	@ (80025ec <sendNodeStatus+0x7c>)
 8002586:	6013      	str	r3, [r2, #0]

  uint8_t txBuffer[UAVCAN_PROTOCOL_NODESTATUS_MAX_SIZE] = {0};
 8002588:	f107 032c 	add.w	r3, r7, #44	@ 0x2c
 800258c:	2200      	movs	r2, #0
 800258e:	601a      	str	r2, [r3, #0]
 8002590:	f8c3 2003 	str.w	r2, [r3, #3]
  uint32_t dataLength = uavcan_protocol_NodeStatus_encode(&nodeStatus, txBuffer);
 8002594:	f107 032c 	add.w	r3, r7, #44	@ 0x2c
 8002598:	4619      	mov	r1, r3
 800259a:	4814      	ldr	r0, [pc, #80]	@ (80025ec <sendNodeStatus+0x7c>)
 800259c:	f001 fa32 	bl	8003a04 <uavcan_protocol_NodeStatus_encode>
 80025a0:	6378      	str	r0, [r7, #52]	@ 0x34

  static uint8_t transferID = 0;
  CanardTxTransfer txFrame = {
 80025a2:	2302      	movs	r3, #2
 80025a4:	703b      	strb	r3, [r7, #0]
 80025a6:	a30e      	add	r3, pc, #56	@ (adr r3, 80025e0 <sendNodeStatus+0x70>)
 80025a8:	e9d3 2300 	ldrd	r2, r3, [r3]
 80025ac:	e9c7 2302 	strd	r2, r3, [r7, #8]
 80025b0:	f240 1355 	movw	r3, #341	@ 0x155
 80025b4:	823b      	strh	r3, [r7, #16]
 80025b6:	4b0e      	ldr	r3, [pc, #56]	@ (80025f0 <sendNodeStatus+0x80>)
 80025b8:	617b      	str	r3, [r7, #20]
 80025ba:	2318      	movs	r3, #24
 80025bc:	763b      	strb	r3, [r7, #24]
 80025be:	f107 032c 	add.w	r3, r7, #44	@ 0x2c
 80025c2:	61fb      	str	r3, [r7, #28]
 80025c4:	6b7b      	ldr	r3, [r7, #52]	@ 0x34
 80025c6:	b29b      	uxth	r3, r3
 80025c8:	843b      	strh	r3, [r7, #32]
    &transferID,
    CANARD_TRANSFER_PRIORITY_LOW,
    txBuffer,
    dataLength
  };
  canardBroadcastObj(&canard, &txFrame);
 80025ca:	463b      	mov	r3, r7
 80025cc:	4619      	mov	r1, r3
 80025ce:	4809      	ldr	r0, [pc, #36]	@ (80025f4 <sendNodeStatus+0x84>)
 80025d0:	f7fe f8c8 	bl	8000764 <canardBroadcastObj>
}
 80025d4:	bf00      	nop
 80025d6:	3738      	adds	r7, #56	@ 0x38
 80025d8:	46bd      	mov	sp, r7
 80025da:	bd80      	pop	{r7, pc}
 80025dc:	f3af 8000 	nop.w
 80025e0:	c1a7c6f1 	.word	0xc1a7c6f1
 80025e4:	0f0868d0 	.word	0x0f0868d0
 80025e8:	10624dd3 	.word	0x10624dd3
 80025ec:	200000cc 	.word	0x200000cc
 80025f0:	20000514 	.word	0x20000514
 80025f4:	200000d8 	.word	0x200000d8

080025f8 <handleFileReadResponse>:

static void handleFileReadResponse(CanardInstance* ins, CanardRxTransfer* transfer){ // This isn't being called
 80025f8:	b580      	push	{r7, lr}
 80025fa:	b0ca      	sub	sp, #296	@ 0x128
 80025fc:	af00      	add	r7, sp, #0
 80025fe:	f507 7394 	add.w	r3, r7, #296	@ 0x128
 8002602:	f5a3 7392 	sub.w	r3, r3, #292	@ 0x124
 8002606:	6018      	str	r0, [r3, #0]
 8002608:	f507 7394 	add.w	r3, r7, #296	@ 0x128
 800260c:	f5a3 7394 	sub.w	r3, r3, #296	@ 0x128
 8002610:	6019      	str	r1, [r3, #0]
	if ((transfer->transfer_id+1)%32 != fwupdate.transfer_id ||
 8002612:	f507 7394 	add.w	r3, r7, #296	@ 0x128
 8002616:	f5a3 7394 	sub.w	r3, r3, #296	@ 0x128
 800261a:	681b      	ldr	r3, [r3, #0]
 800261c:	7e5b      	ldrb	r3, [r3, #25]
 800261e:	3301      	adds	r3, #1
 8002620:	425a      	negs	r2, r3
 8002622:	f003 031f 	and.w	r3, r3, #31
 8002626:	f002 021f 	and.w	r2, r2, #31
 800262a:	bf58      	it	pl
 800262c:	4253      	negpl	r3, r2
 800262e:	4a5d      	ldr	r2, [pc, #372]	@ (80027a4 <handleFileReadResponse+0x1ac>)
 8002630:	f892 2101 	ldrb.w	r2, [r2, #257]	@ 0x101
 8002634:	4293      	cmp	r3, r2
 8002636:	f040 80ad 	bne.w	8002794 <handleFileReadResponse+0x19c>
		transfer->source_node_id != fwupdate.node_id) {
 800263a:	f507 7394 	add.w	r3, r7, #296	@ 0x128
 800263e:	f5a3 7394 	sub.w	r3, r3, #296	@ 0x128
 8002642:	681b      	ldr	r3, [r3, #0]
 8002644:	7eda      	ldrb	r2, [r3, #27]
 8002646:	4b57      	ldr	r3, [pc, #348]	@ (80027a4 <handleFileReadResponse+0x1ac>)
 8002648:	f893 3100 	ldrb.w	r3, [r3, #256]	@ 0x100
	if ((transfer->transfer_id+1)%32 != fwupdate.transfer_id ||
 800264c:	429a      	cmp	r2, r3
 800264e:	f040 80a1 	bne.w	8002794 <handleFileReadResponse+0x19c>
		/* not for us */
		return;
	}

	struct uavcan_protocol_file_ReadResponse pkt;
	if (uavcan_protocol_file_ReadResponse_decode(transfer, &pkt)) {
 8002652:	f107 0218 	add.w	r2, r7, #24
 8002656:	f507 7394 	add.w	r3, r7, #296	@ 0x128
 800265a:	f5a3 7394 	sub.w	r3, r3, #296	@ 0x128
 800265e:	4611      	mov	r1, r2
 8002660:	6818      	ldr	r0, [r3, #0]
 8002662:	f001 fbe2 	bl	8003e2a <uavcan_protocol_file_ReadResponse_decode>
 8002666:	4603      	mov	r3, r0
 8002668:	2b00      	cmp	r3, #0
 800266a:	f040 8095 	bne.w	8002798 <handleFileReadResponse+0x1a0>
		/* bad packet */
		return;
	}

	if (pkt.error.value != UAVCAN_PROTOCOL_FILE_ERROR_OK) {
 800266e:	f507 7394 	add.w	r3, r7, #296	@ 0x128
 8002672:	f5a3 7388 	sub.w	r3, r3, #272	@ 0x110
 8002676:	f9b3 3000 	ldrsh.w	r3, [r3]
 800267a:	2b00      	cmp	r3, #0
 800267c:	d008      	beq.n	8002690 <handleFileReadResponse+0x98>
		/* read failed */
		fwupdate.in_progress = false;
 800267e:	4b49      	ldr	r3, [pc, #292]	@ (80027a4 <handleFileReadResponse+0x1ac>)
 8002680:	2200      	movs	r2, #0
 8002682:	f883 2110 	strb.w	r2, [r3, #272]	@ 0x110
		fwupdate.node_id = 0;
 8002686:	4b47      	ldr	r3, [pc, #284]	@ (80027a4 <handleFileReadResponse+0x1ac>)
 8002688:	2200      	movs	r2, #0
 800268a:	f883 2100 	strb.w	r2, [r3, #256]	@ 0x100
		return;
 800268e:	e084      	b.n	800279a <handleFileReadResponse+0x1a2>
	}

	if (pkt.data.len == 0) {
 8002690:	f507 7394 	add.w	r3, r7, #296	@ 0x128
 8002694:	f5a3 7388 	sub.w	r3, r3, #272	@ 0x110
 8002698:	885b      	ldrh	r3, [r3, #2]
 800269a:	2b00      	cmp	r3, #0
 800269c:	d108      	bne.n	80026b0 <handleFileReadResponse+0xb8>
	    // No more data – update complete --> need to add flags for this to stop the update now
	    fwupdate.in_progress = false;
 800269e:	4b41      	ldr	r3, [pc, #260]	@ (80027a4 <handleFileReadResponse+0x1ac>)
 80026a0:	2200      	movs	r2, #0
 80026a2:	f883 2110 	strb.w	r2, [r3, #272]	@ 0x110
	    fwupdate.node_id = 0;
 80026a6:	4b3f      	ldr	r3, [pc, #252]	@ (80027a4 <handleFileReadResponse+0x1ac>)
 80026a8:	2200      	movs	r2, #0
 80026aa:	f883 2100 	strb.w	r2, [r3, #256]	@ 0x100
	    return;
 80026ae:	e074      	b.n	800279a <handleFileReadResponse+0x1a2>
	}

	HAL_FLASH_Unlock();
 80026b0:	f002 fce4 	bl	800507c <HAL_FLASH_Unlock>

	uint32_t bytes_written = 0;
 80026b4:	2300      	movs	r3, #0
 80026b6:	f8c7 3124 	str.w	r3, [r7, #292]	@ 0x124
	while(bytes_written < pkt.data.len){
 80026ba:	e04e      	b.n	800275a <handleFileReadResponse+0x162>
		uint8_t chunk[8] = {0xFF}; //Default erased value
 80026bc:	f507 7394 	add.w	r3, r7, #296	@ 0x128
 80026c0:	f5a3 738c 	sub.w	r3, r3, #280	@ 0x118
 80026c4:	22ff      	movs	r2, #255	@ 0xff
 80026c6:	601a      	str	r2, [r3, #0]
 80026c8:	2200      	movs	r2, #0
 80026ca:	605a      	str	r2, [r3, #4]
		uint32_t remain = pkt.data.len - bytes_written;
 80026cc:	f507 7394 	add.w	r3, r7, #296	@ 0x128
 80026d0:	f5a3 7388 	sub.w	r3, r3, #272	@ 0x110
 80026d4:	885b      	ldrh	r3, [r3, #2]
 80026d6:	461a      	mov	r2, r3
 80026d8:	f8d7 3124 	ldr.w	r3, [r7, #292]	@ 0x124
 80026dc:	1ad3      	subs	r3, r2, r3
 80026de:	f8c7 3120 	str.w	r3, [r7, #288]	@ 0x120
		uint32_t to_copy = (remain >= 8U) ? 8U : remain;
 80026e2:	f8d7 3120 	ldr.w	r3, [r7, #288]	@ 0x120
 80026e6:	2b08      	cmp	r3, #8
 80026e8:	bf28      	it	cs
 80026ea:	2308      	movcs	r3, #8
 80026ec:	f8c7 311c 	str.w	r3, [r7, #284]	@ 0x11c

		memcpy(chunk, &pkt.data.data[bytes_written], to_copy);
 80026f0:	f107 0218 	add.w	r2, r7, #24
 80026f4:	f8d7 3124 	ldr.w	r3, [r7, #292]	@ 0x124
 80026f8:	4413      	add	r3, r2
 80026fa:	1d19      	adds	r1, r3, #4
 80026fc:	f107 0310 	add.w	r3, r7, #16
 8002700:	f8d7 211c 	ldr.w	r2, [r7, #284]	@ 0x11c
 8002704:	4618      	mov	r0, r3
 8002706:	f005 f9b8 	bl	8007a7a <memcpy>

		uint64_t double_word;

		memcpy(&double_word, chunk, 8); // Makes a 64 bit object for the HAL_FLASH
 800270a:	e9d7 2304 	ldrd	r2, r3, [r7, #16]
 800270e:	e9c7 2302 	strd	r2, r3, [r7, #8]

		if(HAL_FLASH_Program(FLASH_TYPEPROGRAM_DOUBLEWORD, fwupdate.flash_address, double_word) != HAL_OK){
 8002712:	4b24      	ldr	r3, [pc, #144]	@ (80027a4 <handleFileReadResponse+0x1ac>)
 8002714:	f8d3 110c 	ldr.w	r1, [r3, #268]	@ 0x10c
 8002718:	e9d7 2302 	ldrd	r2, r3, [r7, #8]
 800271c:	2000      	movs	r0, #0
 800271e:	f002 fc41 	bl	8004fa4 <HAL_FLASH_Program>
 8002722:	4603      	mov	r3, r0
 8002724:	2b00      	cmp	r3, #0
 8002726:	d00a      	beq.n	800273e <handleFileReadResponse+0x146>
			HAL_FLASH_Lock();
 8002728:	f002 fcca 	bl	80050c0 <HAL_FLASH_Lock>
			fwupdate.in_progress = false;
 800272c:	4b1d      	ldr	r3, [pc, #116]	@ (80027a4 <handleFileReadResponse+0x1ac>)
 800272e:	2200      	movs	r2, #0
 8002730:	f883 2110 	strb.w	r2, [r3, #272]	@ 0x110
			fwupdate.node_id = 0;
 8002734:	4b1b      	ldr	r3, [pc, #108]	@ (80027a4 <handleFileReadResponse+0x1ac>)
 8002736:	2200      	movs	r2, #0
 8002738:	f883 2100 	strb.w	r2, [r3, #256]	@ 0x100
 800273c:	e02d      	b.n	800279a <handleFileReadResponse+0x1a2>
			return;
		}
		//Double word means it writes 64 bits at a time (a word is 32 bits)
		//Might have to change around the values
		fwupdate.flash_address += 8U; //8 bytes long = 64 bits
 800273e:	4b19      	ldr	r3, [pc, #100]	@ (80027a4 <handleFileReadResponse+0x1ac>)
 8002740:	f8d3 310c 	ldr.w	r3, [r3, #268]	@ 0x10c
 8002744:	3308      	adds	r3, #8
 8002746:	4a17      	ldr	r2, [pc, #92]	@ (80027a4 <handleFileReadResponse+0x1ac>)
 8002748:	f8c2 310c 	str.w	r3, [r2, #268]	@ 0x10c
		bytes_written += to_copy;
 800274c:	f8d7 2124 	ldr.w	r2, [r7, #292]	@ 0x124
 8002750:	f8d7 311c 	ldr.w	r3, [r7, #284]	@ 0x11c
 8002754:	4413      	add	r3, r2
 8002756:	f8c7 3124 	str.w	r3, [r7, #292]	@ 0x124
	while(bytes_written < pkt.data.len){
 800275a:	f507 7394 	add.w	r3, r7, #296	@ 0x128
 800275e:	f5a3 7388 	sub.w	r3, r3, #272	@ 0x110
 8002762:	885b      	ldrh	r3, [r3, #2]
 8002764:	461a      	mov	r2, r3
 8002766:	f8d7 3124 	ldr.w	r3, [r7, #292]	@ 0x124
 800276a:	4293      	cmp	r3, r2
 800276c:	d3a6      	bcc.n	80026bc <handleFileReadResponse+0xc4>
	}
	HAL_FLASH_Lock();
 800276e:	f002 fca7 	bl	80050c0 <HAL_FLASH_Lock>

	fwupdate.offset += pkt.data.len;
 8002772:	4b0c      	ldr	r3, [pc, #48]	@ (80027a4 <handleFileReadResponse+0x1ac>)
 8002774:	f8d3 3108 	ldr.w	r3, [r3, #264]	@ 0x108
 8002778:	f507 7294 	add.w	r2, r7, #296	@ 0x128
 800277c:	f5a2 7288 	sub.w	r2, r2, #272	@ 0x110
 8002780:	8852      	ldrh	r2, [r2, #2]
 8002782:	4413      	add	r3, r2
 8002784:	4a07      	ldr	r2, [pc, #28]	@ (80027a4 <handleFileReadResponse+0x1ac>)
 8002786:	f8c2 3108 	str.w	r3, [r2, #264]	@ 0x108
	fwupdate.last_read_ms = 0; // makes it so fwupdate check in sendFirmwareRead will go through right away
 800278a:	4b06      	ldr	r3, [pc, #24]	@ (80027a4 <handleFileReadResponse+0x1ac>)
 800278c:	2200      	movs	r2, #0
 800278e:	f8c3 2104 	str.w	r2, [r3, #260]	@ 0x104
 8002792:	e002      	b.n	800279a <handleFileReadResponse+0x1a2>
		return;
 8002794:	bf00      	nop
 8002796:	e000      	b.n	800279a <handleFileReadResponse+0x1a2>
		return;
 8002798:	bf00      	nop
}
 800279a:	f507 7794 	add.w	r7, r7, #296	@ 0x128
 800279e:	46bd      	mov	sp, r7
 80027a0:	bd80      	pop	{r7, pc}
 80027a2:	bf00      	nop
 80027a4:	2000051c 	.word	0x2000051c

080027a8 <eraseStagingFlash>:

// === rx dronecan ===
// uavcan.protocol.getnodeinfo


void eraseStagingFlash(void){
 80027a8:	b580      	push	{r7, lr}
 80027aa:	b086      	sub	sp, #24
 80027ac:	af00      	add	r7, sp, #0

	HAL_FLASH_Unlock();
 80027ae:	f002 fc65 	bl	800507c <HAL_FLASH_Unlock>

	FLASH_EraseInitTypeDef erase = {0};
 80027b2:	1d3b      	adds	r3, r7, #4
 80027b4:	2200      	movs	r2, #0
 80027b6:	601a      	str	r2, [r3, #0]
 80027b8:	605a      	str	r2, [r3, #4]
 80027ba:	609a      	str	r2, [r3, #8]
 80027bc:	60da      	str	r2, [r3, #12]
	uint32_t page_error = 0;
 80027be:	2300      	movs	r3, #0
 80027c0:	603b      	str	r3, [r7, #0]
	// This assumes a 32kb bootloader size. (From 0x08000000 - 0x08008000)
	uint32_t page_num = (0x08020000-0x08000000)/0x800; //0x800 is 2kb which is 1 page length according to data sheet
 80027c2:	2340      	movs	r3, #64	@ 0x40
 80027c4:	617b      	str	r3, [r7, #20]
	// Line above shows starting page for memory wipe
	fwupdate.flash_address = 0x08020000; // Need to change this maybe to make sure that bootloader is not affected
 80027c6:	4b0b      	ldr	r3, [pc, #44]	@ (80027f4 <eraseStagingFlash+0x4c>)
 80027c8:	4a0b      	ldr	r2, [pc, #44]	@ (80027f8 <eraseStagingFlash+0x50>)
 80027ca:	f8c3 210c 	str.w	r2, [r3, #268]	@ 0x10c
	erase.Page = page_num;
 80027ce:	697b      	ldr	r3, [r7, #20]
 80027d0:	60fb      	str	r3, [r7, #12]
	erase.NbPages = 16; //Assuming 32kb for staging slot
 80027d2:	2310      	movs	r3, #16
 80027d4:	613b      	str	r3, [r7, #16]
	erase.TypeErase = FLASH_TYPEERASE_PAGES;
 80027d6:	2300      	movs	r3, #0
 80027d8:	607b      	str	r3, [r7, #4]
	//erase.Banks     = FLASH_BANK_1; // Always specify on STM32L4/F4
	if(HAL_FLASHEx_Erase(&erase, &page_error) != HAL_OK){
 80027da:	463a      	mov	r2, r7
 80027dc:	1d3b      	adds	r3, r7, #4
 80027de:	4611      	mov	r1, r2
 80027e0:	4618      	mov	r0, r3
 80027e2:	f002 fd2f 	bl	8005244 <HAL_FLASHEx_Erase>
		//TODO: handle error
	}

	HAL_FLASH_Lock();
 80027e6:	f002 fc6b 	bl	80050c0 <HAL_FLASH_Lock>

}
 80027ea:	bf00      	nop
 80027ec:	3718      	adds	r7, #24
 80027ee:	46bd      	mov	sp, r7
 80027f0:	bd80      	pop	{r7, pc}
 80027f2:	bf00      	nop
 80027f4:	2000051c 	.word	0x2000051c
 80027f8:	08020000 	.word	0x08020000
 80027fc:	00000000 	.word	0x00000000

08002800 <handleBeginFirmwareUpdate>:

static void handleBeginFirmwareUpdate(CanardInstance* ins, CanardRxTransfer *transfer)
{
 8002800:	b590      	push	{r4, r7, lr}
 8002802:	f5ad 7d03 	sub.w	sp, sp, #524	@ 0x20c
 8002806:	af06      	add	r7, sp, #24
 8002808:	f507 73f8 	add.w	r3, r7, #496	@ 0x1f0
 800280c:	f5a3 73f6 	sub.w	r3, r3, #492	@ 0x1ec
 8002810:	6018      	str	r0, [r3, #0]
 8002812:	f507 73f8 	add.w	r3, r7, #496	@ 0x1f0
 8002816:	f5a3 73f8 	sub.w	r3, r3, #496	@ 0x1f0
 800281a:	6019      	str	r1, [r3, #0]
	nodeStatus.mode = UAVCAN_PROTOCOL_NODESTATUS_MODE_SOFTWARE_UPDATE;
 800281c:	4b3e      	ldr	r3, [pc, #248]	@ (8002918 <handleBeginFirmwareUpdate+0x118>)
 800281e:	2203      	movs	r2, #3
 8002820:	715a      	strb	r2, [r3, #5]
	//deconde message to get file path
	struct uavcan_protocol_file_BeginFirmwareUpdateRequest req;
	uavcan_protocol_file_BeginFirmwareUpdateRequest_decode((const)transfer, &req);
 8002822:	f507 728a 	add.w	r2, r7, #276	@ 0x114
 8002826:	f507 73f8 	add.w	r3, r7, #496	@ 0x1f0
 800282a:	f5a3 73f8 	sub.w	r3, r3, #496	@ 0x1f0
 800282e:	4611      	mov	r1, r2
 8002830:	6818      	ldr	r0, [r3, #0]
 8002832:	f001 f979 	bl	8003b28 <uavcan_protocol_file_BeginFirmwareUpdateRequest_decode>

	uint8_t source_node_id = 		transfer->source_node_id;
 8002836:	f507 73f8 	add.w	r3, r7, #496	@ 0x1f0
 800283a:	f5a3 73f8 	sub.w	r3, r3, #496	@ 0x1f0
 800283e:	681b      	ldr	r3, [r3, #0]
 8002840:	7edb      	ldrb	r3, [r3, #27]
 8002842:	f887 31ef 	strb.w	r3, [r7, #495]	@ 0x1ef
	uint8_t *file_path_bytes = 		req.image_file_remote_path.path.data;
 8002846:	f507 738a 	add.w	r3, r7, #276	@ 0x114
 800284a:	3302      	adds	r3, #2
 800284c:	f8c7 31e8 	str.w	r3, [r7, #488]	@ 0x1e8
	uint8_t file_len = 				req.image_file_remote_path.path.len;
 8002850:	f897 3115 	ldrb.w	r3, [r7, #277]	@ 0x115
 8002854:	f887 31e7 	strb.w	r3, [r7, #487]	@ 0x1e7

	fwupdate.offset = 0;
 8002858:	4b30      	ldr	r3, [pc, #192]	@ (800291c <handleBeginFirmwareUpdate+0x11c>)
 800285a:	2200      	movs	r2, #0
 800285c:	f8c3 2108 	str.w	r2, [r3, #264]	@ 0x108
	fwupdate.node_id = source_node_id;
 8002860:	4a2e      	ldr	r2, [pc, #184]	@ (800291c <handleBeginFirmwareUpdate+0x11c>)
 8002862:	f897 31ef 	ldrb.w	r3, [r7, #495]	@ 0x1ef
 8002866:	f882 3100 	strb.w	r3, [r2, #256]	@ 0x100
	strncpy(fwupdate.path, (char*)file_path_bytes, file_len);
 800286a:	f897 31e7 	ldrb.w	r3, [r7, #487]	@ 0x1e7
 800286e:	461a      	mov	r2, r3
 8002870:	f8d7 11e8 	ldr.w	r1, [r7, #488]	@ 0x1e8
 8002874:	4829      	ldr	r0, [pc, #164]	@ (800291c <handleBeginFirmwareUpdate+0x11c>)
 8002876:	f005 f87a 	bl	800796e <strncpy>

	uint8_t buffer[UAVCAN_PROTOCOL_FILE_BEGINFIRMWAREUPDATE_RESPONSE_MAX_SIZE];
	struct uavcan_protocol_file_BeginFirmwareUpdateResponse reply;
	memset(&reply, 0, sizeof(reply));
 800287a:	f107 030c 	add.w	r3, r7, #12
 800287e:	2281      	movs	r2, #129	@ 0x81
 8002880:	2100      	movs	r1, #0
 8002882:	4618      	mov	r0, r3
 8002884:	f005 f86b 	bl	800795e <memset>
	reply.error = UAVCAN_PROTOCOL_FILE_BEGINFIRMWAREUPDATE_RESPONSE_ERROR_OK;
 8002888:	f507 73f8 	add.w	r3, r7, #496	@ 0x1f0
 800288c:	f5a3 73f2 	sub.w	r3, r3, #484	@ 0x1e4
 8002890:	2200      	movs	r2, #0
 8002892:	701a      	strb	r2, [r3, #0]

	uint32_t total_size = uavcan_protocol_file_BeginFirmwareUpdateResponse_encode(&reply, buffer);
 8002894:	f107 0290 	add.w	r2, r7, #144	@ 0x90
 8002898:	f107 030c 	add.w	r3, r7, #12
 800289c:	4611      	mov	r1, r2
 800289e:	4618      	mov	r0, r3
 80028a0:	f001 f9b6 	bl	8003c10 <uavcan_protocol_file_BeginFirmwareUpdateResponse_encode>
 80028a4:	f8c7 01e0 	str.w	r0, [r7, #480]	@ 0x1e0

	canardRequestOrRespond(ins, // Need to pass in CanardInstance ins ex --> static void handle_param_ExecuteOpcode(CanardInstance* ins, CanardRxTransfer* transfer)
 80028a8:	f507 73f8 	add.w	r3, r7, #496	@ 0x1f0
 80028ac:	f5a3 73f8 	sub.w	r3, r3, #496	@ 0x1f0
 80028b0:	681b      	ldr	r3, [r3, #0]
 80028b2:	7edc      	ldrb	r4, [r3, #27]
 80028b4:	f507 73f8 	add.w	r3, r7, #496	@ 0x1f0
 80028b8:	f5a3 73f8 	sub.w	r3, r3, #496	@ 0x1f0
 80028bc:	681b      	ldr	r3, [r3, #0]
 80028be:	3319      	adds	r3, #25
 80028c0:	f507 72f8 	add.w	r2, r7, #496	@ 0x1f0
 80028c4:	f5a2 72f8 	sub.w	r2, r2, #496	@ 0x1f0
 80028c8:	6812      	ldr	r2, [r2, #0]
 80028ca:	7e92      	ldrb	r2, [r2, #26]
 80028cc:	f8d7 11e0 	ldr.w	r1, [r7, #480]	@ 0x1e0
 80028d0:	b289      	uxth	r1, r1
 80028d2:	f507 70f8 	add.w	r0, r7, #496	@ 0x1f0
 80028d6:	f5a0 70f6 	sub.w	r0, r0, #492	@ 0x1ec
 80028da:	9105      	str	r1, [sp, #20]
 80028dc:	f107 0190 	add.w	r1, r7, #144	@ 0x90
 80028e0:	9104      	str	r1, [sp, #16]
 80028e2:	2100      	movs	r1, #0
 80028e4:	9103      	str	r1, [sp, #12]
 80028e6:	9202      	str	r2, [sp, #8]
 80028e8:	9301      	str	r3, [sp, #4]
 80028ea:	2328      	movs	r3, #40	@ 0x28
 80028ec:	9300      	str	r3, [sp, #0]
 80028ee:	a308      	add	r3, pc, #32	@ (adr r3, 8002910 <handleBeginFirmwareUpdate+0x110>)
 80028f0:	e9d3 2300 	ldrd	r2, r3, [r3]
 80028f4:	4621      	mov	r1, r4
 80028f6:	6800      	ldr	r0, [r0, #0]
 80028f8:	f7fe f810 	bl	800091c <canardRequestOrRespond>
						   CanardResponse,
						   &buffer[0],
						   total_size);

	//erase the flash staging area
	eraseStagingFlash();
 80028fc:	f7ff ff54 	bl	80027a8 <eraseStagingFlash>

//	return true;
}
 8002900:	bf00      	nop
 8002902:	f507 77fa 	add.w	r7, r7, #500	@ 0x1f4
 8002906:	46bd      	mov	sp, r7
 8002908:	bd90      	pop	{r4, r7, pc}
 800290a:	bf00      	nop
 800290c:	f3af 8000 	nop.w
 8002910:	72724126 	.word	0x72724126
 8002914:	b7d725df 	.word	0xb7d725df
 8002918:	200000cc 	.word	0x200000cc
 800291c:	2000051c 	.word	0x2000051c

08002920 <sendFirmwareRead>:


void sendFirmwareRead(void){
 8002920:	b5b0      	push	{r4, r5, r7, lr}
 8002922:	b0f2      	sub	sp, #456	@ 0x1c8
 8002924:	af06      	add	r7, sp, #24
	uint32_t now = HAL_GetTick();
 8002926:	f001 fb51 	bl	8003fcc <HAL_GetTick>
 800292a:	f8c7 01ac 	str.w	r0, [r7, #428]	@ 0x1ac
	if (now - fwupdate.last_read_ms < 750) {
 800292e:	4b32      	ldr	r3, [pc, #200]	@ (80029f8 <sendFirmwareRead+0xd8>)
 8002930:	f8d3 3104 	ldr.w	r3, [r3, #260]	@ 0x104
 8002934:	f8d7 21ac 	ldr.w	r2, [r7, #428]	@ 0x1ac
 8002938:	1ad3      	subs	r3, r2, r3
 800293a:	f240 22ed 	movw	r2, #749	@ 0x2ed
 800293e:	4293      	cmp	r3, r2
 8002940:	d94e      	bls.n	80029e0 <sendFirmwareRead+0xc0>
		// the server may still be responding
		return;
	}
	fwupdate.last_read_ms = now;
 8002942:	4a2d      	ldr	r2, [pc, #180]	@ (80029f8 <sendFirmwareRead+0xd8>)
 8002944:	f8d7 31ac 	ldr.w	r3, [r7, #428]	@ 0x1ac
 8002948:	f8c2 3104 	str.w	r3, [r2, #260]	@ 0x104

	uint8_t buffer[UAVCAN_PROTOCOL_FILE_READ_REQUEST_MAX_SIZE];

	struct uavcan_protocol_file_ReadRequest pkt;
	memset(&pkt, 0, sizeof(pkt));
 800294c:	463b      	mov	r3, r7
 800294e:	22d8      	movs	r2, #216	@ 0xd8
 8002950:	2100      	movs	r1, #0
 8002952:	4618      	mov	r0, r3
 8002954:	f005 f803 	bl	800795e <memset>

	pkt.path.path.len = strlen((const char *)fwupdate.path);
 8002958:	4827      	ldr	r0, [pc, #156]	@ (80029f8 <sendFirmwareRead+0xd8>)
 800295a:	f7fd fc39 	bl	80001d0 <strlen>
 800295e:	4603      	mov	r3, r0
 8002960:	b2da      	uxtb	r2, r3
 8002962:	f507 73d8 	add.w	r3, r7, #432	@ 0x1b0
 8002966:	f5a3 73d8 	sub.w	r3, r3, #432	@ 0x1b0
 800296a:	721a      	strb	r2, [r3, #8]
	pkt.offset = fwupdate.offset;
 800296c:	4b22      	ldr	r3, [pc, #136]	@ (80029f8 <sendFirmwareRead+0xd8>)
 800296e:	f8d3 3108 	ldr.w	r3, [r3, #264]	@ 0x108
 8002972:	2200      	movs	r2, #0
 8002974:	461c      	mov	r4, r3
 8002976:	4615      	mov	r5, r2
 8002978:	f507 73d8 	add.w	r3, r7, #432	@ 0x1b0
 800297c:	f5a3 73d8 	sub.w	r3, r3, #432	@ 0x1b0
 8002980:	e9c3 4500 	strd	r4, r5, [r3]
	memcpy(pkt.path.path.data, fwupdate.path, pkt.path.path.len);
 8002984:	f507 73d8 	add.w	r3, r7, #432	@ 0x1b0
 8002988:	f5a3 73d8 	sub.w	r3, r3, #432	@ 0x1b0
 800298c:	7a1b      	ldrb	r3, [r3, #8]
 800298e:	461a      	mov	r2, r3
 8002990:	463b      	mov	r3, r7
 8002992:	3309      	adds	r3, #9
 8002994:	4918      	ldr	r1, [pc, #96]	@ (80029f8 <sendFirmwareRead+0xd8>)
 8002996:	4618      	mov	r0, r3
 8002998:	f005 f86f 	bl	8007a7a <memcpy>

	uint16_t total_size = uavcan_protocol_file_ReadRequest_encode(&pkt, buffer);
 800299c:	f107 02dc 	add.w	r2, r7, #220	@ 0xdc
 80029a0:	463b      	mov	r3, r7
 80029a2:	4611      	mov	r1, r2
 80029a4:	4618      	mov	r0, r3
 80029a6:	f001 f9ad 	bl	8003d04 <uavcan_protocol_file_ReadRequest_encode>
 80029aa:	4603      	mov	r3, r0
 80029ac:	f8a7 31aa 	strh.w	r3, [r7, #426]	@ 0x1aa

	canardRequestOrRespond(&canard,
 80029b0:	4b11      	ldr	r3, [pc, #68]	@ (80029f8 <sendFirmwareRead+0xd8>)
 80029b2:	f893 1100 	ldrb.w	r1, [r3, #256]	@ 0x100
 80029b6:	f8b7 31aa 	ldrh.w	r3, [r7, #426]	@ 0x1aa
 80029ba:	9305      	str	r3, [sp, #20]
 80029bc:	f107 03dc 	add.w	r3, r7, #220	@ 0xdc
 80029c0:	9304      	str	r3, [sp, #16]
 80029c2:	2301      	movs	r3, #1
 80029c4:	9303      	str	r3, [sp, #12]
 80029c6:	2308      	movs	r3, #8
 80029c8:	9302      	str	r3, [sp, #8]
 80029ca:	4b0c      	ldr	r3, [pc, #48]	@ (80029fc <sendFirmwareRead+0xdc>)
 80029cc:	9301      	str	r3, [sp, #4]
 80029ce:	2330      	movs	r3, #48	@ 0x30
 80029d0:	9300      	str	r3, [sp, #0]
 80029d2:	a307      	add	r3, pc, #28	@ (adr r3, 80029f0 <sendFirmwareRead+0xd0>)
 80029d4:	e9d3 2300 	ldrd	r2, r3, [r3]
 80029d8:	4809      	ldr	r0, [pc, #36]	@ (8002a00 <sendFirmwareRead+0xe0>)
 80029da:	f7fd ff9f 	bl	800091c <canardRequestOrRespond>
 80029de:	e000      	b.n	80029e2 <sendFirmwareRead+0xc2>
		return;
 80029e0:	bf00      	nop
			   &fwupdate.transfer_id,
						   CANARD_TRANSFER_PRIORITY_HIGH,
						   CanardRequest,
						   &buffer[0],
						   total_size);
}
 80029e2:	f507 77d8 	add.w	r7, r7, #432	@ 0x1b0
 80029e6:	46bd      	mov	sp, r7
 80029e8:	bdb0      	pop	{r4, r5, r7, pc}
 80029ea:	bf00      	nop
 80029ec:	f3af 8000 	nop.w
 80029f0:	9f33f678 	.word	0x9f33f678
 80029f4:	8dcdca93 	.word	0x8dcdca93
 80029f8:	2000051c 	.word	0x2000051c
 80029fc:	2000061d 	.word	0x2000061d
 8002a00:	200000d8 	.word	0x200000d8
 8002a04:	00000000 	.word	0x00000000

08002a08 <handleGetNodeInfo>:



static void handleGetNodeInfo(CanardRxTransfer *transfer)
{
 8002a08:	b5b0      	push	{r4, r5, r7, lr}
 8002a0a:	f5ad 7d50 	sub.w	sp, sp, #832	@ 0x340
 8002a0e:	af00      	add	r7, sp, #0
 8002a10:	f507 7350 	add.w	r3, r7, #832	@ 0x340
 8002a14:	f5a3 734f 	sub.w	r3, r3, #828	@ 0x33c
 8002a18:	6018      	str	r0, [r3, #0]
  nodeStatus.uptime_sec = HAL_GetTick() / 1000U;
 8002a1a:	f001 fad7 	bl	8003fcc <HAL_GetTick>
 8002a1e:	4603      	mov	r3, r0
 8002a20:	4a5f      	ldr	r2, [pc, #380]	@ (8002ba0 <handleGetNodeInfo+0x198>)
 8002a22:	fba2 2303 	umull	r2, r3, r2, r3
 8002a26:	099b      	lsrs	r3, r3, #6
 8002a28:	4a5e      	ldr	r2, [pc, #376]	@ (8002ba4 <handleGetNodeInfo+0x19c>)
 8002a2a:	6013      	str	r3, [r2, #0]

  struct uavcan_protocol_GetNodeInfoResponse nodeInfoRes = {0};
 8002a2c:	f507 7350 	add.w	r3, r7, #832	@ 0x340
 8002a30:	f5a3 73c8 	sub.w	r3, r3, #400	@ 0x190
 8002a34:	4618      	mov	r0, r3
 8002a36:	f44f 73c4 	mov.w	r3, #392	@ 0x188
 8002a3a:	461a      	mov	r2, r3
 8002a3c:	2100      	movs	r1, #0
 8002a3e:	f004 ff8e 	bl	800795e <memset>
  nodeInfoRes.status                                            = nodeStatus;
 8002a42:	f507 7350 	add.w	r3, r7, #832	@ 0x340
 8002a46:	f5a3 73c8 	sub.w	r3, r3, #400	@ 0x190
 8002a4a:	4a56      	ldr	r2, [pc, #344]	@ (8002ba4 <handleGetNodeInfo+0x19c>)
 8002a4c:	ca07      	ldmia	r2, {r0, r1, r2}
 8002a4e:	e883 0007 	stmia.w	r3, {r0, r1, r2}
  nodeInfoRes.software_version.major                            = HARDWARE_MAJOR_VERSION;
 8002a52:	f507 7350 	add.w	r3, r7, #832	@ 0x340
 8002a56:	f5a3 73c8 	sub.w	r3, r3, #400	@ 0x190
 8002a5a:	2202      	movs	r2, #2
 8002a5c:	741a      	strb	r2, [r3, #16]
  nodeInfoRes.software_version.minor                            = HARDWARE_MINOR_VERSION;
 8002a5e:	f507 7350 	add.w	r3, r7, #832	@ 0x340
 8002a62:	f5a3 73c8 	sub.w	r3, r3, #400	@ 0x190
 8002a66:	2200      	movs	r2, #0
 8002a68:	745a      	strb	r2, [r3, #17]
  nodeInfoRes.software_version.optional_field_flags             = UAVCAN_PROTOCOL_SOFTWAREVERSION_OPTIONAL_FIELD_FLAG_VCS_COMMIT;
 8002a6a:	f507 7350 	add.w	r3, r7, #832	@ 0x340
 8002a6e:	f5a3 73c8 	sub.w	r3, r3, #400	@ 0x190
 8002a72:	2201      	movs	r2, #1
 8002a74:	749a      	strb	r2, [r3, #18]
  nodeInfoRes.software_version.vcs_commit                       = COMMIT_HASH;
 8002a76:	f507 7350 	add.w	r3, r7, #832	@ 0x340
 8002a7a:	f5a3 73c8 	sub.w	r3, r3, #400	@ 0x190
 8002a7e:	2200      	movs	r2, #0
 8002a80:	615a      	str	r2, [r3, #20]
  nodeInfoRes.hardware_version.major                            = HARDWARE_MAJOR_VERSION;
 8002a82:	f507 7350 	add.w	r3, r7, #832	@ 0x340
 8002a86:	f5a3 73c8 	sub.w	r3, r3, #400	@ 0x190
 8002a8a:	2202      	movs	r2, #2
 8002a8c:	f883 2020 	strb.w	r2, [r3, #32]
  nodeInfoRes.hardware_version.minor                            = HARDWARE_MINOR_VERSION;
 8002a90:	f507 7350 	add.w	r3, r7, #832	@ 0x340
 8002a94:	f5a3 73c8 	sub.w	r3, r3, #400	@ 0x190
 8002a98:	2200      	movs	r2, #0
 8002a9a:	f883 2021 	strb.w	r2, [r3, #33]	@ 0x21
  nodeInfoRes.hardware_version.certificate_of_authenticity.len  = 0;
 8002a9e:	f507 7350 	add.w	r3, r7, #832	@ 0x340
 8002aa2:	f5a3 73c8 	sub.w	r3, r3, #400	@ 0x190
 8002aa6:	2200      	movs	r2, #0
 8002aa8:	f883 2032 	strb.w	r2, [r3, #50]	@ 0x32
  nodeInfoRes.name.len                                          = sizeof(CAN_NODE_NAME);
 8002aac:	f507 7350 	add.w	r3, r7, #832	@ 0x340
 8002ab0:	f5a3 73c8 	sub.w	r3, r3, #400	@ 0x190
 8002ab4:	2208      	movs	r2, #8
 8002ab6:	f883 2132 	strb.w	r2, [r3, #306]	@ 0x132
  memcpy(nodeInfoRes.hardware_version.unique_id, hardwareID, 16);
 8002aba:	f507 7350 	add.w	r3, r7, #832	@ 0x340
 8002abe:	f5a3 73c8 	sub.w	r3, r3, #400	@ 0x190
 8002ac2:	4a39      	ldr	r2, [pc, #228]	@ (8002ba8 <handleGetNodeInfo+0x1a0>)
 8002ac4:	f103 0422 	add.w	r4, r3, #34	@ 0x22
 8002ac8:	4615      	mov	r5, r2
 8002aca:	cd0f      	ldmia	r5!, {r0, r1, r2, r3}
 8002acc:	6020      	str	r0, [r4, #0]
 8002ace:	6061      	str	r1, [r4, #4]
 8002ad0:	60a2      	str	r2, [r4, #8]
 8002ad2:	60e3      	str	r3, [r4, #12]
  strcpy((char*)nodeInfoRes.name.data, CAN_NODE_NAME);
 8002ad4:	f507 73d8 	add.w	r3, r7, #432	@ 0x1b0
 8002ad8:	f203 1333 	addw	r3, r3, #307	@ 0x133
 8002adc:	4933      	ldr	r1, [pc, #204]	@ (8002bac <handleGetNodeInfo+0x1a4>)
 8002ade:	461a      	mov	r2, r3
 8002ae0:	460b      	mov	r3, r1
 8002ae2:	cb03      	ldmia	r3!, {r0, r1}
 8002ae4:	6010      	str	r0, [r2, #0]
 8002ae6:	6051      	str	r1, [r2, #4]

  uint8_t txBuffer[UAVCAN_PROTOCOL_GETNODEINFO_RESPONSE_MAX_SIZE] = {0};
 8002ae8:	f507 7350 	add.w	r3, r7, #832	@ 0x340
 8002aec:	f5a3 7343 	sub.w	r3, r3, #780	@ 0x30c
 8002af0:	4618      	mov	r0, r3
 8002af2:	f240 1379 	movw	r3, #377	@ 0x179
 8002af6:	461a      	mov	r2, r3
 8002af8:	2100      	movs	r1, #0
 8002afa:	f004 ff30 	bl	800795e <memset>
  uint32_t dataLength = uavcan_protocol_GetNodeInfoResponse_encode(&nodeInfoRes, txBuffer);
 8002afe:	f107 0234 	add.w	r2, r7, #52	@ 0x34
 8002b02:	f507 73d8 	add.w	r3, r7, #432	@ 0x1b0
 8002b06:	4611      	mov	r1, r2
 8002b08:	4618      	mov	r0, r3
 8002b0a:	f000 ff13 	bl	8003934 <uavcan_protocol_GetNodeInfoResponse_encode>
 8002b0e:	f8c7 033c 	str.w	r0, [r7, #828]	@ 0x33c

  static uint8_t transferID = 0;
  CanardTxTransfer txFrame = {
 8002b12:	f507 7350 	add.w	r3, r7, #832	@ 0x340
 8002b16:	f5a3 734e 	sub.w	r3, r3, #824	@ 0x338
 8002b1a:	2200      	movs	r2, #0
 8002b1c:	701a      	strb	r2, [r3, #0]
 8002b1e:	f507 7350 	add.w	r3, r7, #832	@ 0x340
 8002b22:	f5a3 714e 	sub.w	r1, r3, #824	@ 0x338
 8002b26:	a31c      	add	r3, pc, #112	@ (adr r3, 8002b98 <handleGetNodeInfo+0x190>)
 8002b28:	e9d3 2300 	ldrd	r2, r3, [r3]
 8002b2c:	e9c1 2302 	strd	r2, r3, [r1, #8]
 8002b30:	f507 7350 	add.w	r3, r7, #832	@ 0x340
 8002b34:	f5a3 734e 	sub.w	r3, r3, #824	@ 0x338
 8002b38:	2201      	movs	r2, #1
 8002b3a:	821a      	strh	r2, [r3, #16]
 8002b3c:	f507 7350 	add.w	r3, r7, #832	@ 0x340
 8002b40:	f5a3 734e 	sub.w	r3, r3, #824	@ 0x338
 8002b44:	4a1a      	ldr	r2, [pc, #104]	@ (8002bb0 <handleGetNodeInfo+0x1a8>)
 8002b46:	615a      	str	r2, [r3, #20]
 8002b48:	f507 7350 	add.w	r3, r7, #832	@ 0x340
 8002b4c:	f5a3 734e 	sub.w	r3, r3, #824	@ 0x338
 8002b50:	2218      	movs	r2, #24
 8002b52:	761a      	strb	r2, [r3, #24]
 8002b54:	f507 7350 	add.w	r3, r7, #832	@ 0x340
 8002b58:	f5a3 734e 	sub.w	r3, r3, #824	@ 0x338
 8002b5c:	f107 0234 	add.w	r2, r7, #52	@ 0x34
 8002b60:	61da      	str	r2, [r3, #28]
 8002b62:	f8d7 333c 	ldr.w	r3, [r7, #828]	@ 0x33c
 8002b66:	b29a      	uxth	r2, r3
 8002b68:	f507 7350 	add.w	r3, r7, #832	@ 0x340
 8002b6c:	f5a3 734e 	sub.w	r3, r3, #824	@ 0x338
 8002b70:	841a      	strh	r2, [r3, #32]
    &transferID,
    CANARD_TRANSFER_PRIORITY_LOW,
    txBuffer,
    dataLength
  };
  canardRequestOrRespondObj(&canard, transfer->source_node_id, &txFrame);
 8002b72:	f507 7350 	add.w	r3, r7, #832	@ 0x340
 8002b76:	f5a3 734f 	sub.w	r3, r3, #828	@ 0x33c
 8002b7a:	681b      	ldr	r3, [r3, #0]
 8002b7c:	7edb      	ldrb	r3, [r3, #27]
 8002b7e:	f107 0208 	add.w	r2, r7, #8
 8002b82:	4619      	mov	r1, r3
 8002b84:	480b      	ldr	r0, [pc, #44]	@ (8002bb4 <handleGetNodeInfo+0x1ac>)
 8002b86:	f7fd fef8 	bl	800097a <canardRequestOrRespondObj>
}
 8002b8a:	bf00      	nop
 8002b8c:	f507 7750 	add.w	r7, r7, #832	@ 0x340
 8002b90:	46bd      	mov	sp, r7
 8002b92:	bdb0      	pop	{r4, r5, r7, pc}
 8002b94:	f3af 8000 	nop.w
 8002b98:	21c46a9e 	.word	0x21c46a9e
 8002b9c:	ee468a81 	.word	0xee468a81
 8002ba0:	10624dd3 	.word	0x10624dd3
 8002ba4:	200000cc 	.word	0x200000cc
 8002ba8:	20000504 	.word	0x20000504
 8002bac:	080085e4 	.word	0x080085e4
 8002bb0:	20000515 	.word	0x20000515
 8002bb4:	200000d8 	.word	0x200000d8

08002bb8 <handleArrayCommand>:

// uavcan.equipment.actuator.arraycommand
static void handleArrayCommand(CanardRxTransfer *transfer)
{
 8002bb8:	b480      	push	{r7}
 8002bba:	b083      	sub	sp, #12
 8002bbc:	af00      	add	r7, sp, #0
 8002bbe:	6078      	str	r0, [r7, #4]
}
 8002bc0:	bf00      	nop
 8002bc2:	370c      	adds	r7, #12
 8002bc4:	46bd      	mov	sp, r7
 8002bc6:	f85d 7b04 	ldr.w	r7, [sp], #4
 8002bca:	4770      	bx	lr
 8002bcc:	0000      	movs	r0, r0
	...

08002bd0 <shouldAcceptTransfer>:

bool shouldAcceptTransfer(const CanardInstance* ins, uint64_t* crcSignature, uint16_t dataTypeID, CanardTransferType transferType, uint8_t srcNodeID)
{
 8002bd0:	b480      	push	{r7}
 8002bd2:	b085      	sub	sp, #20
 8002bd4:	af00      	add	r7, sp, #0
 8002bd6:	60f8      	str	r0, [r7, #12]
 8002bd8:	60b9      	str	r1, [r7, #8]
 8002bda:	4611      	mov	r1, r2
 8002bdc:	461a      	mov	r2, r3
 8002bde:	460b      	mov	r3, r1
 8002be0:	80fb      	strh	r3, [r7, #6]
 8002be2:	4613      	mov	r3, r2
 8002be4:	717b      	strb	r3, [r7, #5]
  if(transferType == CanardTransferTypeResponse)
 8002be6:	797b      	ldrb	r3, [r7, #5]
 8002be8:	2b00      	cmp	r3, #0
 8002bea:	d10c      	bne.n	8002c06 <shouldAcceptTransfer+0x36>
  {
    switch(dataTypeID)
 8002bec:	88fb      	ldrh	r3, [r7, #6]
 8002bee:	2b30      	cmp	r3, #48	@ 0x30
 8002bf0:	d107      	bne.n	8002c02 <shouldAcceptTransfer+0x32>
    {
    case UAVCAN_PROTOCOL_FILE_READ_ID:
			*crcSignature = UAVCAN_PROTOCOL_FILE_READ_SIGNATURE;
 8002bf2:	68b9      	ldr	r1, [r7, #8]
 8002bf4:	a32c      	add	r3, pc, #176	@ (adr r3, 8002ca8 <shouldAcceptTransfer+0xd8>)
 8002bf6:	e9d3 2300 	ldrd	r2, r3, [r3]
 8002bfa:	e9c1 2300 	strd	r2, r3, [r1]
			return true;   // accept File.Read responses
 8002bfe:	2301      	movs	r3, #1
 8002c00:	e04c      	b.n	8002c9c <shouldAcceptTransfer+0xcc>
      default:
        return false;
 8002c02:	2300      	movs	r3, #0
 8002c04:	e04a      	b.n	8002c9c <shouldAcceptTransfer+0xcc>
    }
  }

  if(transferType == CanardTransferTypeRequest)
 8002c06:	797b      	ldrb	r3, [r7, #5]
 8002c08:	2b01      	cmp	r3, #1
 8002c0a:	d117      	bne.n	8002c3c <shouldAcceptTransfer+0x6c>
  {
    switch(dataTypeID)
 8002c0c:	88fb      	ldrh	r3, [r7, #6]
 8002c0e:	2b01      	cmp	r3, #1
 8002c10:	d002      	beq.n	8002c18 <shouldAcceptTransfer+0x48>
 8002c12:	2b28      	cmp	r3, #40	@ 0x28
 8002c14:	d008      	beq.n	8002c28 <shouldAcceptTransfer+0x58>
 8002c16:	e00f      	b.n	8002c38 <shouldAcceptTransfer+0x68>
    {
      case UAVCAN_PROTOCOL_GETNODEINFO_ID:
        *crcSignature = UAVCAN_PROTOCOL_GETNODEINFO_REQUEST_SIGNATURE;
 8002c18:	68b9      	ldr	r1, [r7, #8]
 8002c1a:	a325      	add	r3, pc, #148	@ (adr r3, 8002cb0 <shouldAcceptTransfer+0xe0>)
 8002c1c:	e9d3 2300 	ldrd	r2, r3, [r3]
 8002c20:	e9c1 2300 	strd	r2, r3, [r1]
        return true;
 8002c24:	2301      	movs	r3, #1
 8002c26:	e039      	b.n	8002c9c <shouldAcceptTransfer+0xcc>
      case UAVCAN_PROTOCOL_FILE_BEGINFIRMWAREUPDATE_ID:
		  *crcSignature = UAVCAN_PROTOCOL_FILE_BEGINFIRMWAREUPDATE_SIGNATURE;
 8002c28:	68b9      	ldr	r1, [r7, #8]
 8002c2a:	a323      	add	r3, pc, #140	@ (adr r3, 8002cb8 <shouldAcceptTransfer+0xe8>)
 8002c2c:	e9d3 2300 	ldrd	r2, r3, [r3]
 8002c30:	e9c1 2300 	strd	r2, r3, [r1]
		  return true;
 8002c34:	2301      	movs	r3, #1
 8002c36:	e031      	b.n	8002c9c <shouldAcceptTransfer+0xcc>
      default:
        return false;
 8002c38:	2300      	movs	r3, #0
 8002c3a:	e02f      	b.n	8002c9c <shouldAcceptTransfer+0xcc>
    }
  }

  if(transferType == CanardTransferTypeBroadcast)
 8002c3c:	797b      	ldrb	r3, [r7, #5]
 8002c3e:	2b02      	cmp	r3, #2
 8002c40:	d12b      	bne.n	8002c9a <shouldAcceptTransfer+0xca>
  {
    switch(dataTypeID)
 8002c42:	88fb      	ldrh	r3, [r7, #6]
 8002c44:	f644 6227 	movw	r2, #20007	@ 0x4e27
 8002c48:	4293      	cmp	r3, r2
 8002c4a:	d00c      	beq.n	8002c66 <shouldAcceptTransfer+0x96>
 8002c4c:	f644 6227 	movw	r2, #20007	@ 0x4e27
 8002c50:	4293      	cmp	r3, r2
 8002c52:	dc20      	bgt.n	8002c96 <shouldAcceptTransfer+0xc6>
 8002c54:	f240 1255 	movw	r2, #341	@ 0x155
 8002c58:	4293      	cmp	r3, r2
 8002c5a:	d014      	beq.n	8002c86 <shouldAcceptTransfer+0xb6>
 8002c5c:	f240 32f2 	movw	r2, #1010	@ 0x3f2
 8002c60:	4293      	cmp	r3, r2
 8002c62:	d008      	beq.n	8002c76 <shouldAcceptTransfer+0xa6>
 8002c64:	e017      	b.n	8002c96 <shouldAcceptTransfer+0xc6>
    {
      case ARDUPILOT_INDICATION_NOTIFYSTATE_ID:
        *crcSignature = ARDUPILOT_INDICATION_NOTIFYSTATE_SIGNATURE;
 8002c66:	68b9      	ldr	r1, [r7, #8]
 8002c68:	a315      	add	r3, pc, #84	@ (adr r3, 8002cc0 <shouldAcceptTransfer+0xf0>)
 8002c6a:	e9d3 2300 	ldrd	r2, r3, [r3]
 8002c6e:	e9c1 2300 	strd	r2, r3, [r1]
        return true;
 8002c72:	2301      	movs	r3, #1
 8002c74:	e012      	b.n	8002c9c <shouldAcceptTransfer+0xcc>
      case UAVCAN_EQUIPMENT_ACTUATOR_ARRAYCOMMAND_ID:
        *crcSignature = UAVCAN_EQUIPMENT_ACTUATOR_ARRAYCOMMAND_SIGNATURE;
 8002c76:	68b9      	ldr	r1, [r7, #8]
 8002c78:	a313      	add	r3, pc, #76	@ (adr r3, 8002cc8 <shouldAcceptTransfer+0xf8>)
 8002c7a:	e9d3 2300 	ldrd	r2, r3, [r3]
 8002c7e:	e9c1 2300 	strd	r2, r3, [r1]
        return true;
 8002c82:	2301      	movs	r3, #1
 8002c84:	e00a      	b.n	8002c9c <shouldAcceptTransfer+0xcc>
      case UAVCAN_PROTOCOL_NODESTATUS_ID:
        *crcSignature = UAVCAN_PROTOCOL_NODESTATUS_SIGNATURE;
 8002c86:	68b9      	ldr	r1, [r7, #8]
 8002c88:	a311      	add	r3, pc, #68	@ (adr r3, 8002cd0 <shouldAcceptTransfer+0x100>)
 8002c8a:	e9d3 2300 	ldrd	r2, r3, [r3]
 8002c8e:	e9c1 2300 	strd	r2, r3, [r1]
        return true;
 8002c92:	2301      	movs	r3, #1
 8002c94:	e002      	b.n	8002c9c <shouldAcceptTransfer+0xcc>
      default:
        return false;
 8002c96:	2300      	movs	r3, #0
 8002c98:	e000      	b.n	8002c9c <shouldAcceptTransfer+0xcc>
    }
  }

  return false;
 8002c9a:	2300      	movs	r3, #0
}
 8002c9c:	4618      	mov	r0, r3
 8002c9e:	3714      	adds	r7, #20
 8002ca0:	46bd      	mov	sp, r7
 8002ca2:	f85d 7b04 	ldr.w	r7, [sp], #4
 8002ca6:	4770      	bx	lr
 8002ca8:	9f33f678 	.word	0x9f33f678
 8002cac:	8dcdca93 	.word	0x8dcdca93
 8002cb0:	21c46a9e 	.word	0x21c46a9e
 8002cb4:	ee468a81 	.word	0xee468a81
 8002cb8:	72724126 	.word	0x72724126
 8002cbc:	b7d725df 	.word	0xb7d725df
 8002cc0:	1651fdec 	.word	0x1651fdec
 8002cc4:	631f2a9c 	.word	0x631f2a9c
 8002cc8:	38ec3af3 	.word	0x38ec3af3
 8002ccc:	d8a74862 	.word	0xd8a74862
 8002cd0:	c1a7c6f1 	.word	0xc1a7c6f1
 8002cd4:	0f0868d0 	.word	0x0f0868d0

08002cd8 <onTransferReceived>:

void onTransferReceived(CanardInstance* ins, CanardRxTransfer* transfer)
{
 8002cd8:	b580      	push	{r7, lr}
 8002cda:	b082      	sub	sp, #8
 8002cdc:	af00      	add	r7, sp, #0
 8002cde:	6078      	str	r0, [r7, #4]
 8002ce0:	6039      	str	r1, [r7, #0]
  if(transfer->transfer_type == CanardTransferTypeResponse)
 8002ce2:	683b      	ldr	r3, [r7, #0]
 8002ce4:	7e1b      	ldrb	r3, [r3, #24]
 8002ce6:	2b00      	cmp	r3, #0
 8002ce8:	d108      	bne.n	8002cfc <onTransferReceived+0x24>
  {
    switch(transfer->data_type_id)
 8002cea:	683b      	ldr	r3, [r7, #0]
 8002cec:	8adb      	ldrh	r3, [r3, #22]
 8002cee:	2b30      	cmp	r3, #48	@ 0x30
 8002cf0:	d12d      	bne.n	8002d4e <onTransferReceived+0x76>
    {
    case UAVCAN_PROTOCOL_FILE_READ_ID:
    	handleFileReadResponse(ins, transfer);
 8002cf2:	6839      	ldr	r1, [r7, #0]
 8002cf4:	6878      	ldr	r0, [r7, #4]
 8002cf6:	f7ff fc7f 	bl	80025f8 <handleFileReadResponse>
    	break;
 8002cfa:	bf00      	nop
      default:
        return;
    }
  }

  if(transfer->transfer_type == CanardTransferTypeRequest)
 8002cfc:	683b      	ldr	r3, [r7, #0]
 8002cfe:	7e1b      	ldrb	r3, [r3, #24]
 8002d00:	2b01      	cmp	r3, #1
 8002d02:	d10f      	bne.n	8002d24 <onTransferReceived+0x4c>
  {
    switch(transfer->data_type_id)
 8002d04:	683b      	ldr	r3, [r7, #0]
 8002d06:	8adb      	ldrh	r3, [r3, #22]
 8002d08:	2b01      	cmp	r3, #1
 8002d0a:	d002      	beq.n	8002d12 <onTransferReceived+0x3a>
 8002d0c:	2b28      	cmp	r3, #40	@ 0x28
 8002d0e:	d004      	beq.n	8002d1a <onTransferReceived+0x42>
    	  handleBeginFirmwareUpdate(ins, transfer); //Maybe check to see if already updating
    	  return;
//      case UAVCAN_PROTOCOL_FILE_READ_ID:
//          	  handleFileReadResponse(ins, transfer);
      default:
        return;
 8002d10:	e020      	b.n	8002d54 <onTransferReceived+0x7c>
        handleGetNodeInfo(transfer);
 8002d12:	6838      	ldr	r0, [r7, #0]
 8002d14:	f7ff fe78 	bl	8002a08 <handleGetNodeInfo>
        return;
 8002d18:	e01c      	b.n	8002d54 <onTransferReceived+0x7c>
    	  handleBeginFirmwareUpdate(ins, transfer); //Maybe check to see if already updating
 8002d1a:	6839      	ldr	r1, [r7, #0]
 8002d1c:	6878      	ldr	r0, [r7, #4]
 8002d1e:	f7ff fd6f 	bl	8002800 <handleBeginFirmwareUpdate>
    	  return;
 8002d22:	e017      	b.n	8002d54 <onTransferReceived+0x7c>
    }
  }

  if(transfer->transfer_type == CanardTransferTypeBroadcast)
 8002d24:	683b      	ldr	r3, [r7, #0]
 8002d26:	7e1b      	ldrb	r3, [r3, #24]
 8002d28:	2b02      	cmp	r3, #2
 8002d2a:	d113      	bne.n	8002d54 <onTransferReceived+0x7c>
  {
    switch(transfer->data_type_id)
 8002d2c:	683b      	ldr	r3, [r7, #0]
 8002d2e:	8adb      	ldrh	r3, [r3, #22]
 8002d30:	2b30      	cmp	r3, #48	@ 0x30
 8002d32:	d007      	beq.n	8002d44 <onTransferReceived+0x6c>
 8002d34:	f240 32f2 	movw	r2, #1010	@ 0x3f2
 8002d38:	4293      	cmp	r3, r2
 8002d3a:	d10a      	bne.n	8002d52 <onTransferReceived+0x7a>
    {
      case UAVCAN_EQUIPMENT_ACTUATOR_ARRAYCOMMAND_ID:
        handleArrayCommand(transfer);
 8002d3c:	6838      	ldr	r0, [r7, #0]
 8002d3e:	f7ff ff3b 	bl	8002bb8 <handleArrayCommand>
        return;
 8002d42:	e007      	b.n	8002d54 <onTransferReceived+0x7c>
      case UAVCAN_PROTOCOL_FILE_READ_ID:
          	handleFileReadResponse(ins, transfer);
 8002d44:	6839      	ldr	r1, [r7, #0]
 8002d46:	6878      	ldr	r0, [r7, #4]
 8002d48:	f7ff fc56 	bl	80025f8 <handleFileReadResponse>
          	break;
 8002d4c:	e002      	b.n	8002d54 <onTransferReceived+0x7c>
        return;
 8002d4e:	bf00      	nop
 8002d50:	e000      	b.n	8002d54 <onTransferReceived+0x7c>
      default:
        return;
 8002d52:	bf00      	nop
    }
  }
}
 8002d54:	3708      	adds	r7, #8
 8002d56:	46bd      	mov	sp, r7
 8002d58:	bd80      	pop	{r7, pc}
	...

08002d5c <HAL_CAN_RxFifo0MsgPendingCallback>:

void HAL_CAN_RxFifo0MsgPendingCallback(CAN_HandleTypeDef *hcan)
{
 8002d5c:	b5b0      	push	{r4, r5, r7, lr}
 8002d5e:	b090      	sub	sp, #64	@ 0x40
 8002d60:	af00      	add	r7, sp, #0
 8002d62:	6078      	str	r0, [r7, #4]
  // receive HAL CAN packet
  CAN_RxHeaderTypeDef rxHeader = {0};
 8002d64:	f107 0324 	add.w	r3, r7, #36	@ 0x24
 8002d68:	2200      	movs	r2, #0
 8002d6a:	601a      	str	r2, [r3, #0]
 8002d6c:	605a      	str	r2, [r3, #4]
 8002d6e:	609a      	str	r2, [r3, #8]
 8002d70:	60da      	str	r2, [r3, #12]
 8002d72:	611a      	str	r2, [r3, #16]
 8002d74:	615a      	str	r2, [r3, #20]
 8002d76:	619a      	str	r2, [r3, #24]
  uint8_t rxData[8] = {0};
 8002d78:	f107 031c 	add.w	r3, r7, #28
 8002d7c:	2200      	movs	r2, #0
 8002d7e:	601a      	str	r2, [r3, #0]
 8002d80:	605a      	str	r2, [r3, #4]

  if(HAL_CAN_GetRxMessage(hcan, CAN_RX_FIFO0, &rxHeader, rxData) == HAL_OK)
 8002d82:	f107 031c 	add.w	r3, r7, #28
 8002d86:	f107 0224 	add.w	r2, r7, #36	@ 0x24
 8002d8a:	2100      	movs	r1, #0
 8002d8c:	6878      	ldr	r0, [r7, #4]
 8002d8e:	f001 fc7f 	bl	8004690 <HAL_CAN_GetRxMessage>
 8002d92:	4603      	mov	r3, r0
 8002d94:	2b00      	cmp	r3, #0
 8002d96:	d105      	bne.n	8002da4 <HAL_CAN_RxFifo0MsgPendingCallback+0x48>
  {
    if(rxHeader.IDE != CAN_ID_EXT || rxHeader.RTR != CAN_RTR_DATA)
 8002d98:	6afb      	ldr	r3, [r7, #44]	@ 0x2c
 8002d9a:	2b04      	cmp	r3, #4
 8002d9c:	d12d      	bne.n	8002dfa <HAL_CAN_RxFifo0MsgPendingCallback+0x9e>
 8002d9e:	6b3b      	ldr	r3, [r7, #48]	@ 0x30
 8002da0:	2b00      	cmp	r3, #0
 8002da2:	d12a      	bne.n	8002dfa <HAL_CAN_RxFifo0MsgPendingCallback+0x9e>
      return;
    }
  }

  // create canard packet
  CanardCANFrame rxFrame = {0};
 8002da4:	f107 030c 	add.w	r3, r7, #12
 8002da8:	2200      	movs	r2, #0
 8002daa:	601a      	str	r2, [r3, #0]
 8002dac:	605a      	str	r2, [r3, #4]
 8002dae:	609a      	str	r2, [r3, #8]
 8002db0:	60da      	str	r2, [r3, #12]

  rxFrame.id = rxHeader.ExtId | CANARD_CAN_FRAME_EFF;
 8002db2:	6abb      	ldr	r3, [r7, #40]	@ 0x28
 8002db4:	f043 4300 	orr.w	r3, r3, #2147483648	@ 0x80000000
 8002db8:	60fb      	str	r3, [r7, #12]
  rxFrame.data_len = rxHeader.DLC ;
 8002dba:	6b7b      	ldr	r3, [r7, #52]	@ 0x34
 8002dbc:	b2db      	uxtb	r3, r3
 8002dbe:	763b      	strb	r3, [r7, #24]
  rxFrame.iface_id = 0;
 8002dc0:	2300      	movs	r3, #0
 8002dc2:	767b      	strb	r3, [r7, #25]
  memcpy(rxFrame.data, rxData, rxHeader.DLC);
 8002dc4:	6b7a      	ldr	r2, [r7, #52]	@ 0x34
 8002dc6:	f107 011c 	add.w	r1, r7, #28
 8002dca:	f107 030c 	add.w	r3, r7, #12
 8002dce:	3304      	adds	r3, #4
 8002dd0:	4618      	mov	r0, r3
 8002dd2:	f004 fe52 	bl	8007a7a <memcpy>

  canardHandleRxFrame(&canard, &rxFrame, HAL_GetTick() * 1000U);
 8002dd6:	f001 f8f9 	bl	8003fcc <HAL_GetTick>
 8002dda:	4603      	mov	r3, r0
 8002ddc:	f44f 727a 	mov.w	r2, #1000	@ 0x3e8
 8002de0:	fb02 f303 	mul.w	r3, r2, r3
 8002de4:	2200      	movs	r2, #0
 8002de6:	461c      	mov	r4, r3
 8002de8:	4615      	mov	r5, r2
 8002dea:	f107 010c 	add.w	r1, r7, #12
 8002dee:	4622      	mov	r2, r4
 8002df0:	462b      	mov	r3, r5
 8002df2:	4804      	ldr	r0, [pc, #16]	@ (8002e04 <HAL_CAN_RxFifo0MsgPendingCallback+0xa8>)
 8002df4:	f7fd fe42 	bl	8000a7c <canardHandleRxFrame>
 8002df8:	e000      	b.n	8002dfc <HAL_CAN_RxFifo0MsgPendingCallback+0xa0>
      return;
 8002dfa:	bf00      	nop
}
 8002dfc:	3740      	adds	r7, #64	@ 0x40
 8002dfe:	46bd      	mov	sp, r7
 8002e00:	bdb0      	pop	{r4, r5, r7, pc}
 8002e02:	bf00      	nop
 8002e04:	200000d8 	.word	0x200000d8

08002e08 <initCAN>:

void initCAN(void)
{
 8002e08:	b580      	push	{r7, lr}
 8002e0a:	b090      	sub	sp, #64	@ 0x40
 8002e0c:	af02      	add	r7, sp, #8
  // configure HAL CAN
  CAN_FilterTypeDef canfil;
  canfil.FilterBank = 0;
 8002e0e:	2300      	movs	r3, #0
 8002e10:	627b      	str	r3, [r7, #36]	@ 0x24
  canfil.FilterMode = CAN_FILTERMODE_IDMASK;
 8002e12:	2300      	movs	r3, #0
 8002e14:	62bb      	str	r3, [r7, #40]	@ 0x28
  canfil.FilterFIFOAssignment = CAN_RX_FIFO0;
 8002e16:	2300      	movs	r3, #0
 8002e18:	623b      	str	r3, [r7, #32]
  canfil.FilterIdHigh = 0;
 8002e1a:	2300      	movs	r3, #0
 8002e1c:	613b      	str	r3, [r7, #16]
  canfil.FilterIdLow = 0;
 8002e1e:	2300      	movs	r3, #0
 8002e20:	617b      	str	r3, [r7, #20]
  canfil.FilterMaskIdHigh = 0;
 8002e22:	2300      	movs	r3, #0
 8002e24:	61bb      	str	r3, [r7, #24]
  canfil.FilterMaskIdLow = 0;
 8002e26:	2300      	movs	r3, #0
 8002e28:	61fb      	str	r3, [r7, #28]
  canfil.FilterScale = CAN_FILTERSCALE_32BIT;
 8002e2a:	2301      	movs	r3, #1
 8002e2c:	62fb      	str	r3, [r7, #44]	@ 0x2c
  canfil.FilterActivation = ENABLE;
 8002e2e:	2301      	movs	r3, #1
 8002e30:	633b      	str	r3, [r7, #48]	@ 0x30
  canfil.SlaveStartFilterBank = 0;
 8002e32:	2300      	movs	r3, #0
 8002e34:	637b      	str	r3, [r7, #52]	@ 0x34
  HAL_CAN_ConfigFilter(&hcan1, &canfil);
 8002e36:	f107 0310 	add.w	r3, r7, #16
 8002e3a:	4619      	mov	r1, r3
 8002e3c:	4817      	ldr	r0, [pc, #92]	@ (8002e9c <initCAN+0x94>)
 8002e3e:	f001 fa14 	bl	800426a <HAL_CAN_ConfigFilter>

  HAL_CAN_ActivateNotification(&hcan1, CAN_IT_RX_FIFO0_MSG_PENDING);
 8002e42:	2102      	movs	r1, #2
 8002e44:	4815      	ldr	r0, [pc, #84]	@ (8002e9c <initCAN+0x94>)
 8002e46:	f001 fd45 	bl	80048d4 <HAL_CAN_ActivateNotification>

  // configure Canard
  canardInit(&canard,
 8002e4a:	2300      	movs	r3, #0
 8002e4c:	9301      	str	r3, [sp, #4]
 8002e4e:	4b14      	ldr	r3, [pc, #80]	@ (8002ea0 <initCAN+0x98>)
 8002e50:	9300      	str	r3, [sp, #0]
 8002e52:	4b14      	ldr	r3, [pc, #80]	@ (8002ea4 <initCAN+0x9c>)
 8002e54:	f44f 6280 	mov.w	r2, #1024	@ 0x400
 8002e58:	4913      	ldr	r1, [pc, #76]	@ (8002ea8 <initCAN+0xa0>)
 8002e5a:	4814      	ldr	r0, [pc, #80]	@ (8002eac <initCAN+0xa4>)
 8002e5c:	f7fd fc28 	bl	80006b0 <canardInit>
    onTransferReceived,
    shouldAcceptTransfer,
    NULL
  );

  canardSetLocalNodeID(&canard, CAN_NODE_ID);
 8002e60:	2145      	movs	r1, #69	@ 0x45
 8002e62:	4812      	ldr	r0, [pc, #72]	@ (8002eac <initCAN+0xa4>)
 8002e64:	f7fd fc58 	bl	8000718 <canardSetLocalNodeID>

  // set hardware id
  uint32_t tmpHID[] = {HAL_GetUIDw2(), HAL_GetUIDw1(), HAL_GetUIDw0()};
 8002e68:	f001 f8f8 	bl	800405c <HAL_GetUIDw2>
 8002e6c:	4603      	mov	r3, r0
 8002e6e:	607b      	str	r3, [r7, #4]
 8002e70:	f001 f8e8 	bl	8004044 <HAL_GetUIDw1>
 8002e74:	4603      	mov	r3, r0
 8002e76:	60bb      	str	r3, [r7, #8]
 8002e78:	f001 f8d8 	bl	800402c <HAL_GetUIDw0>
 8002e7c:	4603      	mov	r3, r0
 8002e7e:	60fb      	str	r3, [r7, #12]
  memcpy(hardwareID + 4, tmpHID, 12);
 8002e80:	480b      	ldr	r0, [pc, #44]	@ (8002eb0 <initCAN+0xa8>)
 8002e82:	1d3b      	adds	r3, r7, #4
 8002e84:	220c      	movs	r2, #12
 8002e86:	4619      	mov	r1, r3
 8002e88:	f004 fdf7 	bl	8007a7a <memcpy>

  // start HAL driver
  HAL_CAN_Start(&hcan1);
 8002e8c:	4803      	ldr	r0, [pc, #12]	@ (8002e9c <initCAN+0x94>)
 8002e8e:	f001 fab6 	bl	80043fe <HAL_CAN_Start>
}
 8002e92:	bf00      	nop
 8002e94:	3738      	adds	r7, #56	@ 0x38
 8002e96:	46bd      	mov	sp, r7
 8002e98:	bd80      	pop	{r7, pc}
 8002e9a:	bf00      	nop
 8002e9c:	200000a4 	.word	0x200000a4
 8002ea0:	08002bd1 	.word	0x08002bd1
 8002ea4:	08002cd9 	.word	0x08002cd9
 8002ea8:	20000104 	.word	0x20000104
 8002eac:	200000d8 	.word	0x200000d8
 8002eb0:	20000508 	.word	0x20000508

08002eb4 <sendCANTx>:

void sendCANTx(void)
{
 8002eb4:	b580      	push	{r7, lr}
 8002eb6:	b088      	sub	sp, #32
 8002eb8:	af00      	add	r7, sp, #0
  while(1)
  {
    CanardCANFrame* frame = canardPeekTxQueue(&canard);
 8002eba:	481b      	ldr	r0, [pc, #108]	@ (8002f28 <sendCANTx+0x74>)
 8002ebc:	f7fd fdb6 	bl	8000a2c <canardPeekTxQueue>
 8002ec0:	61f8      	str	r0, [r7, #28]
    if(frame == NULL)
 8002ec2:	69fb      	ldr	r3, [r7, #28]
 8002ec4:	2b00      	cmp	r3, #0
 8002ec6:	d029      	beq.n	8002f1c <sendCANTx+0x68>
    {
      return;
    }

    if(HAL_CAN_GetTxMailboxesFreeLevel(&hcan1) > 0)
 8002ec8:	4818      	ldr	r0, [pc, #96]	@ (8002f2c <sendCANTx+0x78>)
 8002eca:	f001 fbac 	bl	8004626 <HAL_CAN_GetTxMailboxesFreeLevel>
 8002ece:	4603      	mov	r3, r0
 8002ed0:	2b00      	cmp	r3, #0
 8002ed2:	d025      	beq.n	8002f20 <sendCANTx+0x6c>
    {
      CAN_TxHeaderTypeDef txHeader = {0};
 8002ed4:	1d3b      	adds	r3, r7, #4
 8002ed6:	2200      	movs	r2, #0
 8002ed8:	601a      	str	r2, [r3, #0]
 8002eda:	605a      	str	r2, [r3, #4]
 8002edc:	609a      	str	r2, [r3, #8]
 8002ede:	60da      	str	r2, [r3, #12]
 8002ee0:	611a      	str	r2, [r3, #16]
 8002ee2:	615a      	str	r2, [r3, #20]
      txHeader.ExtId = frame->id & 0x1FFFFFFF;
 8002ee4:	69fb      	ldr	r3, [r7, #28]
 8002ee6:	681b      	ldr	r3, [r3, #0]
 8002ee8:	f023 4360 	bic.w	r3, r3, #3758096384	@ 0xe0000000
 8002eec:	60bb      	str	r3, [r7, #8]
      txHeader.IDE = CAN_ID_EXT;
 8002eee:	2304      	movs	r3, #4
 8002ef0:	60fb      	str	r3, [r7, #12]
      txHeader.RTR = CAN_RTR_DATA;
 8002ef2:	2300      	movs	r3, #0
 8002ef4:	613b      	str	r3, [r7, #16]
      txHeader.DLC = frame->data_len;
 8002ef6:	69fb      	ldr	r3, [r7, #28]
 8002ef8:	7b1b      	ldrb	r3, [r3, #12]
 8002efa:	617b      	str	r3, [r7, #20]

      uint32_t txMailboxUsed = 0;
 8002efc:	2300      	movs	r3, #0
 8002efe:	603b      	str	r3, [r7, #0]
      if(HAL_CAN_AddTxMessage(&hcan1, &txHeader, frame->data, &txMailboxUsed) == HAL_OK)
 8002f00:	69fb      	ldr	r3, [r7, #28]
 8002f02:	1d1a      	adds	r2, r3, #4
 8002f04:	463b      	mov	r3, r7
 8002f06:	1d39      	adds	r1, r7, #4
 8002f08:	4808      	ldr	r0, [pc, #32]	@ (8002f2c <sendCANTx+0x78>)
 8002f0a:	f001 fabc 	bl	8004486 <HAL_CAN_AddTxMessage>
 8002f0e:	4603      	mov	r3, r0
 8002f10:	2b00      	cmp	r3, #0
 8002f12:	d1d2      	bne.n	8002eba <sendCANTx+0x6>
      {
        canardPopTxQueue(&canard);
 8002f14:	4804      	ldr	r0, [pc, #16]	@ (8002f28 <sendCANTx+0x74>)
 8002f16:	f7fd fd9c 	bl	8000a52 <canardPopTxQueue>
  {
 8002f1a:	e7ce      	b.n	8002eba <sendCANTx+0x6>
      return;
 8002f1c:	bf00      	nop
 8002f1e:	e000      	b.n	8002f22 <sendCANTx+0x6e>
      }
    }
    else
    {
      return;
 8002f20:	bf00      	nop
    }
  }
}
 8002f22:	3720      	adds	r7, #32
 8002f24:	46bd      	mov	sp, r7
 8002f26:	bd80      	pop	{r7, pc}
 8002f28:	200000d8 	.word	0x200000d8
 8002f2c:	200000a4 	.word	0x200000a4

08002f30 <periodicCANTasks>:

void periodicCANTasks(void)
{
 8002f30:	b5b0      	push	{r4, r5, r7, lr}
 8002f32:	af00      	add	r7, sp, #0
  static uint32_t nextRunTime = 0;

  if(HAL_GetTick() >= nextRunTime)
 8002f34:	f001 f84a 	bl	8003fcc <HAL_GetTick>
 8002f38:	4602      	mov	r2, r0
 8002f3a:	4b0e      	ldr	r3, [pc, #56]	@ (8002f74 <periodicCANTasks+0x44>)
 8002f3c:	681b      	ldr	r3, [r3, #0]
 8002f3e:	429a      	cmp	r2, r3
 8002f40:	d316      	bcc.n	8002f70 <periodicCANTasks+0x40>
  {
    nextRunTime += 1000U;
 8002f42:	4b0c      	ldr	r3, [pc, #48]	@ (8002f74 <periodicCANTasks+0x44>)
 8002f44:	681b      	ldr	r3, [r3, #0]
 8002f46:	f503 737a 	add.w	r3, r3, #1000	@ 0x3e8
 8002f4a:	4a0a      	ldr	r2, [pc, #40]	@ (8002f74 <periodicCANTasks+0x44>)
 8002f4c:	6013      	str	r3, [r2, #0]

    canardCleanupStaleTransfers(&canard, HAL_GetTick() * 1000U);
 8002f4e:	f001 f83d 	bl	8003fcc <HAL_GetTick>
 8002f52:	4603      	mov	r3, r0
 8002f54:	f44f 727a 	mov.w	r2, #1000	@ 0x3e8
 8002f58:	fb02 f303 	mul.w	r3, r2, r3
 8002f5c:	2200      	movs	r2, #0
 8002f5e:	461c      	mov	r4, r3
 8002f60:	4615      	mov	r5, r2
 8002f62:	4622      	mov	r2, r4
 8002f64:	462b      	mov	r3, r5
 8002f66:	4804      	ldr	r0, [pc, #16]	@ (8002f78 <periodicCANTasks+0x48>)
 8002f68:	f7fe f926 	bl	80011b8 <canardCleanupStaleTransfers>
    sendNodeStatus();
 8002f6c:	f7ff fb00 	bl	8002570 <sendNodeStatus>
  }
}
 8002f70:	bf00      	nop
 8002f72:	bdb0      	pop	{r4, r5, r7, pc}
 8002f74:	20000518 	.word	0x20000518
 8002f78:	200000d8 	.word	0x200000d8

08002f7c <MX_GPIO_Init>:
        * EXTI
     PA2   ------> USART2_TX
     PA3   ------> USART2_RX
*/
void MX_GPIO_Init(void)
{
 8002f7c:	b580      	push	{r7, lr}
 8002f7e:	b08a      	sub	sp, #40	@ 0x28
 8002f80:	af00      	add	r7, sp, #0

  GPIO_InitTypeDef GPIO_InitStruct = {0};
 8002f82:	f107 0314 	add.w	r3, r7, #20
 8002f86:	2200      	movs	r2, #0
 8002f88:	601a      	str	r2, [r3, #0]
 8002f8a:	605a      	str	r2, [r3, #4]
 8002f8c:	609a      	str	r2, [r3, #8]
 8002f8e:	60da      	str	r2, [r3, #12]
 8002f90:	611a      	str	r2, [r3, #16]

  /* GPIO Ports Clock Enable */
  __HAL_RCC_GPIOC_CLK_ENABLE();
 8002f92:	4b45      	ldr	r3, [pc, #276]	@ (80030a8 <MX_GPIO_Init+0x12c>)
 8002f94:	6cdb      	ldr	r3, [r3, #76]	@ 0x4c
 8002f96:	4a44      	ldr	r2, [pc, #272]	@ (80030a8 <MX_GPIO_Init+0x12c>)
 8002f98:	f043 0304 	orr.w	r3, r3, #4
 8002f9c:	64d3      	str	r3, [r2, #76]	@ 0x4c
 8002f9e:	4b42      	ldr	r3, [pc, #264]	@ (80030a8 <MX_GPIO_Init+0x12c>)
 8002fa0:	6cdb      	ldr	r3, [r3, #76]	@ 0x4c
 8002fa2:	f003 0304 	and.w	r3, r3, #4
 8002fa6:	613b      	str	r3, [r7, #16]
 8002fa8:	693b      	ldr	r3, [r7, #16]
  __HAL_RCC_GPIOH_CLK_ENABLE();
 8002faa:	4b3f      	ldr	r3, [pc, #252]	@ (80030a8 <MX_GPIO_Init+0x12c>)
 8002fac:	6cdb      	ldr	r3, [r3, #76]	@ 0x4c
 8002fae:	4a3e      	ldr	r2, [pc, #248]	@ (80030a8 <MX_GPIO_Init+0x12c>)
 8002fb0:	f043 0380 	orr.w	r3, r3, #128	@ 0x80
 8002fb4:	64d3      	str	r3, [r2, #76]	@ 0x4c
 8002fb6:	4b3c      	ldr	r3, [pc, #240]	@ (80030a8 <MX_GPIO_Init+0x12c>)
 8002fb8:	6cdb      	ldr	r3, [r3, #76]	@ 0x4c
 8002fba:	f003 0380 	and.w	r3, r3, #128	@ 0x80
 8002fbe:	60fb      	str	r3, [r7, #12]
 8002fc0:	68fb      	ldr	r3, [r7, #12]
  __HAL_RCC_GPIOA_CLK_ENABLE();
 8002fc2:	4b39      	ldr	r3, [pc, #228]	@ (80030a8 <MX_GPIO_Init+0x12c>)
 8002fc4:	6cdb      	ldr	r3, [r3, #76]	@ 0x4c
 8002fc6:	4a38      	ldr	r2, [pc, #224]	@ (80030a8 <MX_GPIO_Init+0x12c>)
 8002fc8:	f043 0301 	orr.w	r3, r3, #1
 8002fcc:	64d3      	str	r3, [r2, #76]	@ 0x4c
 8002fce:	4b36      	ldr	r3, [pc, #216]	@ (80030a8 <MX_GPIO_Init+0x12c>)
 8002fd0:	6cdb      	ldr	r3, [r3, #76]	@ 0x4c
 8002fd2:	f003 0301 	and.w	r3, r3, #1
 8002fd6:	60bb      	str	r3, [r7, #8]
 8002fd8:	68bb      	ldr	r3, [r7, #8]
  __HAL_RCC_GPIOB_CLK_ENABLE();
 8002fda:	4b33      	ldr	r3, [pc, #204]	@ (80030a8 <MX_GPIO_Init+0x12c>)
 8002fdc:	6cdb      	ldr	r3, [r3, #76]	@ 0x4c
 8002fde:	4a32      	ldr	r2, [pc, #200]	@ (80030a8 <MX_GPIO_Init+0x12c>)
 8002fe0:	f043 0302 	orr.w	r3, r3, #2
 8002fe4:	64d3      	str	r3, [r2, #76]	@ 0x4c
 8002fe6:	4b30      	ldr	r3, [pc, #192]	@ (80030a8 <MX_GPIO_Init+0x12c>)
 8002fe8:	6cdb      	ldr	r3, [r3, #76]	@ 0x4c
 8002fea:	f003 0302 	and.w	r3, r3, #2
 8002fee:	607b      	str	r3, [r7, #4]
 8002ff0:	687b      	ldr	r3, [r7, #4]

  /*Configure GPIO pin Output Level */
  HAL_GPIO_WritePin(GPIOA, SMPS_EN_Pin|SMPS_V1_Pin|SMPS_SW_Pin, GPIO_PIN_RESET);
 8002ff2:	2200      	movs	r2, #0
 8002ff4:	21b0      	movs	r1, #176	@ 0xb0
 8002ff6:	f04f 4090 	mov.w	r0, #1207959552	@ 0x48000000
 8002ffa:	f002 fbc3 	bl	8005784 <HAL_GPIO_WritePin>

  /*Configure GPIO pin Output Level */
  HAL_GPIO_WritePin(LD4_GPIO_Port, LD4_Pin, GPIO_PIN_RESET);
 8002ffe:	2200      	movs	r2, #0
 8003000:	f44f 5100 	mov.w	r1, #8192	@ 0x2000
 8003004:	4829      	ldr	r0, [pc, #164]	@ (80030ac <MX_GPIO_Init+0x130>)
 8003006:	f002 fbbd 	bl	8005784 <HAL_GPIO_WritePin>

  /*Configure GPIO pin : PtPin */
  GPIO_InitStruct.Pin = B1_Pin;
 800300a:	f44f 5300 	mov.w	r3, #8192	@ 0x2000
 800300e:	617b      	str	r3, [r7, #20]
  GPIO_InitStruct.Mode = GPIO_MODE_IT_FALLING;
 8003010:	f44f 1304 	mov.w	r3, #2162688	@ 0x210000
 8003014:	61bb      	str	r3, [r7, #24]
  GPIO_InitStruct.Pull = GPIO_NOPULL;
 8003016:	2300      	movs	r3, #0
 8003018:	61fb      	str	r3, [r7, #28]
  HAL_GPIO_Init(B1_GPIO_Port, &GPIO_InitStruct);
 800301a:	f107 0314 	add.w	r3, r7, #20
 800301e:	4619      	mov	r1, r3
 8003020:	4823      	ldr	r0, [pc, #140]	@ (80030b0 <MX_GPIO_Init+0x134>)
 8003022:	f002 fa35 	bl	8005490 <HAL_GPIO_Init>

  /*Configure GPIO pins : PAPin PAPin */
  GPIO_InitStruct.Pin = USART_TX_Pin|USART_RX_Pin;
 8003026:	230c      	movs	r3, #12
 8003028:	617b      	str	r3, [r7, #20]
  GPIO_InitStruct.Mode = GPIO_MODE_AF_PP;
 800302a:	2302      	movs	r3, #2
 800302c:	61bb      	str	r3, [r7, #24]
  GPIO_InitStruct.Pull = GPIO_NOPULL;
 800302e:	2300      	movs	r3, #0
 8003030:	61fb      	str	r3, [r7, #28]
  GPIO_InitStruct.Speed = GPIO_SPEED_FREQ_VERY_HIGH;
 8003032:	2303      	movs	r3, #3
 8003034:	623b      	str	r3, [r7, #32]
  GPIO_InitStruct.Alternate = GPIO_AF7_USART2;
 8003036:	2307      	movs	r3, #7
 8003038:	627b      	str	r3, [r7, #36]	@ 0x24
  HAL_GPIO_Init(GPIOA, &GPIO_InitStruct);
 800303a:	f107 0314 	add.w	r3, r7, #20
 800303e:	4619      	mov	r1, r3
 8003040:	f04f 4090 	mov.w	r0, #1207959552	@ 0x48000000
 8003044:	f002 fa24 	bl	8005490 <HAL_GPIO_Init>

  /*Configure GPIO pins : PAPin PAPin PAPin */
  GPIO_InitStruct.Pin = SMPS_EN_Pin|SMPS_V1_Pin|SMPS_SW_Pin;
 8003048:	23b0      	movs	r3, #176	@ 0xb0
 800304a:	617b      	str	r3, [r7, #20]
  GPIO_InitStruct.Mode = GPIO_MODE_OUTPUT_PP;
 800304c:	2301      	movs	r3, #1
 800304e:	61bb      	str	r3, [r7, #24]
  GPIO_InitStruct.Pull = GPIO_NOPULL;
 8003050:	2300      	movs	r3, #0
 8003052:	61fb      	str	r3, [r7, #28]
  GPIO_InitStruct.Speed = GPIO_SPEED_FREQ_LOW;
 8003054:	2300      	movs	r3, #0
 8003056:	623b      	str	r3, [r7, #32]
  HAL_GPIO_Init(GPIOA, &GPIO_InitStruct);
 8003058:	f107 0314 	add.w	r3, r7, #20
 800305c:	4619      	mov	r1, r3
 800305e:	f04f 4090 	mov.w	r0, #1207959552	@ 0x48000000
 8003062:	f002 fa15 	bl	8005490 <HAL_GPIO_Init>

  /*Configure GPIO pin : PtPin */
  GPIO_InitStruct.Pin = SMPS_PG_Pin;
 8003066:	2340      	movs	r3, #64	@ 0x40
 8003068:	617b      	str	r3, [r7, #20]
  GPIO_InitStruct.Mode = GPIO_MODE_INPUT;
 800306a:	2300      	movs	r3, #0
 800306c:	61bb      	str	r3, [r7, #24]
  GPIO_InitStruct.Pull = GPIO_PULLUP;
 800306e:	2301      	movs	r3, #1
 8003070:	61fb      	str	r3, [r7, #28]
  HAL_GPIO_Init(SMPS_PG_GPIO_Port, &GPIO_InitStruct);
 8003072:	f107 0314 	add.w	r3, r7, #20
 8003076:	4619      	mov	r1, r3
 8003078:	f04f 4090 	mov.w	r0, #1207959552	@ 0x48000000
 800307c:	f002 fa08 	bl	8005490 <HAL_GPIO_Init>

  /*Configure GPIO pin : PtPin */
  GPIO_InitStruct.Pin = LD4_Pin;
 8003080:	f44f 5300 	mov.w	r3, #8192	@ 0x2000
 8003084:	617b      	str	r3, [r7, #20]
  GPIO_InitStruct.Mode = GPIO_MODE_OUTPUT_PP;
 8003086:	2301      	movs	r3, #1
 8003088:	61bb      	str	r3, [r7, #24]
  GPIO_InitStruct.Pull = GPIO_NOPULL;
 800308a:	2300      	movs	r3, #0
 800308c:	61fb      	str	r3, [r7, #28]
  GPIO_InitStruct.Speed = GPIO_SPEED_FREQ_LOW;
 800308e:	2300      	movs	r3, #0
 8003090:	623b      	str	r3, [r7, #32]
  HAL_GPIO_Init(LD4_GPIO_Port, &GPIO_InitStruct);
 8003092:	f107 0314 	add.w	r3, r7, #20
 8003096:	4619      	mov	r1, r3
 8003098:	4804      	ldr	r0, [pc, #16]	@ (80030ac <MX_GPIO_Init+0x130>)
 800309a:	f002 f9f9 	bl	8005490 <HAL_GPIO_Init>

}
 800309e:	bf00      	nop
 80030a0:	3728      	adds	r7, #40	@ 0x28
 80030a2:	46bd      	mov	sp, r7
 80030a4:	bd80      	pop	{r7, pc}
 80030a6:	bf00      	nop
 80030a8:	40021000 	.word	0x40021000
 80030ac:	48000400 	.word	0x48000400
 80030b0:	48000800 	.word	0x48000800

080030b4 <__io_putchar>:
#ifdef __GNUC__
int __io_putchar(int ch)
#else
int fputc(int ch, FILE *f)
#endif
{
 80030b4:	b580      	push	{r7, lr}
 80030b6:	b082      	sub	sp, #8
 80030b8:	af00      	add	r7, sp, #0
 80030ba:	6078      	str	r0, [r7, #4]
	HAL_UART_Transmit(&huart1, (uint8_t *)&ch, 1, HAL_MAX_DELAY);
 80030bc:	1d39      	adds	r1, r7, #4
 80030be:	f04f 33ff 	mov.w	r3, #4294967295
 80030c2:	2201      	movs	r2, #1
 80030c4:	4803      	ldr	r0, [pc, #12]	@ (80030d4 <__io_putchar+0x20>)
 80030c6:	f003 fe33 	bl	8006d30 <HAL_UART_Transmit>
	return ch;
 80030ca:	687b      	ldr	r3, [r7, #4]
}
 80030cc:	4618      	mov	r0, r3
 80030ce:	3708      	adds	r7, #8
 80030d0:	46bd      	mov	sp, r7
 80030d2:	bd80      	pop	{r7, pc}
 80030d4:	20000634 	.word	0x20000634

080030d8 <main>:
/**
  * @brief  The application entry point.
  * @retval int
  */
int main(void)
{
 80030d8:	b580      	push	{r7, lr}
 80030da:	b082      	sub	sp, #8
 80030dc:	af00      	add	r7, sp, #0

  /* USER CODE BEGIN 1 */
	nodeStatus.health = UAVCAN_PROTOCOL_NODESTATUS_HEALTH_OK;
 80030de:	4b23      	ldr	r3, [pc, #140]	@ (800316c <main+0x94>)
 80030e0:	2200      	movs	r2, #0
 80030e2:	711a      	strb	r2, [r3, #4]
	nodeStatus.mode = UAVCAN_PROTOCOL_NODESTATUS_MODE_INITIALIZATION;
 80030e4:	4b21      	ldr	r3, [pc, #132]	@ (800316c <main+0x94>)
 80030e6:	2201      	movs	r2, #1
 80030e8:	715a      	strb	r2, [r3, #5]
	nodeStatus.sub_mode = 0;
 80030ea:	4b20      	ldr	r3, [pc, #128]	@ (800316c <main+0x94>)
 80030ec:	2200      	movs	r2, #0
 80030ee:	719a      	strb	r2, [r3, #6]
	nodeStatus.vendor_specific_status_code = 0;
 80030f0:	4b1e      	ldr	r3, [pc, #120]	@ (800316c <main+0x94>)
 80030f2:	2200      	movs	r2, #0
 80030f4:	811a      	strh	r2, [r3, #8]
  /* USER CODE END 1 */

  /* MCU Configuration--------------------------------------------------------*/

  /* Reset of all peripherals, Initializes the Flash interface and the Systick. */
  HAL_Init();
 80030f6:	f000 febd 	bl	8003e74 <HAL_Init>
  /* USER CODE BEGIN Init */

  /* USER CODE END Init */

  /* Configure the system clock */
  SystemClock_Config();
 80030fa:	f000 f83f 	bl	800317c <SystemClock_Config>
  /* USER CODE BEGIN SysInit */

  /* USER CODE END SysInit */

  /* Initialize all configured peripherals */
  MX_GPIO_Init();
 80030fe:	f7ff ff3d 	bl	8002f7c <MX_GPIO_Init>
  MX_CAN1_Init();
 8003102:	f7fd fa53 	bl	80005ac <MX_CAN1_Init>
  MX_USART1_UART_Init();
 8003106:	f000 f9f9 	bl	80034fc <MX_USART1_UART_Init>
  /* USER CODE BEGIN 2 */
  printf("STARTING BOOTLOADER...");
 800310a:	4819      	ldr	r0, [pc, #100]	@ (8003170 <main+0x98>)
 800310c:	f004 fbd2 	bl	80078b4 <iprintf>
  HAL_GPIO_WritePin(GPIOB, GPIO_PIN_13, GPIO_PIN_SET);
 8003110:	2201      	movs	r2, #1
 8003112:	f44f 5100 	mov.w	r1, #8192	@ 0x2000
 8003116:	4817      	ldr	r0, [pc, #92]	@ (8003174 <main+0x9c>)
 8003118:	f002 fb34 	bl	8005784 <HAL_GPIO_WritePin>

  initCAN();
 800311c:	f7ff fe74 	bl	8002e08 <initCAN>

  nodeStatus.mode = UAVCAN_PROTOCOL_NODESTATUS_MODE_OPERATIONAL;
 8003120:	4b12      	ldr	r3, [pc, #72]	@ (800316c <main+0x94>)
 8003122:	2200      	movs	r2, #0
 8003124:	715a      	strb	r2, [r3, #5]

	for(uint8_t i = 0; i < 100000000; i++){
 8003126:	2300      	movs	r3, #0
 8003128:	71fb      	strb	r3, [r7, #7]
		if(fwupdate.node_id != 0){
 800312a:	4b13      	ldr	r3, [pc, #76]	@ (8003178 <main+0xa0>)
 800312c:	f893 3100 	ldrb.w	r3, [r3, #256]	@ 0x100
 8003130:	2b00      	cmp	r3, #0
 8003132:	d000      	beq.n	8003136 <main+0x5e>
			break;
 8003134:	e00a      	b.n	800314c <main+0x74>
		}
		HAL_Delay(10);
 8003136:	200a      	movs	r0, #10
 8003138:	f000 ff54 	bl	8003fe4 <HAL_Delay>
//		printf("In Loop\n\r");
		sendCANTx();
 800313c:	f7ff feba 	bl	8002eb4 <sendCANTx>
		periodicCANTasks();
 8003140:	f7ff fef6 	bl	8002f30 <periodicCANTasks>
	for(uint8_t i = 0; i < 100000000; i++){
 8003144:	79fb      	ldrb	r3, [r7, #7]
 8003146:	3301      	adds	r3, #1
 8003148:	71fb      	strb	r3, [r7, #7]
		if(fwupdate.node_id != 0){
 800314a:	e7ee      	b.n	800312a <main+0x52>
    /* USER CODE END WHILE */

    /* USER CODE BEGIN 3 */


	if(fwupdate.node_id == 0){
 800314c:	4b0a      	ldr	r3, [pc, #40]	@ (8003178 <main+0xa0>)
 800314e:	f893 3100 	ldrb.w	r3, [r3, #256]	@ 0x100
 8003152:	2b00      	cmp	r3, #0
 8003154:	d102      	bne.n	800315c <main+0x84>
		goto_application();
 8003156:	f000 f863 	bl	8003220 <goto_application>
 800315a:	e001      	b.n	8003160 <main+0x88>
	}else{
		sendFirmwareRead();
 800315c:	f7ff fbe0 	bl	8002920 <sendFirmwareRead>
	}

	sendCANTx();
 8003160:	f7ff fea8 	bl	8002eb4 <sendCANTx>
	periodicCANTasks();
 8003164:	f7ff fee4 	bl	8002f30 <periodicCANTasks>
	if(fwupdate.node_id == 0){
 8003168:	e7f0      	b.n	800314c <main+0x74>
 800316a:	bf00      	nop
 800316c:	200000cc 	.word	0x200000cc
 8003170:	080085ec 	.word	0x080085ec
 8003174:	48000400 	.word	0x48000400
 8003178:	2000051c 	.word	0x2000051c

0800317c <SystemClock_Config>:
/**
  * @brief System Clock Configuration
  * @retval None
  */
void SystemClock_Config(void)
{
 800317c:	b580      	push	{r7, lr}
 800317e:	b096      	sub	sp, #88	@ 0x58
 8003180:	af00      	add	r7, sp, #0
  RCC_OscInitTypeDef RCC_OscInitStruct = {0};
 8003182:	f107 0314 	add.w	r3, r7, #20
 8003186:	2244      	movs	r2, #68	@ 0x44
 8003188:	2100      	movs	r1, #0
 800318a:	4618      	mov	r0, r3
 800318c:	f004 fbe7 	bl	800795e <memset>
  RCC_ClkInitTypeDef RCC_ClkInitStruct = {0};
 8003190:	463b      	mov	r3, r7
 8003192:	2200      	movs	r2, #0
 8003194:	601a      	str	r2, [r3, #0]
 8003196:	605a      	str	r2, [r3, #4]
 8003198:	609a      	str	r2, [r3, #8]
 800319a:	60da      	str	r2, [r3, #12]
 800319c:	611a      	str	r2, [r3, #16]

  /** Configure the main internal regulator output voltage
  */
  if (HAL_PWREx_ControlVoltageScaling(PWR_REGULATOR_VOLTAGE_SCALE1) != HAL_OK)
 800319e:	f44f 7000 	mov.w	r0, #512	@ 0x200
 80031a2:	f002 fb15 	bl	80057d0 <HAL_PWREx_ControlVoltageScaling>
 80031a6:	4603      	mov	r3, r0
 80031a8:	2b00      	cmp	r3, #0
 80031aa:	d001      	beq.n	80031b0 <SystemClock_Config+0x34>
  {
    Error_Handler();
 80031ac:	f000 f88c 	bl	80032c8 <Error_Handler>
  }

  /** Initializes the RCC Oscillators according to the specified parameters
  * in the RCC_OscInitTypeDef structure.
  */
  RCC_OscInitStruct.OscillatorType = RCC_OSCILLATORTYPE_HSI;
 80031b0:	2302      	movs	r3, #2
 80031b2:	617b      	str	r3, [r7, #20]
  RCC_OscInitStruct.HSIState = RCC_HSI_ON;
 80031b4:	f44f 7380 	mov.w	r3, #256	@ 0x100
 80031b8:	623b      	str	r3, [r7, #32]
  RCC_OscInitStruct.HSICalibrationValue = RCC_HSICALIBRATION_DEFAULT;
 80031ba:	2310      	movs	r3, #16
 80031bc:	627b      	str	r3, [r7, #36]	@ 0x24
  RCC_OscInitStruct.PLL.PLLState = RCC_PLL_ON;
 80031be:	2302      	movs	r3, #2
 80031c0:	63fb      	str	r3, [r7, #60]	@ 0x3c
  RCC_OscInitStruct.PLL.PLLSource = RCC_PLLSOURCE_HSI;
 80031c2:	2302      	movs	r3, #2
 80031c4:	643b      	str	r3, [r7, #64]	@ 0x40
  RCC_OscInitStruct.PLL.PLLM = 1;
 80031c6:	2301      	movs	r3, #1
 80031c8:	647b      	str	r3, [r7, #68]	@ 0x44
  RCC_OscInitStruct.PLL.PLLN = 10;
 80031ca:	230a      	movs	r3, #10
 80031cc:	64bb      	str	r3, [r7, #72]	@ 0x48
  RCC_OscInitStruct.PLL.PLLP = RCC_PLLP_DIV7;
 80031ce:	2307      	movs	r3, #7
 80031d0:	64fb      	str	r3, [r7, #76]	@ 0x4c
  RCC_OscInitStruct.PLL.PLLQ = RCC_PLLQ_DIV2;
 80031d2:	2302      	movs	r3, #2
 80031d4:	653b      	str	r3, [r7, #80]	@ 0x50
  RCC_OscInitStruct.PLL.PLLR = RCC_PLLR_DIV2;
 80031d6:	2302      	movs	r3, #2
 80031d8:	657b      	str	r3, [r7, #84]	@ 0x54
  if (HAL_RCC_OscConfig(&RCC_OscInitStruct) != HAL_OK)
 80031da:	f107 0314 	add.w	r3, r7, #20
 80031de:	4618      	mov	r0, r3
 80031e0:	f002 fbe4 	bl	80059ac <HAL_RCC_OscConfig>
 80031e4:	4603      	mov	r3, r0
 80031e6:	2b00      	cmp	r3, #0
 80031e8:	d001      	beq.n	80031ee <SystemClock_Config+0x72>
  {
    Error_Handler();
 80031ea:	f000 f86d 	bl	80032c8 <Error_Handler>
  }

  /** Initializes the CPU, AHB and APB buses clocks
  */
  RCC_ClkInitStruct.ClockType = RCC_CLOCKTYPE_HCLK|RCC_CLOCKTYPE_SYSCLK
 80031ee:	230f      	movs	r3, #15
 80031f0:	603b      	str	r3, [r7, #0]
                              |RCC_CLOCKTYPE_PCLK1|RCC_CLOCKTYPE_PCLK2;
  RCC_ClkInitStruct.SYSCLKSource = RCC_SYSCLKSOURCE_PLLCLK;
 80031f2:	2303      	movs	r3, #3
 80031f4:	607b      	str	r3, [r7, #4]
  RCC_ClkInitStruct.AHBCLKDivider = RCC_SYSCLK_DIV1;
 80031f6:	2300      	movs	r3, #0
 80031f8:	60bb      	str	r3, [r7, #8]
  RCC_ClkInitStruct.APB1CLKDivider = RCC_HCLK_DIV1;
 80031fa:	2300      	movs	r3, #0
 80031fc:	60fb      	str	r3, [r7, #12]
  RCC_ClkInitStruct.APB2CLKDivider = RCC_HCLK_DIV1;
 80031fe:	2300      	movs	r3, #0
 8003200:	613b      	str	r3, [r7, #16]

  if (HAL_RCC_ClockConfig(&RCC_ClkInitStruct, FLASH_LATENCY_4) != HAL_OK)
 8003202:	463b      	mov	r3, r7
 8003204:	2104      	movs	r1, #4
 8003206:	4618      	mov	r0, r3
 8003208:	f002 ffe4 	bl	80061d4 <HAL_RCC_ClockConfig>
 800320c:	4603      	mov	r3, r0
 800320e:	2b00      	cmp	r3, #0
 8003210:	d001      	beq.n	8003216 <SystemClock_Config+0x9a>
  {
    Error_Handler();
 8003212:	f000 f859 	bl	80032c8 <Error_Handler>
  }
}
 8003216:	bf00      	nop
 8003218:	3758      	adds	r7, #88	@ 0x58
 800321a:	46bd      	mov	sp, r7
 800321c:	bd80      	pop	{r7, pc}
	...

08003220 <goto_application>:

/* USER CODE BEGIN 4 */

static void goto_application(void){
 8003220:	b580      	push	{r7, lr}
 8003222:	b084      	sub	sp, #16
 8003224:	af00      	add	r7, sp, #0
	void (*app_reset_handler)(void) = (void (*)(void))(*(volatile uint32_t*)(0x08020000 + 4));
 8003226:	4b22      	ldr	r3, [pc, #136]	@ (80032b0 <goto_application+0x90>)
 8003228:	681b      	ldr	r3, [r3, #0]
 800322a:	60bb      	str	r3, [r7, #8]
	HAL_GPIO_WritePin(GPIOB, GPIO_PIN_13, GPIO_PIN_RESET);
 800322c:	2200      	movs	r2, #0
 800322e:	f44f 5100 	mov.w	r1, #8192	@ 0x2000
 8003232:	4820      	ldr	r0, [pc, #128]	@ (80032b4 <goto_application+0x94>)
 8003234:	f002 faa6 	bl	8005784 <HAL_GPIO_WritePin>
	HAL_Delay(1000);
 8003238:	f44f 707a 	mov.w	r0, #1000	@ 0x3e8
 800323c:	f000 fed2 	bl	8003fe4 <HAL_Delay>

	/* Reset the Clock */
	HAL_RCC_DeInit();
 8003240:	f002 fb1c 	bl	800587c <HAL_RCC_DeInit>
	HAL_DeInit();
 8003244:	f000 fe36 	bl	8003eb4 <HAL_DeInit>
  \details Disables IRQ interrupts by setting the I-bit in the CPSR.
           Can only be executed in Privileged modes.
 */
__STATIC_FORCEINLINE void __disable_irq(void)
{
  __ASM volatile ("cpsid i" : : : "memory");
 8003248:	b672      	cpsid	i
}
 800324a:	bf00      	nop
	__disable_irq();

	__set_MSP(*(volatile uint32_t*) 0x08020000);
 800324c:	4b1a      	ldr	r3, [pc, #104]	@ (80032b8 <goto_application+0x98>)
 800324e:	681b      	ldr	r3, [r3, #0]
 8003250:	607b      	str	r3, [r7, #4]
  \details Assigns the given value to the Main Stack Pointer (MSP).
  \param [in]    topOfMainStack  Main Stack Pointer value to set
 */
__STATIC_FORCEINLINE void __set_MSP(uint32_t topOfMainStack)
{
  __ASM volatile ("MSR msp, %0" : : "r" (topOfMainStack) : );
 8003252:	687b      	ldr	r3, [r7, #4]
 8003254:	f383 8808 	msr	MSP, r3
}
 8003258:	bf00      	nop
	SysTick->CTRL = 0;
 800325a:	4b18      	ldr	r3, [pc, #96]	@ (80032bc <goto_application+0x9c>)
 800325c:	2200      	movs	r2, #0
 800325e:	601a      	str	r2, [r3, #0]
	SysTick->LOAD = 0;
 8003260:	4b16      	ldr	r3, [pc, #88]	@ (80032bc <goto_application+0x9c>)
 8003262:	2200      	movs	r2, #0
 8003264:	605a      	str	r2, [r3, #4]
	SysTick->VAL = 0;
 8003266:	4b15      	ldr	r3, [pc, #84]	@ (80032bc <goto_application+0x9c>)
 8003268:	2200      	movs	r2, #0
 800326a:	609a      	str	r2, [r3, #8]

	SCB->VTOR = 0x08020000;
 800326c:	4b14      	ldr	r3, [pc, #80]	@ (80032c0 <goto_application+0xa0>)
 800326e:	4a12      	ldr	r2, [pc, #72]	@ (80032b8 <goto_application+0x98>)
 8003270:	609a      	str	r2, [r3, #8]

	// Disable all NVIC interrupts
	for (int i = 0; i < 8; i++) {
 8003272:	2300      	movs	r3, #0
 8003274:	60fb      	str	r3, [r7, #12]
 8003276:	e010      	b.n	800329a <goto_application+0x7a>
		NVIC->ICER[i] = 0xFFFFFFFF;
 8003278:	4a12      	ldr	r2, [pc, #72]	@ (80032c4 <goto_application+0xa4>)
 800327a:	68fb      	ldr	r3, [r7, #12]
 800327c:	3320      	adds	r3, #32
 800327e:	f04f 31ff 	mov.w	r1, #4294967295
 8003282:	f842 1023 	str.w	r1, [r2, r3, lsl #2]
		NVIC->ICPR[i] = 0xFFFFFFFF;
 8003286:	4a0f      	ldr	r2, [pc, #60]	@ (80032c4 <goto_application+0xa4>)
 8003288:	68fb      	ldr	r3, [r7, #12]
 800328a:	3360      	adds	r3, #96	@ 0x60
 800328c:	f04f 31ff 	mov.w	r1, #4294967295
 8003290:	f842 1023 	str.w	r1, [r2, r3, lsl #2]
	for (int i = 0; i < 8; i++) {
 8003294:	68fb      	ldr	r3, [r7, #12]
 8003296:	3301      	adds	r3, #1
 8003298:	60fb      	str	r3, [r7, #12]
 800329a:	68fb      	ldr	r3, [r7, #12]
 800329c:	2b07      	cmp	r3, #7
 800329e:	ddeb      	ble.n	8003278 <goto_application+0x58>
  __ASM volatile ("cpsie i" : : : "memory");
 80032a0:	b662      	cpsie	i
}
 80032a2:	bf00      	nop
	}

	__enable_irq();
	app_reset_handler();
 80032a4:	68bb      	ldr	r3, [r7, #8]
 80032a6:	4798      	blx	r3
}
 80032a8:	bf00      	nop
 80032aa:	3710      	adds	r7, #16
 80032ac:	46bd      	mov	sp, r7
 80032ae:	bd80      	pop	{r7, pc}
 80032b0:	08020004 	.word	0x08020004
 80032b4:	48000400 	.word	0x48000400
 80032b8:	08020000 	.word	0x08020000
 80032bc:	e000e010 	.word	0xe000e010
 80032c0:	e000ed00 	.word	0xe000ed00
 80032c4:	e000e100 	.word	0xe000e100

080032c8 <Error_Handler>:
/**
  * @brief  This function is executed in case of error occurrence.
  * @retval None
  */
void Error_Handler(void)
{
 80032c8:	b480      	push	{r7}
 80032ca:	af00      	add	r7, sp, #0
  __ASM volatile ("cpsid i" : : : "memory");
 80032cc:	b672      	cpsid	i
}
 80032ce:	bf00      	nop
  /* USER CODE BEGIN Error_Handler_Debug */
  /* User can add his own implementation to report the HAL error return state */
  __disable_irq();
  while (1)
 80032d0:	bf00      	nop
 80032d2:	e7fd      	b.n	80032d0 <Error_Handler+0x8>

080032d4 <HAL_MspInit>:
/* USER CODE END 0 */
/**
  * Initializes the Global MSP.
  */
void HAL_MspInit(void)
{
 80032d4:	b480      	push	{r7}
 80032d6:	b083      	sub	sp, #12
 80032d8:	af00      	add	r7, sp, #0

  /* USER CODE BEGIN MspInit 0 */

  /* USER CODE END MspInit 0 */

  __HAL_RCC_SYSCFG_CLK_ENABLE();
 80032da:	4b0f      	ldr	r3, [pc, #60]	@ (8003318 <HAL_MspInit+0x44>)
 80032dc:	6e1b      	ldr	r3, [r3, #96]	@ 0x60
 80032de:	4a0e      	ldr	r2, [pc, #56]	@ (8003318 <HAL_MspInit+0x44>)
 80032e0:	f043 0301 	orr.w	r3, r3, #1
 80032e4:	6613      	str	r3, [r2, #96]	@ 0x60
 80032e6:	4b0c      	ldr	r3, [pc, #48]	@ (8003318 <HAL_MspInit+0x44>)
 80032e8:	6e1b      	ldr	r3, [r3, #96]	@ 0x60
 80032ea:	f003 0301 	and.w	r3, r3, #1
 80032ee:	607b      	str	r3, [r7, #4]
 80032f0:	687b      	ldr	r3, [r7, #4]
  __HAL_RCC_PWR_CLK_ENABLE();
 80032f2:	4b09      	ldr	r3, [pc, #36]	@ (8003318 <HAL_MspInit+0x44>)
 80032f4:	6d9b      	ldr	r3, [r3, #88]	@ 0x58
 80032f6:	4a08      	ldr	r2, [pc, #32]	@ (8003318 <HAL_MspInit+0x44>)
 80032f8:	f043 5380 	orr.w	r3, r3, #268435456	@ 0x10000000
 80032fc:	6593      	str	r3, [r2, #88]	@ 0x58
 80032fe:	4b06      	ldr	r3, [pc, #24]	@ (8003318 <HAL_MspInit+0x44>)
 8003300:	6d9b      	ldr	r3, [r3, #88]	@ 0x58
 8003302:	f003 5380 	and.w	r3, r3, #268435456	@ 0x10000000
 8003306:	603b      	str	r3, [r7, #0]
 8003308:	683b      	ldr	r3, [r7, #0]
  /* System interrupt init*/

  /* USER CODE BEGIN MspInit 1 */

  /* USER CODE END MspInit 1 */
}
 800330a:	bf00      	nop
 800330c:	370c      	adds	r7, #12
 800330e:	46bd      	mov	sp, r7
 8003310:	f85d 7b04 	ldr.w	r7, [sp], #4
 8003314:	4770      	bx	lr
 8003316:	bf00      	nop
 8003318:	40021000 	.word	0x40021000

0800331c <NMI_Handler>:
/******************************************************************************/
/**
  * @brief This function handles Non maskable interrupt.
  */
void NMI_Handler(void)
{
 800331c:	b480      	push	{r7}
 800331e:	af00      	add	r7, sp, #0
  /* USER CODE BEGIN NonMaskableInt_IRQn 0 */

  /* USER CODE END NonMaskableInt_IRQn 0 */
  /* USER CODE BEGIN NonMaskableInt_IRQn 1 */
   while (1)
 8003320:	bf00      	nop
 8003322:	e7fd      	b.n	8003320 <NMI_Handler+0x4>

08003324 <HardFault_Handler>:

/**
  * @brief This function handles Hard fault interrupt.
  */
void HardFault_Handler(void)
{
 8003324:	b480      	push	{r7}
 8003326:	af00      	add	r7, sp, #0
  /* USER CODE BEGIN HardFault_IRQn 0 */

  /* USER CODE END HardFault_IRQn 0 */
  while (1)
 8003328:	bf00      	nop
 800332a:	e7fd      	b.n	8003328 <HardFault_Handler+0x4>

0800332c <MemManage_Handler>:

/**
  * @brief This function handles Memory management fault.
  */
void MemManage_Handler(void)
{
 800332c:	b480      	push	{r7}
 800332e:	af00      	add	r7, sp, #0
  /* USER CODE BEGIN MemoryManagement_IRQn 0 */

  /* USER CODE END MemoryManagement_IRQn 0 */
  while (1)
 8003330:	bf00      	nop
 8003332:	e7fd      	b.n	8003330 <MemManage_Handler+0x4>

08003334 <BusFault_Handler>:

/**
  * @brief This function handles Prefetch fault, memory access fault.
  */
void BusFault_Handler(void)
{
 8003334:	b480      	push	{r7}
 8003336:	af00      	add	r7, sp, #0
  /* USER CODE BEGIN BusFault_IRQn 0 */

  /* USER CODE END BusFault_IRQn 0 */
  while (1)
 8003338:	bf00      	nop
 800333a:	e7fd      	b.n	8003338 <BusFault_Handler+0x4>

0800333c <UsageFault_Handler>:

/**
  * @brief This function handles Undefined instruction or illegal state.
  */
void UsageFault_Handler(void)
{
 800333c:	b480      	push	{r7}
 800333e:	af00      	add	r7, sp, #0
  /* USER CODE BEGIN UsageFault_IRQn 0 */

  /* USER CODE END UsageFault_IRQn 0 */
  while (1)
 8003340:	bf00      	nop
 8003342:	e7fd      	b.n	8003340 <UsageFault_Handler+0x4>

08003344 <SVC_Handler>:

/**
  * @brief This function handles System service call via SWI instruction.
  */
void SVC_Handler(void)
{
 8003344:	b480      	push	{r7}
 8003346:	af00      	add	r7, sp, #0

  /* USER CODE END SVCall_IRQn 0 */
  /* USER CODE BEGIN SVCall_IRQn 1 */

  /* USER CODE END SVCall_IRQn 1 */
}
 8003348:	bf00      	nop
 800334a:	46bd      	mov	sp, r7
 800334c:	f85d 7b04 	ldr.w	r7, [sp], #4
 8003350:	4770      	bx	lr

08003352 <DebugMon_Handler>:

/**
  * @brief This function handles Debug monitor.
  */
void DebugMon_Handler(void)
{
 8003352:	b480      	push	{r7}
 8003354:	af00      	add	r7, sp, #0

  /* USER CODE END DebugMonitor_IRQn 0 */
  /* USER CODE BEGIN DebugMonitor_IRQn 1 */

  /* USER CODE END DebugMonitor_IRQn 1 */
}
 8003356:	bf00      	nop
 8003358:	46bd      	mov	sp, r7
 800335a:	f85d 7b04 	ldr.w	r7, [sp], #4
 800335e:	4770      	bx	lr

08003360 <PendSV_Handler>:

/**
  * @brief This function handles Pendable request for system service.
  */
void PendSV_Handler(void)
{
 8003360:	b480      	push	{r7}
 8003362:	af00      	add	r7, sp, #0

  /* USER CODE END PendSV_IRQn 0 */
  /* USER CODE BEGIN PendSV_IRQn 1 */

  /* USER CODE END PendSV_IRQn 1 */
}
 8003364:	bf00      	nop
 8003366:	46bd      	mov	sp, r7
 8003368:	f85d 7b04 	ldr.w	r7, [sp], #4
 800336c:	4770      	bx	lr

0800336e <SysTick_Handler>:

/**
  * @brief This function handles System tick timer.
  */
void SysTick_Handler(void)
{
 800336e:	b580      	push	{r7, lr}
 8003370:	af00      	add	r7, sp, #0
  /* USER CODE BEGIN SysTick_IRQn 0 */

  /* USER CODE END SysTick_IRQn 0 */
  HAL_IncTick();
 8003372:	f000 fe17 	bl	8003fa4 <HAL_IncTick>
  /* USER CODE BEGIN SysTick_IRQn 1 */

  /* USER CODE END SysTick_IRQn 1 */
}
 8003376:	bf00      	nop
 8003378:	bd80      	pop	{r7, pc}
	...

0800337c <CAN1_RX0_IRQHandler>:

/**
  * @brief This function handles CAN1 RX0 interrupt.
  */
void CAN1_RX0_IRQHandler(void)
{
 800337c:	b580      	push	{r7, lr}
 800337e:	af00      	add	r7, sp, #0
  /* USER CODE BEGIN CAN1_RX0_IRQn 0 */

  /* USER CODE END CAN1_RX0_IRQn 0 */
  HAL_CAN_IRQHandler(&hcan1);
 8003380:	4802      	ldr	r0, [pc, #8]	@ (800338c <CAN1_RX0_IRQHandler+0x10>)
 8003382:	f001 facd 	bl	8004920 <HAL_CAN_IRQHandler>
  /* USER CODE BEGIN CAN1_RX0_IRQn 1 */

  /* USER CODE END CAN1_RX0_IRQn 1 */
}
 8003386:	bf00      	nop
 8003388:	bd80      	pop	{r7, pc}
 800338a:	bf00      	nop
 800338c:	200000a4 	.word	0x200000a4

08003390 <_read>:
  _kill(status, -1);
  while (1) {}    /* Make sure we hang here */
}

__attribute__((weak)) int _read(int file, char *ptr, int len)
{
 8003390:	b580      	push	{r7, lr}
 8003392:	b086      	sub	sp, #24
 8003394:	af00      	add	r7, sp, #0
 8003396:	60f8      	str	r0, [r7, #12]
 8003398:	60b9      	str	r1, [r7, #8]
 800339a:	607a      	str	r2, [r7, #4]
  (void)file;
  int DataIdx;

  for (DataIdx = 0; DataIdx < len; DataIdx++)
 800339c:	2300      	movs	r3, #0
 800339e:	617b      	str	r3, [r7, #20]
 80033a0:	e00a      	b.n	80033b8 <_read+0x28>
  {
    *ptr++ = __io_getchar();
 80033a2:	f3af 8000 	nop.w
 80033a6:	4601      	mov	r1, r0
 80033a8:	68bb      	ldr	r3, [r7, #8]
 80033aa:	1c5a      	adds	r2, r3, #1
 80033ac:	60ba      	str	r2, [r7, #8]
 80033ae:	b2ca      	uxtb	r2, r1
 80033b0:	701a      	strb	r2, [r3, #0]
  for (DataIdx = 0; DataIdx < len; DataIdx++)
 80033b2:	697b      	ldr	r3, [r7, #20]
 80033b4:	3301      	adds	r3, #1
 80033b6:	617b      	str	r3, [r7, #20]
 80033b8:	697a      	ldr	r2, [r7, #20]
 80033ba:	687b      	ldr	r3, [r7, #4]
 80033bc:	429a      	cmp	r2, r3
 80033be:	dbf0      	blt.n	80033a2 <_read+0x12>
  }

  return len;
 80033c0:	687b      	ldr	r3, [r7, #4]
}
 80033c2:	4618      	mov	r0, r3
 80033c4:	3718      	adds	r7, #24
 80033c6:	46bd      	mov	sp, r7
 80033c8:	bd80      	pop	{r7, pc}

080033ca <_write>:

__attribute__((weak)) int _write(int file, char *ptr, int len)
{
 80033ca:	b580      	push	{r7, lr}
 80033cc:	b086      	sub	sp, #24
 80033ce:	af00      	add	r7, sp, #0
 80033d0:	60f8      	str	r0, [r7, #12]
 80033d2:	60b9      	str	r1, [r7, #8]
 80033d4:	607a      	str	r2, [r7, #4]
  (void)file;
  int DataIdx;

  for (DataIdx = 0; DataIdx < len; DataIdx++)
 80033d6:	2300      	movs	r3, #0
 80033d8:	617b      	str	r3, [r7, #20]
 80033da:	e009      	b.n	80033f0 <_write+0x26>
  {
    __io_putchar(*ptr++);
 80033dc:	68bb      	ldr	r3, [r7, #8]
 80033de:	1c5a      	adds	r2, r3, #1
 80033e0:	60ba      	str	r2, [r7, #8]
 80033e2:	781b      	ldrb	r3, [r3, #0]
 80033e4:	4618      	mov	r0, r3
 80033e6:	f7ff fe65 	bl	80030b4 <__io_putchar>
  for (DataIdx = 0; DataIdx < len; DataIdx++)
 80033ea:	697b      	ldr	r3, [r7, #20]
 80033ec:	3301      	adds	r3, #1
 80033ee:	617b      	str	r3, [r7, #20]
 80033f0:	697a      	ldr	r2, [r7, #20]
 80033f2:	687b      	ldr	r3, [r7, #4]
 80033f4:	429a      	cmp	r2, r3
 80033f6:	dbf1      	blt.n	80033dc <_write+0x12>
  }
  return len;
 80033f8:	687b      	ldr	r3, [r7, #4]
}
 80033fa:	4618      	mov	r0, r3
 80033fc:	3718      	adds	r7, #24
 80033fe:	46bd      	mov	sp, r7
 8003400:	bd80      	pop	{r7, pc}

08003402 <_close>:

int _close(int file)
{
 8003402:	b480      	push	{r7}
 8003404:	b083      	sub	sp, #12
 8003406:	af00      	add	r7, sp, #0
 8003408:	6078      	str	r0, [r7, #4]
  (void)file;
  return -1;
 800340a:	f04f 33ff 	mov.w	r3, #4294967295
}
 800340e:	4618      	mov	r0, r3
 8003410:	370c      	adds	r7, #12
 8003412:	46bd      	mov	sp, r7
 8003414:	f85d 7b04 	ldr.w	r7, [sp], #4
 8003418:	4770      	bx	lr

0800341a <_fstat>:


int _fstat(int file, struct stat *st)
{
 800341a:	b480      	push	{r7}
 800341c:	b083      	sub	sp, #12
 800341e:	af00      	add	r7, sp, #0
 8003420:	6078      	str	r0, [r7, #4]
 8003422:	6039      	str	r1, [r7, #0]
  (void)file;
  st->st_mode = S_IFCHR;
 8003424:	683b      	ldr	r3, [r7, #0]
 8003426:	f44f 5200 	mov.w	r2, #8192	@ 0x2000
 800342a:	605a      	str	r2, [r3, #4]
  return 0;
 800342c:	2300      	movs	r3, #0
}
 800342e:	4618      	mov	r0, r3
 8003430:	370c      	adds	r7, #12
 8003432:	46bd      	mov	sp, r7
 8003434:	f85d 7b04 	ldr.w	r7, [sp], #4
 8003438:	4770      	bx	lr

0800343a <_isatty>:

int _isatty(int file)
{
 800343a:	b480      	push	{r7}
 800343c:	b083      	sub	sp, #12
 800343e:	af00      	add	r7, sp, #0
 8003440:	6078      	str	r0, [r7, #4]
  (void)file;
  return 1;
 8003442:	2301      	movs	r3, #1
}
 8003444:	4618      	mov	r0, r3
 8003446:	370c      	adds	r7, #12
 8003448:	46bd      	mov	sp, r7
 800344a:	f85d 7b04 	ldr.w	r7, [sp], #4
 800344e:	4770      	bx	lr

08003450 <_lseek>:

int _lseek(int file, int ptr, int dir)
{
 8003450:	b480      	push	{r7}
 8003452:	b085      	sub	sp, #20
 8003454:	af00      	add	r7, sp, #0
 8003456:	60f8      	str	r0, [r7, #12]
 8003458:	60b9      	str	r1, [r7, #8]
 800345a:	607a      	str	r2, [r7, #4]
  (void)file;
  (void)ptr;
  (void)dir;
  return 0;
 800345c:	2300      	movs	r3, #0
}
 800345e:	4618      	mov	r0, r3
 8003460:	3714      	adds	r7, #20
 8003462:	46bd      	mov	sp, r7
 8003464:	f85d 7b04 	ldr.w	r7, [sp], #4
 8003468:	4770      	bx	lr
	...

0800346c <_sbrk>:
 *
 * @param incr Memory size
 * @return Pointer to allocated memory
 */
void *_sbrk(ptrdiff_t incr)
{
 800346c:	b580      	push	{r7, lr}
 800346e:	b086      	sub	sp, #24
 8003470:	af00      	add	r7, sp, #0
 8003472:	6078      	str	r0, [r7, #4]
  extern uint8_t _end; /* Symbol defined in the linker script */
  extern uint8_t _estack; /* Symbol defined in the linker script */
  extern uint32_t _Min_Stack_Size; /* Symbol defined in the linker script */
  const uint32_t stack_limit = (uint32_t)&_estack - (uint32_t)&_Min_Stack_Size;
 8003474:	4a14      	ldr	r2, [pc, #80]	@ (80034c8 <_sbrk+0x5c>)
 8003476:	4b15      	ldr	r3, [pc, #84]	@ (80034cc <_sbrk+0x60>)
 8003478:	1ad3      	subs	r3, r2, r3
 800347a:	617b      	str	r3, [r7, #20]
  const uint8_t *max_heap = (uint8_t *)stack_limit;
 800347c:	697b      	ldr	r3, [r7, #20]
 800347e:	613b      	str	r3, [r7, #16]
  uint8_t *prev_heap_end;

  /* Initialize heap end at first call */
  if (NULL == __sbrk_heap_end)
 8003480:	4b13      	ldr	r3, [pc, #76]	@ (80034d0 <_sbrk+0x64>)
 8003482:	681b      	ldr	r3, [r3, #0]
 8003484:	2b00      	cmp	r3, #0
 8003486:	d102      	bne.n	800348e <_sbrk+0x22>
  {
    __sbrk_heap_end = &_end;
 8003488:	4b11      	ldr	r3, [pc, #68]	@ (80034d0 <_sbrk+0x64>)
 800348a:	4a12      	ldr	r2, [pc, #72]	@ (80034d4 <_sbrk+0x68>)
 800348c:	601a      	str	r2, [r3, #0]
  }

  /* Protect heap from growing into the reserved MSP stack */
  if (__sbrk_heap_end + incr > max_heap)
 800348e:	4b10      	ldr	r3, [pc, #64]	@ (80034d0 <_sbrk+0x64>)
 8003490:	681a      	ldr	r2, [r3, #0]
 8003492:	687b      	ldr	r3, [r7, #4]
 8003494:	4413      	add	r3, r2
 8003496:	693a      	ldr	r2, [r7, #16]
 8003498:	429a      	cmp	r2, r3
 800349a:	d207      	bcs.n	80034ac <_sbrk+0x40>
  {
    errno = ENOMEM;
 800349c:	f004 fac0 	bl	8007a20 <__errno>
 80034a0:	4603      	mov	r3, r0
 80034a2:	220c      	movs	r2, #12
 80034a4:	601a      	str	r2, [r3, #0]
    return (void *)-1;
 80034a6:	f04f 33ff 	mov.w	r3, #4294967295
 80034aa:	e009      	b.n	80034c0 <_sbrk+0x54>
  }

  prev_heap_end = __sbrk_heap_end;
 80034ac:	4b08      	ldr	r3, [pc, #32]	@ (80034d0 <_sbrk+0x64>)
 80034ae:	681b      	ldr	r3, [r3, #0]
 80034b0:	60fb      	str	r3, [r7, #12]
  __sbrk_heap_end += incr;
 80034b2:	4b07      	ldr	r3, [pc, #28]	@ (80034d0 <_sbrk+0x64>)
 80034b4:	681a      	ldr	r2, [r3, #0]
 80034b6:	687b      	ldr	r3, [r7, #4]
 80034b8:	4413      	add	r3, r2
 80034ba:	4a05      	ldr	r2, [pc, #20]	@ (80034d0 <_sbrk+0x64>)
 80034bc:	6013      	str	r3, [r2, #0]

  return (void *)prev_heap_end;
 80034be:	68fb      	ldr	r3, [r7, #12]
}
 80034c0:	4618      	mov	r0, r3
 80034c2:	3718      	adds	r7, #24
 80034c4:	46bd      	mov	sp, r7
 80034c6:	bd80      	pop	{r7, pc}
 80034c8:	2000c000 	.word	0x2000c000
 80034cc:	00000400 	.word	0x00000400
 80034d0:	20000630 	.word	0x20000630
 80034d4:	20000810 	.word	0x20000810

080034d8 <SystemInit>:
  * @brief  Setup the microcontroller system.
  * @retval None
  */

void SystemInit(void)
{
 80034d8:	b480      	push	{r7}
 80034da:	af00      	add	r7, sp, #0
  SCB->VTOR = VECT_TAB_BASE_ADDRESS | VECT_TAB_OFFSET;
#endif

  /* FPU settings ------------------------------------------------------------*/
#if (__FPU_PRESENT == 1) && (__FPU_USED == 1)
  SCB->CPACR |= ((3UL << 20U)|(3UL << 22U));  /* set CP10 and CP11 Full Access */
 80034dc:	4b06      	ldr	r3, [pc, #24]	@ (80034f8 <SystemInit+0x20>)
 80034de:	f8d3 3088 	ldr.w	r3, [r3, #136]	@ 0x88
 80034e2:	4a05      	ldr	r2, [pc, #20]	@ (80034f8 <SystemInit+0x20>)
 80034e4:	f443 0370 	orr.w	r3, r3, #15728640	@ 0xf00000
 80034e8:	f8c2 3088 	str.w	r3, [r2, #136]	@ 0x88
#endif
}
 80034ec:	bf00      	nop
 80034ee:	46bd      	mov	sp, r7
 80034f0:	f85d 7b04 	ldr.w	r7, [sp], #4
 80034f4:	4770      	bx	lr
 80034f6:	bf00      	nop
 80034f8:	e000ed00 	.word	0xe000ed00

080034fc <MX_USART1_UART_Init>:
UART_HandleTypeDef huart1;

/* USART1 init function */

void MX_USART1_UART_Init(void)
{
 80034fc:	b580      	push	{r7, lr}
 80034fe:	af00      	add	r7, sp, #0
  /* USER CODE END USART1_Init 0 */

  /* USER CODE BEGIN USART1_Init 1 */

  /* USER CODE END USART1_Init 1 */
  huart1.Instance = USART1;
 8003500:	4b14      	ldr	r3, [pc, #80]	@ (8003554 <MX_USART1_UART_Init+0x58>)
 8003502:	4a15      	ldr	r2, [pc, #84]	@ (8003558 <MX_USART1_UART_Init+0x5c>)
 8003504:	601a      	str	r2, [r3, #0]
  huart1.Init.BaudRate = 115200;
 8003506:	4b13      	ldr	r3, [pc, #76]	@ (8003554 <MX_USART1_UART_Init+0x58>)
 8003508:	f44f 32e1 	mov.w	r2, #115200	@ 0x1c200
 800350c:	605a      	str	r2, [r3, #4]
  huart1.Init.WordLength = UART_WORDLENGTH_8B;
 800350e:	4b11      	ldr	r3, [pc, #68]	@ (8003554 <MX_USART1_UART_Init+0x58>)
 8003510:	2200      	movs	r2, #0
 8003512:	609a      	str	r2, [r3, #8]
  huart1.Init.StopBits = UART_STOPBITS_1;
 8003514:	4b0f      	ldr	r3, [pc, #60]	@ (8003554 <MX_USART1_UART_Init+0x58>)
 8003516:	2200      	movs	r2, #0
 8003518:	60da      	str	r2, [r3, #12]
  huart1.Init.Parity = UART_PARITY_NONE;
 800351a:	4b0e      	ldr	r3, [pc, #56]	@ (8003554 <MX_USART1_UART_Init+0x58>)
 800351c:	2200      	movs	r2, #0
 800351e:	611a      	str	r2, [r3, #16]
  huart1.Init.Mode = UART_MODE_TX_RX;
 8003520:	4b0c      	ldr	r3, [pc, #48]	@ (8003554 <MX_USART1_UART_Init+0x58>)
 8003522:	220c      	movs	r2, #12
 8003524:	615a      	str	r2, [r3, #20]
  huart1.Init.HwFlowCtl = UART_HWCONTROL_NONE;
 8003526:	4b0b      	ldr	r3, [pc, #44]	@ (8003554 <MX_USART1_UART_Init+0x58>)
 8003528:	2200      	movs	r2, #0
 800352a:	619a      	str	r2, [r3, #24]
  huart1.Init.OverSampling = UART_OVERSAMPLING_16;
 800352c:	4b09      	ldr	r3, [pc, #36]	@ (8003554 <MX_USART1_UART_Init+0x58>)
 800352e:	2200      	movs	r2, #0
 8003530:	61da      	str	r2, [r3, #28]
  huart1.Init.OneBitSampling = UART_ONE_BIT_SAMPLE_DISABLE;
 8003532:	4b08      	ldr	r3, [pc, #32]	@ (8003554 <MX_USART1_UART_Init+0x58>)
 8003534:	2200      	movs	r2, #0
 8003536:	621a      	str	r2, [r3, #32]
  huart1.AdvancedInit.AdvFeatureInit = UART_ADVFEATURE_NO_INIT;
 8003538:	4b06      	ldr	r3, [pc, #24]	@ (8003554 <MX_USART1_UART_Init+0x58>)
 800353a:	2200      	movs	r2, #0
 800353c:	625a      	str	r2, [r3, #36]	@ 0x24
  if (HAL_UART_Init(&huart1) != HAL_OK)
 800353e:	4805      	ldr	r0, [pc, #20]	@ (8003554 <MX_USART1_UART_Init+0x58>)
 8003540:	f003 fba8 	bl	8006c94 <HAL_UART_Init>
 8003544:	4603      	mov	r3, r0
 8003546:	2b00      	cmp	r3, #0
 8003548:	d001      	beq.n	800354e <MX_USART1_UART_Init+0x52>
  {
    Error_Handler();
 800354a:	f7ff febd 	bl	80032c8 <Error_Handler>
  }
  /* USER CODE BEGIN USART1_Init 2 */

  /* USER CODE END USART1_Init 2 */

}
 800354e:	bf00      	nop
 8003550:	bd80      	pop	{r7, pc}
 8003552:	bf00      	nop
 8003554:	20000634 	.word	0x20000634
 8003558:	40013800 	.word	0x40013800

0800355c <HAL_UART_MspInit>:

void HAL_UART_MspInit(UART_HandleTypeDef* uartHandle)
{
 800355c:	b580      	push	{r7, lr}
 800355e:	b0a2      	sub	sp, #136	@ 0x88
 8003560:	af00      	add	r7, sp, #0
 8003562:	6078      	str	r0, [r7, #4]

  GPIO_InitTypeDef GPIO_InitStruct = {0};
 8003564:	f107 0374 	add.w	r3, r7, #116	@ 0x74
 8003568:	2200      	movs	r2, #0
 800356a:	601a      	str	r2, [r3, #0]
 800356c:	605a      	str	r2, [r3, #4]
 800356e:	609a      	str	r2, [r3, #8]
 8003570:	60da      	str	r2, [r3, #12]
 8003572:	611a      	str	r2, [r3, #16]
  RCC_PeriphCLKInitTypeDef PeriphClkInit = {0};
 8003574:	f107 0314 	add.w	r3, r7, #20
 8003578:	2260      	movs	r2, #96	@ 0x60
 800357a:	2100      	movs	r1, #0
 800357c:	4618      	mov	r0, r3
 800357e:	f004 f9ee 	bl	800795e <memset>
  if(uartHandle->Instance==USART1)
 8003582:	687b      	ldr	r3, [r7, #4]
 8003584:	681b      	ldr	r3, [r3, #0]
 8003586:	4a20      	ldr	r2, [pc, #128]	@ (8003608 <HAL_UART_MspInit+0xac>)
 8003588:	4293      	cmp	r3, r2
 800358a:	d139      	bne.n	8003600 <HAL_UART_MspInit+0xa4>

  /* USER CODE END USART1_MspInit 0 */

  /** Initializes the peripherals clock
  */
    PeriphClkInit.PeriphClockSelection = RCC_PERIPHCLK_USART1;
 800358c:	2301      	movs	r3, #1
 800358e:	617b      	str	r3, [r7, #20]
    PeriphClkInit.Usart1ClockSelection = RCC_USART1CLKSOURCE_PCLK2;
 8003590:	2300      	movs	r3, #0
 8003592:	637b      	str	r3, [r7, #52]	@ 0x34
    if (HAL_RCCEx_PeriphCLKConfig(&PeriphClkInit) != HAL_OK)
 8003594:	f107 0314 	add.w	r3, r7, #20
 8003598:	4618      	mov	r0, r3
 800359a:	f003 f83f 	bl	800661c <HAL_RCCEx_PeriphCLKConfig>
 800359e:	4603      	mov	r3, r0
 80035a0:	2b00      	cmp	r3, #0
 80035a2:	d001      	beq.n	80035a8 <HAL_UART_MspInit+0x4c>
    {
      Error_Handler();
 80035a4:	f7ff fe90 	bl	80032c8 <Error_Handler>
    }

    /* USART1 clock enable */
    __HAL_RCC_USART1_CLK_ENABLE();
 80035a8:	4b18      	ldr	r3, [pc, #96]	@ (800360c <HAL_UART_MspInit+0xb0>)
 80035aa:	6e1b      	ldr	r3, [r3, #96]	@ 0x60
 80035ac:	4a17      	ldr	r2, [pc, #92]	@ (800360c <HAL_UART_MspInit+0xb0>)
 80035ae:	f443 4380 	orr.w	r3, r3, #16384	@ 0x4000
 80035b2:	6613      	str	r3, [r2, #96]	@ 0x60
 80035b4:	4b15      	ldr	r3, [pc, #84]	@ (800360c <HAL_UART_MspInit+0xb0>)
 80035b6:	6e1b      	ldr	r3, [r3, #96]	@ 0x60
 80035b8:	f403 4380 	and.w	r3, r3, #16384	@ 0x4000
 80035bc:	613b      	str	r3, [r7, #16]
 80035be:	693b      	ldr	r3, [r7, #16]

    __HAL_RCC_GPIOA_CLK_ENABLE();
 80035c0:	4b12      	ldr	r3, [pc, #72]	@ (800360c <HAL_UART_MspInit+0xb0>)
 80035c2:	6cdb      	ldr	r3, [r3, #76]	@ 0x4c
 80035c4:	4a11      	ldr	r2, [pc, #68]	@ (800360c <HAL_UART_MspInit+0xb0>)
 80035c6:	f043 0301 	orr.w	r3, r3, #1
 80035ca:	64d3      	str	r3, [r2, #76]	@ 0x4c
 80035cc:	4b0f      	ldr	r3, [pc, #60]	@ (800360c <HAL_UART_MspInit+0xb0>)
 80035ce:	6cdb      	ldr	r3, [r3, #76]	@ 0x4c
 80035d0:	f003 0301 	and.w	r3, r3, #1
 80035d4:	60fb      	str	r3, [r7, #12]
 80035d6:	68fb      	ldr	r3, [r7, #12]
    /**USART1 GPIO Configuration
    PA9     ------> USART1_TX
    PA10     ------> USART1_RX
    */
    GPIO_InitStruct.Pin = GPIO_PIN_9|GPIO_PIN_10;
 80035d8:	f44f 63c0 	mov.w	r3, #1536	@ 0x600
 80035dc:	677b      	str	r3, [r7, #116]	@ 0x74
    GPIO_InitStruct.Mode = GPIO_MODE_AF_PP;
 80035de:	2302      	movs	r3, #2
 80035e0:	67bb      	str	r3, [r7, #120]	@ 0x78
    GPIO_InitStruct.Pull = GPIO_NOPULL;
 80035e2:	2300      	movs	r3, #0
 80035e4:	67fb      	str	r3, [r7, #124]	@ 0x7c
    GPIO_InitStruct.Speed = GPIO_SPEED_FREQ_VERY_HIGH;
 80035e6:	2303      	movs	r3, #3
 80035e8:	f8c7 3080 	str.w	r3, [r7, #128]	@ 0x80
    GPIO_InitStruct.Alternate = GPIO_AF7_USART1;
 80035ec:	2307      	movs	r3, #7
 80035ee:	f8c7 3084 	str.w	r3, [r7, #132]	@ 0x84
    HAL_GPIO_Init(GPIOA, &GPIO_InitStruct);
 80035f2:	f107 0374 	add.w	r3, r7, #116	@ 0x74
 80035f6:	4619      	mov	r1, r3
 80035f8:	f04f 4090 	mov.w	r0, #1207959552	@ 0x48000000
 80035fc:	f001 ff48 	bl	8005490 <HAL_GPIO_Init>

  /* USER CODE BEGIN USART1_MspInit 1 */

  /* USER CODE END USART1_MspInit 1 */
  }
}
 8003600:	bf00      	nop
 8003602:	3788      	adds	r7, #136	@ 0x88
 8003604:	46bd      	mov	sp, r7
 8003606:	bd80      	pop	{r7, pc}
 8003608:	40013800 	.word	0x40013800
 800360c:	40021000 	.word	0x40021000

08003610 <Reset_Handler>:

    .section	.text.Reset_Handler
	.weak	Reset_Handler
	.type	Reset_Handler, %function
Reset_Handler:
  ldr   sp, =_estack    /* Set stack pointer */
 8003610:	f8df d034 	ldr.w	sp, [pc, #52]	@ 8003648 <LoopForever+0x2>

/* Call the clock system initialization function.*/
    bl  SystemInit
 8003614:	f7ff ff60 	bl	80034d8 <SystemInit>

/* Copy the data segment initializers from flash to SRAM */
  ldr r0, =_sdata
 8003618:	480c      	ldr	r0, [pc, #48]	@ (800364c <LoopForever+0x6>)
  ldr r1, =_edata
 800361a:	490d      	ldr	r1, [pc, #52]	@ (8003650 <LoopForever+0xa>)
  ldr r2, =_sidata
 800361c:	4a0d      	ldr	r2, [pc, #52]	@ (8003654 <LoopForever+0xe>)
  movs r3, #0
 800361e:	2300      	movs	r3, #0
  b LoopCopyDataInit
 8003620:	e002      	b.n	8003628 <LoopCopyDataInit>

08003622 <CopyDataInit>:

CopyDataInit:
  ldr r4, [r2, r3]
 8003622:	58d4      	ldr	r4, [r2, r3]
  str r4, [r0, r3]
 8003624:	50c4      	str	r4, [r0, r3]
  adds r3, r3, #4
 8003626:	3304      	adds	r3, #4

08003628 <LoopCopyDataInit>:

LoopCopyDataInit:
  adds r4, r0, r3
 8003628:	18c4      	adds	r4, r0, r3
  cmp r4, r1
 800362a:	428c      	cmp	r4, r1
  bcc CopyDataInit
 800362c:	d3f9      	bcc.n	8003622 <CopyDataInit>
  
/* Zero fill the bss segment. */
  ldr r2, =_sbss
 800362e:	4a0a      	ldr	r2, [pc, #40]	@ (8003658 <LoopForever+0x12>)
  ldr r4, =_ebss
 8003630:	4c0a      	ldr	r4, [pc, #40]	@ (800365c <LoopForever+0x16>)
  movs r3, #0
 8003632:	2300      	movs	r3, #0
  b LoopFillZerobss
 8003634:	e001      	b.n	800363a <LoopFillZerobss>

08003636 <FillZerobss>:

FillZerobss:
  str  r3, [r2]
 8003636:	6013      	str	r3, [r2, #0]
  adds r2, r2, #4
 8003638:	3204      	adds	r2, #4

0800363a <LoopFillZerobss>:

LoopFillZerobss:
  cmp r2, r4
 800363a:	42a2      	cmp	r2, r4
  bcc FillZerobss
 800363c:	d3fb      	bcc.n	8003636 <FillZerobss>

/* Call static constructors */
    bl __libc_init_array
 800363e:	f004 f9f5 	bl	8007a2c <__libc_init_array>
/* Call the application's entry point.*/
	bl	main
 8003642:	f7ff fd49 	bl	80030d8 <main>

08003646 <LoopForever>:

LoopForever:
    b LoopForever
 8003646:	e7fe      	b.n	8003646 <LoopForever>
  ldr   sp, =_estack    /* Set stack pointer */
 8003648:	2000c000 	.word	0x2000c000
  ldr r0, =_sdata
 800364c:	20000000 	.word	0x20000000
  ldr r1, =_edata
 8003650:	20000088 	.word	0x20000088
  ldr r2, =_sidata
 8003654:	08008694 	.word	0x08008694
  ldr r2, =_sbss
 8003658:	20000088 	.word	0x20000088
  ldr r4, =_ebss
 800365c:	2000080c 	.word	0x2000080c

08003660 <ADC1_IRQHandler>:
 * @retval : None
*/
    .section	.text.Default_Handler,"ax",%progbits
Default_Handler:
Infinite_Loop:
	b	Infinite_Loop
 8003660:	e7fe      	b.n	8003660 <ADC1_IRQHandler>

08003662 <_uavcan_protocol_HardwareVersion_encode>:

#if defined(CANARD_DSDLC_INTERNAL)

static inline void _uavcan_protocol_HardwareVersion_encode(uint8_t* buffer, uint32_t* bit_ofs, struct uavcan_protocol_HardwareVersion* msg, bool tao);
static inline bool _uavcan_protocol_HardwareVersion_decode(const CanardRxTransfer* transfer, uint32_t* bit_ofs, struct uavcan_protocol_HardwareVersion* msg, bool tao);
void _uavcan_protocol_HardwareVersion_encode(uint8_t* buffer, uint32_t* bit_ofs, struct uavcan_protocol_HardwareVersion* msg, bool tao) {
 8003662:	b580      	push	{r7, lr}
 8003664:	b088      	sub	sp, #32
 8003666:	af00      	add	r7, sp, #0
 8003668:	60f8      	str	r0, [r7, #12]
 800366a:	60b9      	str	r1, [r7, #8]
 800366c:	607a      	str	r2, [r7, #4]
 800366e:	70fb      	strb	r3, [r7, #3]





    canardEncodeScalar(buffer, *bit_ofs, 8, &msg->major);
 8003670:	68bb      	ldr	r3, [r7, #8]
 8003672:	6819      	ldr	r1, [r3, #0]
 8003674:	687b      	ldr	r3, [r7, #4]
 8003676:	2208      	movs	r2, #8
 8003678:	68f8      	ldr	r0, [r7, #12]
 800367a:	f7fd ff92 	bl	80015a2 <canardEncodeScalar>

    *bit_ofs += 8;
 800367e:	68bb      	ldr	r3, [r7, #8]
 8003680:	681b      	ldr	r3, [r3, #0]
 8003682:	f103 0208 	add.w	r2, r3, #8
 8003686:	68bb      	ldr	r3, [r7, #8]
 8003688:	601a      	str	r2, [r3, #0]





    canardEncodeScalar(buffer, *bit_ofs, 8, &msg->minor);
 800368a:	68bb      	ldr	r3, [r7, #8]
 800368c:	6819      	ldr	r1, [r3, #0]
 800368e:	687b      	ldr	r3, [r7, #4]
 8003690:	3301      	adds	r3, #1
 8003692:	2208      	movs	r2, #8
 8003694:	68f8      	ldr	r0, [r7, #12]
 8003696:	f7fd ff84 	bl	80015a2 <canardEncodeScalar>

    *bit_ofs += 8;
 800369a:	68bb      	ldr	r3, [r7, #8]
 800369c:	681b      	ldr	r3, [r3, #0]
 800369e:	f103 0208 	add.w	r2, r3, #8
 80036a2:	68bb      	ldr	r3, [r7, #8]
 80036a4:	601a      	str	r2, [r3, #0]





    for (size_t i=0; i < 16; i++) {
 80036a6:	2300      	movs	r3, #0
 80036a8:	61fb      	str	r3, [r7, #28]
 80036aa:	e012      	b.n	80036d2 <_uavcan_protocol_HardwareVersion_encode+0x70>




        canardEncodeScalar(buffer, *bit_ofs, 8, &msg->unique_id[i]);
 80036ac:	68bb      	ldr	r3, [r7, #8]
 80036ae:	6819      	ldr	r1, [r3, #0]
 80036b0:	687a      	ldr	r2, [r7, #4]
 80036b2:	69fb      	ldr	r3, [r7, #28]
 80036b4:	4413      	add	r3, r2
 80036b6:	3302      	adds	r3, #2
 80036b8:	2208      	movs	r2, #8
 80036ba:	68f8      	ldr	r0, [r7, #12]
 80036bc:	f7fd ff71 	bl	80015a2 <canardEncodeScalar>

        *bit_ofs += 8;
 80036c0:	68bb      	ldr	r3, [r7, #8]
 80036c2:	681b      	ldr	r3, [r3, #0]
 80036c4:	f103 0208 	add.w	r2, r3, #8
 80036c8:	68bb      	ldr	r3, [r7, #8]
 80036ca:	601a      	str	r2, [r3, #0]
    for (size_t i=0; i < 16; i++) {
 80036cc:	69fb      	ldr	r3, [r7, #28]
 80036ce:	3301      	adds	r3, #1
 80036d0:	61fb      	str	r3, [r7, #28]
 80036d2:	69fb      	ldr	r3, [r7, #28]
 80036d4:	2b0f      	cmp	r3, #15
 80036d6:	d9e9      	bls.n	80036ac <_uavcan_protocol_HardwareVersion_encode+0x4a>





    if (!tao) {
 80036d8:	78fb      	ldrb	r3, [r7, #3]
 80036da:	f083 0301 	eor.w	r3, r3, #1
 80036de:	b2db      	uxtb	r3, r3
 80036e0:	2b00      	cmp	r3, #0
 80036e2:	d00d      	beq.n	8003700 <_uavcan_protocol_HardwareVersion_encode+0x9e>


        canardEncodeScalar(buffer, *bit_ofs, 8, &msg->certificate_of_authenticity.len);
 80036e4:	68bb      	ldr	r3, [r7, #8]
 80036e6:	6819      	ldr	r1, [r3, #0]
 80036e8:	687b      	ldr	r3, [r7, #4]
 80036ea:	3312      	adds	r3, #18
 80036ec:	2208      	movs	r2, #8
 80036ee:	68f8      	ldr	r0, [r7, #12]
 80036f0:	f7fd ff57 	bl	80015a2 <canardEncodeScalar>
        *bit_ofs += 8;
 80036f4:	68bb      	ldr	r3, [r7, #8]
 80036f6:	681b      	ldr	r3, [r3, #0]
 80036f8:	f103 0208 	add.w	r2, r3, #8
 80036fc:	68bb      	ldr	r3, [r7, #8]
 80036fe:	601a      	str	r2, [r3, #0]

    }

#pragma GCC diagnostic push
#pragma GCC diagnostic ignored "-Wtype-limits"
    const size_t certificate_of_authenticity_len = msg->certificate_of_authenticity.len > 255 ? 255 : msg->certificate_of_authenticity.len;
 8003700:	687b      	ldr	r3, [r7, #4]
 8003702:	7c9b      	ldrb	r3, [r3, #18]
 8003704:	617b      	str	r3, [r7, #20]
#pragma GCC diagnostic pop
    for (size_t i=0; i < certificate_of_authenticity_len; i++) {
 8003706:	2300      	movs	r3, #0
 8003708:	61bb      	str	r3, [r7, #24]
 800370a:	e013      	b.n	8003734 <_uavcan_protocol_HardwareVersion_encode+0xd2>




        canardEncodeScalar(buffer, *bit_ofs, 8, &msg->certificate_of_authenticity.data[i]);
 800370c:	68bb      	ldr	r3, [r7, #8]
 800370e:	6819      	ldr	r1, [r3, #0]
 8003710:	69bb      	ldr	r3, [r7, #24]
 8003712:	3310      	adds	r3, #16
 8003714:	687a      	ldr	r2, [r7, #4]
 8003716:	4413      	add	r3, r2
 8003718:	3303      	adds	r3, #3
 800371a:	2208      	movs	r2, #8
 800371c:	68f8      	ldr	r0, [r7, #12]
 800371e:	f7fd ff40 	bl	80015a2 <canardEncodeScalar>

        *bit_ofs += 8;
 8003722:	68bb      	ldr	r3, [r7, #8]
 8003724:	681b      	ldr	r3, [r3, #0]
 8003726:	f103 0208 	add.w	r2, r3, #8
 800372a:	68bb      	ldr	r3, [r7, #8]
 800372c:	601a      	str	r2, [r3, #0]
    for (size_t i=0; i < certificate_of_authenticity_len; i++) {
 800372e:	69bb      	ldr	r3, [r7, #24]
 8003730:	3301      	adds	r3, #1
 8003732:	61bb      	str	r3, [r7, #24]
 8003734:	69ba      	ldr	r2, [r7, #24]
 8003736:	697b      	ldr	r3, [r7, #20]
 8003738:	429a      	cmp	r2, r3
 800373a:	d3e7      	bcc.n	800370c <_uavcan_protocol_HardwareVersion_encode+0xaa>





}
 800373c:	bf00      	nop
 800373e:	bf00      	nop
 8003740:	3720      	adds	r7, #32
 8003742:	46bd      	mov	sp, r7
 8003744:	bd80      	pop	{r7, pc}

08003746 <_uavcan_protocol_NodeStatus_encode>:

#if defined(CANARD_DSDLC_INTERNAL)

static inline void _uavcan_protocol_NodeStatus_encode(uint8_t* buffer, uint32_t* bit_ofs, struct uavcan_protocol_NodeStatus* msg, bool tao);
static inline bool _uavcan_protocol_NodeStatus_decode(const CanardRxTransfer* transfer, uint32_t* bit_ofs, struct uavcan_protocol_NodeStatus* msg, bool tao);
void _uavcan_protocol_NodeStatus_encode(uint8_t* buffer, uint32_t* bit_ofs, struct uavcan_protocol_NodeStatus* msg, bool tao) {
 8003746:	b580      	push	{r7, lr}
 8003748:	b084      	sub	sp, #16
 800374a:	af00      	add	r7, sp, #0
 800374c:	60f8      	str	r0, [r7, #12]
 800374e:	60b9      	str	r1, [r7, #8]
 8003750:	607a      	str	r2, [r7, #4]
 8003752:	70fb      	strb	r3, [r7, #3]





    canardEncodeScalar(buffer, *bit_ofs, 32, &msg->uptime_sec);
 8003754:	68bb      	ldr	r3, [r7, #8]
 8003756:	6819      	ldr	r1, [r3, #0]
 8003758:	687b      	ldr	r3, [r7, #4]
 800375a:	2220      	movs	r2, #32
 800375c:	68f8      	ldr	r0, [r7, #12]
 800375e:	f7fd ff20 	bl	80015a2 <canardEncodeScalar>

    *bit_ofs += 32;
 8003762:	68bb      	ldr	r3, [r7, #8]
 8003764:	681b      	ldr	r3, [r3, #0]
 8003766:	f103 0220 	add.w	r2, r3, #32
 800376a:	68bb      	ldr	r3, [r7, #8]
 800376c:	601a      	str	r2, [r3, #0]





    canardEncodeScalar(buffer, *bit_ofs, 2, &msg->health);
 800376e:	68bb      	ldr	r3, [r7, #8]
 8003770:	6819      	ldr	r1, [r3, #0]
 8003772:	687b      	ldr	r3, [r7, #4]
 8003774:	3304      	adds	r3, #4
 8003776:	2202      	movs	r2, #2
 8003778:	68f8      	ldr	r0, [r7, #12]
 800377a:	f7fd ff12 	bl	80015a2 <canardEncodeScalar>

    *bit_ofs += 2;
 800377e:	68bb      	ldr	r3, [r7, #8]
 8003780:	681b      	ldr	r3, [r3, #0]
 8003782:	1c9a      	adds	r2, r3, #2
 8003784:	68bb      	ldr	r3, [r7, #8]
 8003786:	601a      	str	r2, [r3, #0]





    canardEncodeScalar(buffer, *bit_ofs, 3, &msg->mode);
 8003788:	68bb      	ldr	r3, [r7, #8]
 800378a:	6819      	ldr	r1, [r3, #0]
 800378c:	687b      	ldr	r3, [r7, #4]
 800378e:	3305      	adds	r3, #5
 8003790:	2203      	movs	r2, #3
 8003792:	68f8      	ldr	r0, [r7, #12]
 8003794:	f7fd ff05 	bl	80015a2 <canardEncodeScalar>

    *bit_ofs += 3;
 8003798:	68bb      	ldr	r3, [r7, #8]
 800379a:	681b      	ldr	r3, [r3, #0]
 800379c:	1cda      	adds	r2, r3, #3
 800379e:	68bb      	ldr	r3, [r7, #8]
 80037a0:	601a      	str	r2, [r3, #0]





    canardEncodeScalar(buffer, *bit_ofs, 3, &msg->sub_mode);
 80037a2:	68bb      	ldr	r3, [r7, #8]
 80037a4:	6819      	ldr	r1, [r3, #0]
 80037a6:	687b      	ldr	r3, [r7, #4]
 80037a8:	3306      	adds	r3, #6
 80037aa:	2203      	movs	r2, #3
 80037ac:	68f8      	ldr	r0, [r7, #12]
 80037ae:	f7fd fef8 	bl	80015a2 <canardEncodeScalar>

    *bit_ofs += 3;
 80037b2:	68bb      	ldr	r3, [r7, #8]
 80037b4:	681b      	ldr	r3, [r3, #0]
 80037b6:	1cda      	adds	r2, r3, #3
 80037b8:	68bb      	ldr	r3, [r7, #8]
 80037ba:	601a      	str	r2, [r3, #0]





    canardEncodeScalar(buffer, *bit_ofs, 16, &msg->vendor_specific_status_code);
 80037bc:	68bb      	ldr	r3, [r7, #8]
 80037be:	6819      	ldr	r1, [r3, #0]
 80037c0:	687b      	ldr	r3, [r7, #4]
 80037c2:	3308      	adds	r3, #8
 80037c4:	2210      	movs	r2, #16
 80037c6:	68f8      	ldr	r0, [r7, #12]
 80037c8:	f7fd feeb 	bl	80015a2 <canardEncodeScalar>

    *bit_ofs += 16;
 80037cc:	68bb      	ldr	r3, [r7, #8]
 80037ce:	681b      	ldr	r3, [r3, #0]
 80037d0:	f103 0210 	add.w	r2, r3, #16
 80037d4:	68bb      	ldr	r3, [r7, #8]
 80037d6:	601a      	str	r2, [r3, #0]





}
 80037d8:	bf00      	nop
 80037da:	3710      	adds	r7, #16
 80037dc:	46bd      	mov	sp, r7
 80037de:	bd80      	pop	{r7, pc}

080037e0 <_uavcan_protocol_SoftwareVersion_encode>:

#if defined(CANARD_DSDLC_INTERNAL)

static inline void _uavcan_protocol_SoftwareVersion_encode(uint8_t* buffer, uint32_t* bit_ofs, struct uavcan_protocol_SoftwareVersion* msg, bool tao);
static inline bool _uavcan_protocol_SoftwareVersion_decode(const CanardRxTransfer* transfer, uint32_t* bit_ofs, struct uavcan_protocol_SoftwareVersion* msg, bool tao);
void _uavcan_protocol_SoftwareVersion_encode(uint8_t* buffer, uint32_t* bit_ofs, struct uavcan_protocol_SoftwareVersion* msg, bool tao) {
 80037e0:	b580      	push	{r7, lr}
 80037e2:	b084      	sub	sp, #16
 80037e4:	af00      	add	r7, sp, #0
 80037e6:	60f8      	str	r0, [r7, #12]
 80037e8:	60b9      	str	r1, [r7, #8]
 80037ea:	607a      	str	r2, [r7, #4]
 80037ec:	70fb      	strb	r3, [r7, #3]





    canardEncodeScalar(buffer, *bit_ofs, 8, &msg->major);
 80037ee:	68bb      	ldr	r3, [r7, #8]
 80037f0:	6819      	ldr	r1, [r3, #0]
 80037f2:	687b      	ldr	r3, [r7, #4]
 80037f4:	2208      	movs	r2, #8
 80037f6:	68f8      	ldr	r0, [r7, #12]
 80037f8:	f7fd fed3 	bl	80015a2 <canardEncodeScalar>

    *bit_ofs += 8;
 80037fc:	68bb      	ldr	r3, [r7, #8]
 80037fe:	681b      	ldr	r3, [r3, #0]
 8003800:	f103 0208 	add.w	r2, r3, #8
 8003804:	68bb      	ldr	r3, [r7, #8]
 8003806:	601a      	str	r2, [r3, #0]





    canardEncodeScalar(buffer, *bit_ofs, 8, &msg->minor);
 8003808:	68bb      	ldr	r3, [r7, #8]
 800380a:	6819      	ldr	r1, [r3, #0]
 800380c:	687b      	ldr	r3, [r7, #4]
 800380e:	3301      	adds	r3, #1
 8003810:	2208      	movs	r2, #8
 8003812:	68f8      	ldr	r0, [r7, #12]
 8003814:	f7fd fec5 	bl	80015a2 <canardEncodeScalar>

    *bit_ofs += 8;
 8003818:	68bb      	ldr	r3, [r7, #8]
 800381a:	681b      	ldr	r3, [r3, #0]
 800381c:	f103 0208 	add.w	r2, r3, #8
 8003820:	68bb      	ldr	r3, [r7, #8]
 8003822:	601a      	str	r2, [r3, #0]





    canardEncodeScalar(buffer, *bit_ofs, 8, &msg->optional_field_flags);
 8003824:	68bb      	ldr	r3, [r7, #8]
 8003826:	6819      	ldr	r1, [r3, #0]
 8003828:	687b      	ldr	r3, [r7, #4]
 800382a:	3302      	adds	r3, #2
 800382c:	2208      	movs	r2, #8
 800382e:	68f8      	ldr	r0, [r7, #12]
 8003830:	f7fd feb7 	bl	80015a2 <canardEncodeScalar>

    *bit_ofs += 8;
 8003834:	68bb      	ldr	r3, [r7, #8]
 8003836:	681b      	ldr	r3, [r3, #0]
 8003838:	f103 0208 	add.w	r2, r3, #8
 800383c:	68bb      	ldr	r3, [r7, #8]
 800383e:	601a      	str	r2, [r3, #0]





    canardEncodeScalar(buffer, *bit_ofs, 32, &msg->vcs_commit);
 8003840:	68bb      	ldr	r3, [r7, #8]
 8003842:	6819      	ldr	r1, [r3, #0]
 8003844:	687b      	ldr	r3, [r7, #4]
 8003846:	3304      	adds	r3, #4
 8003848:	2220      	movs	r2, #32
 800384a:	68f8      	ldr	r0, [r7, #12]
 800384c:	f7fd fea9 	bl	80015a2 <canardEncodeScalar>

    *bit_ofs += 32;
 8003850:	68bb      	ldr	r3, [r7, #8]
 8003852:	681b      	ldr	r3, [r3, #0]
 8003854:	f103 0220 	add.w	r2, r3, #32
 8003858:	68bb      	ldr	r3, [r7, #8]
 800385a:	601a      	str	r2, [r3, #0]





    canardEncodeScalar(buffer, *bit_ofs, 64, &msg->image_crc);
 800385c:	68bb      	ldr	r3, [r7, #8]
 800385e:	6819      	ldr	r1, [r3, #0]
 8003860:	687b      	ldr	r3, [r7, #4]
 8003862:	3308      	adds	r3, #8
 8003864:	2240      	movs	r2, #64	@ 0x40
 8003866:	68f8      	ldr	r0, [r7, #12]
 8003868:	f7fd fe9b 	bl	80015a2 <canardEncodeScalar>

    *bit_ofs += 64;
 800386c:	68bb      	ldr	r3, [r7, #8]
 800386e:	681b      	ldr	r3, [r3, #0]
 8003870:	f103 0240 	add.w	r2, r3, #64	@ 0x40
 8003874:	68bb      	ldr	r3, [r7, #8]
 8003876:	601a      	str	r2, [r3, #0]





}
 8003878:	bf00      	nop
 800387a:	3710      	adds	r7, #16
 800387c:	46bd      	mov	sp, r7
 800387e:	bd80      	pop	{r7, pc}

08003880 <_uavcan_protocol_GetNodeInfoResponse_encode>:

#if defined(CANARD_DSDLC_INTERNAL)

static inline void _uavcan_protocol_GetNodeInfoResponse_encode(uint8_t* buffer, uint32_t* bit_ofs, struct uavcan_protocol_GetNodeInfoResponse* msg, bool tao);
static inline bool _uavcan_protocol_GetNodeInfoResponse_decode(const CanardRxTransfer* transfer, uint32_t* bit_ofs, struct uavcan_protocol_GetNodeInfoResponse* msg, bool tao);
void _uavcan_protocol_GetNodeInfoResponse_encode(uint8_t* buffer, uint32_t* bit_ofs, struct uavcan_protocol_GetNodeInfoResponse* msg, bool tao) {
 8003880:	b580      	push	{r7, lr}
 8003882:	b086      	sub	sp, #24
 8003884:	af00      	add	r7, sp, #0
 8003886:	60f8      	str	r0, [r7, #12]
 8003888:	60b9      	str	r1, [r7, #8]
 800388a:	607a      	str	r2, [r7, #4]
 800388c:	70fb      	strb	r3, [r7, #3]





    _uavcan_protocol_NodeStatus_encode(buffer, bit_ofs, &msg->status, false);
 800388e:	687a      	ldr	r2, [r7, #4]
 8003890:	2300      	movs	r3, #0
 8003892:	68b9      	ldr	r1, [r7, #8]
 8003894:	68f8      	ldr	r0, [r7, #12]
 8003896:	f7ff ff56 	bl	8003746 <_uavcan_protocol_NodeStatus_encode>





    _uavcan_protocol_SoftwareVersion_encode(buffer, bit_ofs, &msg->software_version, false);
 800389a:	687b      	ldr	r3, [r7, #4]
 800389c:	f103 0210 	add.w	r2, r3, #16
 80038a0:	2300      	movs	r3, #0
 80038a2:	68b9      	ldr	r1, [r7, #8]
 80038a4:	68f8      	ldr	r0, [r7, #12]
 80038a6:	f7ff ff9b 	bl	80037e0 <_uavcan_protocol_SoftwareVersion_encode>





    _uavcan_protocol_HardwareVersion_encode(buffer, bit_ofs, &msg->hardware_version, false);
 80038aa:	687b      	ldr	r3, [r7, #4]
 80038ac:	f103 0220 	add.w	r2, r3, #32
 80038b0:	2300      	movs	r3, #0
 80038b2:	68b9      	ldr	r1, [r7, #8]
 80038b4:	68f8      	ldr	r0, [r7, #12]
 80038b6:	f7ff fed4 	bl	8003662 <_uavcan_protocol_HardwareVersion_encode>





    if (!tao) {
 80038ba:	78fb      	ldrb	r3, [r7, #3]
 80038bc:	f083 0301 	eor.w	r3, r3, #1
 80038c0:	b2db      	uxtb	r3, r3
 80038c2:	2b00      	cmp	r3, #0
 80038c4:	d00d      	beq.n	80038e2 <_uavcan_protocol_GetNodeInfoResponse_encode+0x62>


        canardEncodeScalar(buffer, *bit_ofs, 7, &msg->name.len);
 80038c6:	68bb      	ldr	r3, [r7, #8]
 80038c8:	6819      	ldr	r1, [r3, #0]
 80038ca:	687b      	ldr	r3, [r7, #4]
 80038cc:	f503 7399 	add.w	r3, r3, #306	@ 0x132
 80038d0:	2207      	movs	r2, #7
 80038d2:	68f8      	ldr	r0, [r7, #12]
 80038d4:	f7fd fe65 	bl	80015a2 <canardEncodeScalar>
        *bit_ofs += 7;
 80038d8:	68bb      	ldr	r3, [r7, #8]
 80038da:	681b      	ldr	r3, [r3, #0]
 80038dc:	1dda      	adds	r2, r3, #7
 80038de:	68bb      	ldr	r3, [r7, #8]
 80038e0:	601a      	str	r2, [r3, #0]

    }

#pragma GCC diagnostic push
#pragma GCC diagnostic ignored "-Wtype-limits"
    const size_t name_len = msg->name.len > 80 ? 80 : msg->name.len;
 80038e2:	687b      	ldr	r3, [r7, #4]
 80038e4:	f893 3132 	ldrb.w	r3, [r3, #306]	@ 0x132
 80038e8:	2b50      	cmp	r3, #80	@ 0x50
 80038ea:	bf28      	it	cs
 80038ec:	2350      	movcs	r3, #80	@ 0x50
 80038ee:	b2db      	uxtb	r3, r3
 80038f0:	613b      	str	r3, [r7, #16]
#pragma GCC diagnostic pop
    for (size_t i=0; i < name_len; i++) {
 80038f2:	2300      	movs	r3, #0
 80038f4:	617b      	str	r3, [r7, #20]
 80038f6:	e014      	b.n	8003922 <_uavcan_protocol_GetNodeInfoResponse_encode+0xa2>




        canardEncodeScalar(buffer, *bit_ofs, 8, &msg->name.data[i]);
 80038f8:	68bb      	ldr	r3, [r7, #8]
 80038fa:	6819      	ldr	r1, [r3, #0]
 80038fc:	697b      	ldr	r3, [r7, #20]
 80038fe:	f503 7398 	add.w	r3, r3, #304	@ 0x130
 8003902:	687a      	ldr	r2, [r7, #4]
 8003904:	4413      	add	r3, r2
 8003906:	3303      	adds	r3, #3
 8003908:	2208      	movs	r2, #8
 800390a:	68f8      	ldr	r0, [r7, #12]
 800390c:	f7fd fe49 	bl	80015a2 <canardEncodeScalar>

        *bit_ofs += 8;
 8003910:	68bb      	ldr	r3, [r7, #8]
 8003912:	681b      	ldr	r3, [r3, #0]
 8003914:	f103 0208 	add.w	r2, r3, #8
 8003918:	68bb      	ldr	r3, [r7, #8]
 800391a:	601a      	str	r2, [r3, #0]
    for (size_t i=0; i < name_len; i++) {
 800391c:	697b      	ldr	r3, [r7, #20]
 800391e:	3301      	adds	r3, #1
 8003920:	617b      	str	r3, [r7, #20]
 8003922:	697a      	ldr	r2, [r7, #20]
 8003924:	693b      	ldr	r3, [r7, #16]
 8003926:	429a      	cmp	r2, r3
 8003928:	d3e6      	bcc.n	80038f8 <_uavcan_protocol_GetNodeInfoResponse_encode+0x78>





}
 800392a:	bf00      	nop
 800392c:	bf00      	nop
 800392e:	3718      	adds	r7, #24
 8003930:	46bd      	mov	sp, r7
 8003932:	bd80      	pop	{r7, pc}

08003934 <uavcan_protocol_GetNodeInfoResponse_encode>:

uint32_t uavcan_protocol_GetNodeInfoResponse_encode(struct uavcan_protocol_GetNodeInfoResponse* msg, uint8_t* buffer
#if CANARD_ENABLE_TAO_OPTION
    , bool tao
#endif
) {
 8003934:	b580      	push	{r7, lr}
 8003936:	b084      	sub	sp, #16
 8003938:	af00      	add	r7, sp, #0
 800393a:	6078      	str	r0, [r7, #4]
 800393c:	6039      	str	r1, [r7, #0]
    uint32_t bit_ofs = 0;
 800393e:	2300      	movs	r3, #0
 8003940:	60fb      	str	r3, [r7, #12]
    memset(buffer, 0, UAVCAN_PROTOCOL_GETNODEINFO_RESPONSE_MAX_SIZE);
 8003942:	f240 1279 	movw	r2, #377	@ 0x179
 8003946:	2100      	movs	r1, #0
 8003948:	6838      	ldr	r0, [r7, #0]
 800394a:	f004 f808 	bl	800795e <memset>
    _uavcan_protocol_GetNodeInfoResponse_encode(buffer, &bit_ofs, msg, 
 800394e:	f107 010c 	add.w	r1, r7, #12
 8003952:	2301      	movs	r3, #1
 8003954:	687a      	ldr	r2, [r7, #4]
 8003956:	6838      	ldr	r0, [r7, #0]
 8003958:	f7ff ff92 	bl	8003880 <_uavcan_protocol_GetNodeInfoResponse_encode>
    tao
#else
    true
#endif
    );
    return ((bit_ofs+7)/8);
 800395c:	68fb      	ldr	r3, [r7, #12]
 800395e:	3307      	adds	r3, #7
 8003960:	08db      	lsrs	r3, r3, #3
}
 8003962:	4618      	mov	r0, r3
 8003964:	3710      	adds	r7, #16
 8003966:	46bd      	mov	sp, r7
 8003968:	bd80      	pop	{r7, pc}

0800396a <_uavcan_protocol_NodeStatus_encode>:

#if defined(CANARD_DSDLC_INTERNAL)

static inline void _uavcan_protocol_NodeStatus_encode(uint8_t* buffer, uint32_t* bit_ofs, struct uavcan_protocol_NodeStatus* msg, bool tao);
static inline bool _uavcan_protocol_NodeStatus_decode(const CanardRxTransfer* transfer, uint32_t* bit_ofs, struct uavcan_protocol_NodeStatus* msg, bool tao);
void _uavcan_protocol_NodeStatus_encode(uint8_t* buffer, uint32_t* bit_ofs, struct uavcan_protocol_NodeStatus* msg, bool tao) {
 800396a:	b580      	push	{r7, lr}
 800396c:	b084      	sub	sp, #16
 800396e:	af00      	add	r7, sp, #0
 8003970:	60f8      	str	r0, [r7, #12]
 8003972:	60b9      	str	r1, [r7, #8]
 8003974:	607a      	str	r2, [r7, #4]
 8003976:	70fb      	strb	r3, [r7, #3]





    canardEncodeScalar(buffer, *bit_ofs, 32, &msg->uptime_sec);
 8003978:	68bb      	ldr	r3, [r7, #8]
 800397a:	6819      	ldr	r1, [r3, #0]
 800397c:	687b      	ldr	r3, [r7, #4]
 800397e:	2220      	movs	r2, #32
 8003980:	68f8      	ldr	r0, [r7, #12]
 8003982:	f7fd fe0e 	bl	80015a2 <canardEncodeScalar>

    *bit_ofs += 32;
 8003986:	68bb      	ldr	r3, [r7, #8]
 8003988:	681b      	ldr	r3, [r3, #0]
 800398a:	f103 0220 	add.w	r2, r3, #32
 800398e:	68bb      	ldr	r3, [r7, #8]
 8003990:	601a      	str	r2, [r3, #0]





    canardEncodeScalar(buffer, *bit_ofs, 2, &msg->health);
 8003992:	68bb      	ldr	r3, [r7, #8]
 8003994:	6819      	ldr	r1, [r3, #0]
 8003996:	687b      	ldr	r3, [r7, #4]
 8003998:	3304      	adds	r3, #4
 800399a:	2202      	movs	r2, #2
 800399c:	68f8      	ldr	r0, [r7, #12]
 800399e:	f7fd fe00 	bl	80015a2 <canardEncodeScalar>

    *bit_ofs += 2;
 80039a2:	68bb      	ldr	r3, [r7, #8]
 80039a4:	681b      	ldr	r3, [r3, #0]
 80039a6:	1c9a      	adds	r2, r3, #2
 80039a8:	68bb      	ldr	r3, [r7, #8]
 80039aa:	601a      	str	r2, [r3, #0]





    canardEncodeScalar(buffer, *bit_ofs, 3, &msg->mode);
 80039ac:	68bb      	ldr	r3, [r7, #8]
 80039ae:	6819      	ldr	r1, [r3, #0]
 80039b0:	687b      	ldr	r3, [r7, #4]
 80039b2:	3305      	adds	r3, #5
 80039b4:	2203      	movs	r2, #3
 80039b6:	68f8      	ldr	r0, [r7, #12]
 80039b8:	f7fd fdf3 	bl	80015a2 <canardEncodeScalar>

    *bit_ofs += 3;
 80039bc:	68bb      	ldr	r3, [r7, #8]
 80039be:	681b      	ldr	r3, [r3, #0]
 80039c0:	1cda      	adds	r2, r3, #3
 80039c2:	68bb      	ldr	r3, [r7, #8]
 80039c4:	601a      	str	r2, [r3, #0]





    canardEncodeScalar(buffer, *bit_ofs, 3, &msg->sub_mode);
 80039c6:	68bb      	ldr	r3, [r7, #8]
 80039c8:	6819      	ldr	r1, [r3, #0]
 80039ca:	687b      	ldr	r3, [r7, #4]
 80039cc:	3306      	adds	r3, #6
 80039ce:	2203      	movs	r2, #3
 80039d0:	68f8      	ldr	r0, [r7, #12]
 80039d2:	f7fd fde6 	bl	80015a2 <canardEncodeScalar>

    *bit_ofs += 3;
 80039d6:	68bb      	ldr	r3, [r7, #8]
 80039d8:	681b      	ldr	r3, [r3, #0]
 80039da:	1cda      	adds	r2, r3, #3
 80039dc:	68bb      	ldr	r3, [r7, #8]
 80039de:	601a      	str	r2, [r3, #0]





    canardEncodeScalar(buffer, *bit_ofs, 16, &msg->vendor_specific_status_code);
 80039e0:	68bb      	ldr	r3, [r7, #8]
 80039e2:	6819      	ldr	r1, [r3, #0]
 80039e4:	687b      	ldr	r3, [r7, #4]
 80039e6:	3308      	adds	r3, #8
 80039e8:	2210      	movs	r2, #16
 80039ea:	68f8      	ldr	r0, [r7, #12]
 80039ec:	f7fd fdd9 	bl	80015a2 <canardEncodeScalar>

    *bit_ofs += 16;
 80039f0:	68bb      	ldr	r3, [r7, #8]
 80039f2:	681b      	ldr	r3, [r3, #0]
 80039f4:	f103 0210 	add.w	r2, r3, #16
 80039f8:	68bb      	ldr	r3, [r7, #8]
 80039fa:	601a      	str	r2, [r3, #0]





}
 80039fc:	bf00      	nop
 80039fe:	3710      	adds	r7, #16
 8003a00:	46bd      	mov	sp, r7
 8003a02:	bd80      	pop	{r7, pc}

08003a04 <uavcan_protocol_NodeStatus_encode>:

uint32_t uavcan_protocol_NodeStatus_encode(struct uavcan_protocol_NodeStatus* msg, uint8_t* buffer
#if CANARD_ENABLE_TAO_OPTION
    , bool tao
#endif
) {
 8003a04:	b580      	push	{r7, lr}
 8003a06:	b084      	sub	sp, #16
 8003a08:	af00      	add	r7, sp, #0
 8003a0a:	6078      	str	r0, [r7, #4]
 8003a0c:	6039      	str	r1, [r7, #0]
    uint32_t bit_ofs = 0;
 8003a0e:	2300      	movs	r3, #0
 8003a10:	60fb      	str	r3, [r7, #12]
    memset(buffer, 0, UAVCAN_PROTOCOL_NODESTATUS_MAX_SIZE);
 8003a12:	2207      	movs	r2, #7
 8003a14:	2100      	movs	r1, #0
 8003a16:	6838      	ldr	r0, [r7, #0]
 8003a18:	f003 ffa1 	bl	800795e <memset>
    _uavcan_protocol_NodeStatus_encode(buffer, &bit_ofs, msg, 
 8003a1c:	f107 010c 	add.w	r1, r7, #12
 8003a20:	2301      	movs	r3, #1
 8003a22:	687a      	ldr	r2, [r7, #4]
 8003a24:	6838      	ldr	r0, [r7, #0]
 8003a26:	f7ff ffa0 	bl	800396a <_uavcan_protocol_NodeStatus_encode>
    tao
#else
    true
#endif
    );
    return ((bit_ofs+7)/8);
 8003a2a:	68fb      	ldr	r3, [r7, #12]
 8003a2c:	3307      	adds	r3, #7
 8003a2e:	08db      	lsrs	r3, r3, #3
}
 8003a30:	4618      	mov	r0, r3
 8003a32:	3710      	adds	r7, #16
 8003a34:	46bd      	mov	sp, r7
 8003a36:	bd80      	pop	{r7, pc}

08003a38 <_uavcan_protocol_file_Path_decode>:
}

/*
 decode uavcan_protocol_file_Path, return true on failure, false on success
*/
bool _uavcan_protocol_file_Path_decode(const CanardRxTransfer* transfer, uint32_t* bit_ofs, struct uavcan_protocol_file_Path* msg, bool tao) {
 8003a38:	b580      	push	{r7, lr}
 8003a3a:	b088      	sub	sp, #32
 8003a3c:	af02      	add	r7, sp, #8
 8003a3e:	60f8      	str	r0, [r7, #12]
 8003a40:	60b9      	str	r1, [r7, #8]
 8003a42:	607a      	str	r2, [r7, #4]
 8003a44:	70fb      	strb	r3, [r7, #3]





    if (!tao) {
 8003a46:	78fb      	ldrb	r3, [r7, #3]
 8003a48:	f083 0301 	eor.w	r3, r3, #1
 8003a4c:	b2db      	uxtb	r3, r3
 8003a4e:	2b00      	cmp	r3, #0
 8003a50:	d00f      	beq.n	8003a72 <_uavcan_protocol_file_Path_decode+0x3a>


        canardDecodeScalar(transfer, *bit_ofs, 8, false, &msg->path.len);
 8003a52:	68bb      	ldr	r3, [r7, #8]
 8003a54:	6819      	ldr	r1, [r3, #0]
 8003a56:	687b      	ldr	r3, [r7, #4]
 8003a58:	9300      	str	r3, [sp, #0]
 8003a5a:	2300      	movs	r3, #0
 8003a5c:	2208      	movs	r2, #8
 8003a5e:	68f8      	ldr	r0, [r7, #12]
 8003a60:	f7fd fc16 	bl	8001290 <canardDecodeScalar>
        *bit_ofs += 8;
 8003a64:	68bb      	ldr	r3, [r7, #8]
 8003a66:	681b      	ldr	r3, [r3, #0]
 8003a68:	f103 0208 	add.w	r2, r3, #8
 8003a6c:	68bb      	ldr	r3, [r7, #8]
 8003a6e:	601a      	str	r2, [r3, #0]
 8003a70:	e00a      	b.n	8003a88 <_uavcan_protocol_file_Path_decode+0x50>



    } else {

        msg->path.len = ((transfer->payload_len*8)-*bit_ofs)/8;
 8003a72:	68fb      	ldr	r3, [r7, #12]
 8003a74:	8a9b      	ldrh	r3, [r3, #20]
 8003a76:	00db      	lsls	r3, r3, #3
 8003a78:	461a      	mov	r2, r3
 8003a7a:	68bb      	ldr	r3, [r7, #8]
 8003a7c:	681b      	ldr	r3, [r3, #0]
 8003a7e:	1ad3      	subs	r3, r2, r3
 8003a80:	08db      	lsrs	r3, r3, #3
 8003a82:	b2da      	uxtb	r2, r3
 8003a84:	687b      	ldr	r3, [r7, #4]
 8003a86:	701a      	strb	r2, [r3, #0]



#pragma GCC diagnostic push
#pragma GCC diagnostic ignored "-Wtype-limits"
    if (msg->path.len > 200) {
 8003a88:	687b      	ldr	r3, [r7, #4]
 8003a8a:	781b      	ldrb	r3, [r3, #0]
 8003a8c:	2bc8      	cmp	r3, #200	@ 0xc8
 8003a8e:	d901      	bls.n	8003a94 <_uavcan_protocol_file_Path_decode+0x5c>
        return true; /* invalid value */
 8003a90:	2301      	movs	r3, #1
 8003a92:	e01e      	b.n	8003ad2 <_uavcan_protocol_file_Path_decode+0x9a>
    }
#pragma GCC diagnostic pop
    for (size_t i=0; i < msg->path.len; i++) {
 8003a94:	2300      	movs	r3, #0
 8003a96:	617b      	str	r3, [r7, #20]
 8003a98:	e014      	b.n	8003ac4 <_uavcan_protocol_file_Path_decode+0x8c>




        canardDecodeScalar(transfer, *bit_ofs, 8, false, &msg->path.data[i]);
 8003a9a:	68bb      	ldr	r3, [r7, #8]
 8003a9c:	6819      	ldr	r1, [r3, #0]
 8003a9e:	687a      	ldr	r2, [r7, #4]
 8003aa0:	697b      	ldr	r3, [r7, #20]
 8003aa2:	4413      	add	r3, r2
 8003aa4:	3301      	adds	r3, #1
 8003aa6:	9300      	str	r3, [sp, #0]
 8003aa8:	2300      	movs	r3, #0
 8003aaa:	2208      	movs	r2, #8
 8003aac:	68f8      	ldr	r0, [r7, #12]
 8003aae:	f7fd fbef 	bl	8001290 <canardDecodeScalar>

        *bit_ofs += 8;
 8003ab2:	68bb      	ldr	r3, [r7, #8]
 8003ab4:	681b      	ldr	r3, [r3, #0]
 8003ab6:	f103 0208 	add.w	r2, r3, #8
 8003aba:	68bb      	ldr	r3, [r7, #8]
 8003abc:	601a      	str	r2, [r3, #0]
    for (size_t i=0; i < msg->path.len; i++) {
 8003abe:	697b      	ldr	r3, [r7, #20]
 8003ac0:	3301      	adds	r3, #1
 8003ac2:	617b      	str	r3, [r7, #20]
 8003ac4:	687b      	ldr	r3, [r7, #4]
 8003ac6:	781b      	ldrb	r3, [r3, #0]
 8003ac8:	461a      	mov	r2, r3
 8003aca:	697b      	ldr	r3, [r7, #20]
 8003acc:	4293      	cmp	r3, r2
 8003ace:	d3e4      	bcc.n	8003a9a <_uavcan_protocol_file_Path_decode+0x62>





    return false; /* success */
 8003ad0:	2300      	movs	r3, #0

}
 8003ad2:	4618      	mov	r0, r3
 8003ad4:	3718      	adds	r7, #24
 8003ad6:	46bd      	mov	sp, r7
 8003ad8:	bd80      	pop	{r7, pc}

08003ada <_uavcan_protocol_file_BeginFirmwareUpdateRequest_decode>:
}

/*
 decode uavcan_protocol_file_BeginFirmwareUpdateRequest, return true on failure, false on success
*/
bool _uavcan_protocol_file_BeginFirmwareUpdateRequest_decode(const CanardRxTransfer* transfer, uint32_t* bit_ofs, struct uavcan_protocol_file_BeginFirmwareUpdateRequest* msg, bool tao) {
 8003ada:	b580      	push	{r7, lr}
 8003adc:	b086      	sub	sp, #24
 8003ade:	af02      	add	r7, sp, #8
 8003ae0:	60f8      	str	r0, [r7, #12]
 8003ae2:	60b9      	str	r1, [r7, #8]
 8003ae4:	607a      	str	r2, [r7, #4]
 8003ae6:	70fb      	strb	r3, [r7, #3]





    canardDecodeScalar(transfer, *bit_ofs, 8, false, &msg->source_node_id);
 8003ae8:	68bb      	ldr	r3, [r7, #8]
 8003aea:	6819      	ldr	r1, [r3, #0]
 8003aec:	687b      	ldr	r3, [r7, #4]
 8003aee:	9300      	str	r3, [sp, #0]
 8003af0:	2300      	movs	r3, #0
 8003af2:	2208      	movs	r2, #8
 8003af4:	68f8      	ldr	r0, [r7, #12]
 8003af6:	f7fd fbcb 	bl	8001290 <canardDecodeScalar>

    *bit_ofs += 8;
 8003afa:	68bb      	ldr	r3, [r7, #8]
 8003afc:	681b      	ldr	r3, [r3, #0]
 8003afe:	f103 0208 	add.w	r2, r3, #8
 8003b02:	68bb      	ldr	r3, [r7, #8]
 8003b04:	601a      	str	r2, [r3, #0]





    if (_uavcan_protocol_file_Path_decode(transfer, bit_ofs, &msg->image_file_remote_path, tao)) {return true;}
 8003b06:	687b      	ldr	r3, [r7, #4]
 8003b08:	1c5a      	adds	r2, r3, #1
 8003b0a:	78fb      	ldrb	r3, [r7, #3]
 8003b0c:	68b9      	ldr	r1, [r7, #8]
 8003b0e:	68f8      	ldr	r0, [r7, #12]
 8003b10:	f7ff ff92 	bl	8003a38 <_uavcan_protocol_file_Path_decode>
 8003b14:	4603      	mov	r3, r0
 8003b16:	2b00      	cmp	r3, #0
 8003b18:	d001      	beq.n	8003b1e <_uavcan_protocol_file_BeginFirmwareUpdateRequest_decode+0x44>
 8003b1a:	2301      	movs	r3, #1
 8003b1c:	e000      	b.n	8003b20 <_uavcan_protocol_file_BeginFirmwareUpdateRequest_decode+0x46>





    return false; /* success */
 8003b1e:	2300      	movs	r3, #0

}
 8003b20:	4618      	mov	r0, r3
 8003b22:	3710      	adds	r7, #16
 8003b24:	46bd      	mov	sp, r7
 8003b26:	bd80      	pop	{r7, pc}

08003b28 <uavcan_protocol_file_BeginFirmwareUpdateRequest_decode>:
}

/*
  return true if the decode is invalid
 */
bool uavcan_protocol_file_BeginFirmwareUpdateRequest_decode(const CanardRxTransfer* transfer, struct uavcan_protocol_file_BeginFirmwareUpdateRequest* msg) {
 8003b28:	b580      	push	{r7, lr}
 8003b2a:	b084      	sub	sp, #16
 8003b2c:	af00      	add	r7, sp, #0
 8003b2e:	6078      	str	r0, [r7, #4]
 8003b30:	6039      	str	r1, [r7, #0]
#if CANARD_ENABLE_TAO_OPTION
    if (transfer->tao && (transfer->payload_len > UAVCAN_PROTOCOL_FILE_BEGINFIRMWAREUPDATE_REQUEST_MAX_SIZE)) {
        return true; /* invalid payload length */
    }
#endif
    uint32_t bit_ofs = 0;
 8003b32:	2300      	movs	r3, #0
 8003b34:	60bb      	str	r3, [r7, #8]
    if (_uavcan_protocol_file_BeginFirmwareUpdateRequest_decode(transfer, &bit_ofs, msg,
 8003b36:	f107 0108 	add.w	r1, r7, #8
 8003b3a:	2301      	movs	r3, #1
 8003b3c:	683a      	ldr	r2, [r7, #0]
 8003b3e:	6878      	ldr	r0, [r7, #4]
 8003b40:	f7ff ffcb 	bl	8003ada <_uavcan_protocol_file_BeginFirmwareUpdateRequest_decode>
 8003b44:	4603      	mov	r3, r0
 8003b46:	2b00      	cmp	r3, #0
 8003b48:	d001      	beq.n	8003b4e <uavcan_protocol_file_BeginFirmwareUpdateRequest_decode+0x26>
    transfer->tao
#else
    true
#endif
    )) {
        return true; /* invalid payload */
 8003b4a:	2301      	movs	r3, #1
 8003b4c:	e00c      	b.n	8003b68 <uavcan_protocol_file_BeginFirmwareUpdateRequest_decode+0x40>
    }

    const uint32_t byte_len = (bit_ofs+7U)/8U;
 8003b4e:	68bb      	ldr	r3, [r7, #8]
 8003b50:	3307      	adds	r3, #7
 8003b52:	08db      	lsrs	r3, r3, #3
 8003b54:	60fb      	str	r3, [r7, #12]
    // we actually have
    if (!transfer->tao) {
        return byte_len > transfer->payload_len;
    }
#endif
    return byte_len != transfer->payload_len;
 8003b56:	687b      	ldr	r3, [r7, #4]
 8003b58:	8a9b      	ldrh	r3, [r3, #20]
 8003b5a:	461a      	mov	r2, r3
 8003b5c:	68fb      	ldr	r3, [r7, #12]
 8003b5e:	4293      	cmp	r3, r2
 8003b60:	bf14      	ite	ne
 8003b62:	2301      	movne	r3, #1
 8003b64:	2300      	moveq	r3, #0
 8003b66:	b2db      	uxtb	r3, r3
}
 8003b68:	4618      	mov	r0, r3
 8003b6a:	3710      	adds	r7, #16
 8003b6c:	46bd      	mov	sp, r7
 8003b6e:	bd80      	pop	{r7, pc}

08003b70 <_uavcan_protocol_file_BeginFirmwareUpdateResponse_encode>:

#if defined(CANARD_DSDLC_INTERNAL)

static inline void _uavcan_protocol_file_BeginFirmwareUpdateResponse_encode(uint8_t* buffer, uint32_t* bit_ofs, struct uavcan_protocol_file_BeginFirmwareUpdateResponse* msg, bool tao);
static inline bool _uavcan_protocol_file_BeginFirmwareUpdateResponse_decode(const CanardRxTransfer* transfer, uint32_t* bit_ofs, struct uavcan_protocol_file_BeginFirmwareUpdateResponse* msg, bool tao);
void _uavcan_protocol_file_BeginFirmwareUpdateResponse_encode(uint8_t* buffer, uint32_t* bit_ofs, struct uavcan_protocol_file_BeginFirmwareUpdateResponse* msg, bool tao) {
 8003b70:	b580      	push	{r7, lr}
 8003b72:	b086      	sub	sp, #24
 8003b74:	af00      	add	r7, sp, #0
 8003b76:	60f8      	str	r0, [r7, #12]
 8003b78:	60b9      	str	r1, [r7, #8]
 8003b7a:	607a      	str	r2, [r7, #4]
 8003b7c:	70fb      	strb	r3, [r7, #3]





    canardEncodeScalar(buffer, *bit_ofs, 8, &msg->error);
 8003b7e:	68bb      	ldr	r3, [r7, #8]
 8003b80:	6819      	ldr	r1, [r3, #0]
 8003b82:	687b      	ldr	r3, [r7, #4]
 8003b84:	2208      	movs	r2, #8
 8003b86:	68f8      	ldr	r0, [r7, #12]
 8003b88:	f7fd fd0b 	bl	80015a2 <canardEncodeScalar>

    *bit_ofs += 8;
 8003b8c:	68bb      	ldr	r3, [r7, #8]
 8003b8e:	681b      	ldr	r3, [r3, #0]
 8003b90:	f103 0208 	add.w	r2, r3, #8
 8003b94:	68bb      	ldr	r3, [r7, #8]
 8003b96:	601a      	str	r2, [r3, #0]





    if (!tao) {
 8003b98:	78fb      	ldrb	r3, [r7, #3]
 8003b9a:	f083 0301 	eor.w	r3, r3, #1
 8003b9e:	b2db      	uxtb	r3, r3
 8003ba0:	2b00      	cmp	r3, #0
 8003ba2:	d00c      	beq.n	8003bbe <_uavcan_protocol_file_BeginFirmwareUpdateResponse_encode+0x4e>


        canardEncodeScalar(buffer, *bit_ofs, 7, &msg->optional_error_message.len);
 8003ba4:	68bb      	ldr	r3, [r7, #8]
 8003ba6:	6819      	ldr	r1, [r3, #0]
 8003ba8:	687b      	ldr	r3, [r7, #4]
 8003baa:	3301      	adds	r3, #1
 8003bac:	2207      	movs	r2, #7
 8003bae:	68f8      	ldr	r0, [r7, #12]
 8003bb0:	f7fd fcf7 	bl	80015a2 <canardEncodeScalar>
        *bit_ofs += 7;
 8003bb4:	68bb      	ldr	r3, [r7, #8]
 8003bb6:	681b      	ldr	r3, [r3, #0]
 8003bb8:	1dda      	adds	r2, r3, #7
 8003bba:	68bb      	ldr	r3, [r7, #8]
 8003bbc:	601a      	str	r2, [r3, #0]

    }

#pragma GCC diagnostic push
#pragma GCC diagnostic ignored "-Wtype-limits"
    const size_t optional_error_message_len = msg->optional_error_message.len > 127 ? 127 : msg->optional_error_message.len;
 8003bbe:	687b      	ldr	r3, [r7, #4]
 8003bc0:	785b      	ldrb	r3, [r3, #1]
 8003bc2:	b25b      	sxtb	r3, r3
 8003bc4:	2b00      	cmp	r3, #0
 8003bc6:	db02      	blt.n	8003bce <_uavcan_protocol_file_BeginFirmwareUpdateResponse_encode+0x5e>
 8003bc8:	687b      	ldr	r3, [r7, #4]
 8003bca:	785b      	ldrb	r3, [r3, #1]
 8003bcc:	e000      	b.n	8003bd0 <_uavcan_protocol_file_BeginFirmwareUpdateResponse_encode+0x60>
 8003bce:	237f      	movs	r3, #127	@ 0x7f
 8003bd0:	613b      	str	r3, [r7, #16]
#pragma GCC diagnostic pop
    for (size_t i=0; i < optional_error_message_len; i++) {
 8003bd2:	2300      	movs	r3, #0
 8003bd4:	617b      	str	r3, [r7, #20]
 8003bd6:	e012      	b.n	8003bfe <_uavcan_protocol_file_BeginFirmwareUpdateResponse_encode+0x8e>




        canardEncodeScalar(buffer, *bit_ofs, 8, &msg->optional_error_message.data[i]);
 8003bd8:	68bb      	ldr	r3, [r7, #8]
 8003bda:	6819      	ldr	r1, [r3, #0]
 8003bdc:	687a      	ldr	r2, [r7, #4]
 8003bde:	697b      	ldr	r3, [r7, #20]
 8003be0:	4413      	add	r3, r2
 8003be2:	3302      	adds	r3, #2
 8003be4:	2208      	movs	r2, #8
 8003be6:	68f8      	ldr	r0, [r7, #12]
 8003be8:	f7fd fcdb 	bl	80015a2 <canardEncodeScalar>

        *bit_ofs += 8;
 8003bec:	68bb      	ldr	r3, [r7, #8]
 8003bee:	681b      	ldr	r3, [r3, #0]
 8003bf0:	f103 0208 	add.w	r2, r3, #8
 8003bf4:	68bb      	ldr	r3, [r7, #8]
 8003bf6:	601a      	str	r2, [r3, #0]
    for (size_t i=0; i < optional_error_message_len; i++) {
 8003bf8:	697b      	ldr	r3, [r7, #20]
 8003bfa:	3301      	adds	r3, #1
 8003bfc:	617b      	str	r3, [r7, #20]
 8003bfe:	697a      	ldr	r2, [r7, #20]
 8003c00:	693b      	ldr	r3, [r7, #16]
 8003c02:	429a      	cmp	r2, r3
 8003c04:	d3e8      	bcc.n	8003bd8 <_uavcan_protocol_file_BeginFirmwareUpdateResponse_encode+0x68>





}
 8003c06:	bf00      	nop
 8003c08:	bf00      	nop
 8003c0a:	3718      	adds	r7, #24
 8003c0c:	46bd      	mov	sp, r7
 8003c0e:	bd80      	pop	{r7, pc}

08003c10 <uavcan_protocol_file_BeginFirmwareUpdateResponse_encode>:

uint32_t uavcan_protocol_file_BeginFirmwareUpdateResponse_encode(struct uavcan_protocol_file_BeginFirmwareUpdateResponse* msg, uint8_t* buffer
#if CANARD_ENABLE_TAO_OPTION
    , bool tao
#endif
) {
 8003c10:	b580      	push	{r7, lr}
 8003c12:	b084      	sub	sp, #16
 8003c14:	af00      	add	r7, sp, #0
 8003c16:	6078      	str	r0, [r7, #4]
 8003c18:	6039      	str	r1, [r7, #0]
    uint32_t bit_ofs = 0;
 8003c1a:	2300      	movs	r3, #0
 8003c1c:	60fb      	str	r3, [r7, #12]
    memset(buffer, 0, UAVCAN_PROTOCOL_FILE_BEGINFIRMWAREUPDATE_RESPONSE_MAX_SIZE);
 8003c1e:	2281      	movs	r2, #129	@ 0x81
 8003c20:	2100      	movs	r1, #0
 8003c22:	6838      	ldr	r0, [r7, #0]
 8003c24:	f003 fe9b 	bl	800795e <memset>
    _uavcan_protocol_file_BeginFirmwareUpdateResponse_encode(buffer, &bit_ofs, msg, 
 8003c28:	f107 010c 	add.w	r1, r7, #12
 8003c2c:	2301      	movs	r3, #1
 8003c2e:	687a      	ldr	r2, [r7, #4]
 8003c30:	6838      	ldr	r0, [r7, #0]
 8003c32:	f7ff ff9d 	bl	8003b70 <_uavcan_protocol_file_BeginFirmwareUpdateResponse_encode>
    tao
#else
    true
#endif
    );
    return ((bit_ofs+7)/8);
 8003c36:	68fb      	ldr	r3, [r7, #12]
 8003c38:	3307      	adds	r3, #7
 8003c3a:	08db      	lsrs	r3, r3, #3
}
 8003c3c:	4618      	mov	r0, r3
 8003c3e:	3710      	adds	r7, #16
 8003c40:	46bd      	mov	sp, r7
 8003c42:	bd80      	pop	{r7, pc}

08003c44 <_uavcan_protocol_file_Path_encode>:
void _uavcan_protocol_file_Path_encode(uint8_t* buffer, uint32_t* bit_ofs, struct uavcan_protocol_file_Path* msg, bool tao) {
 8003c44:	b580      	push	{r7, lr}
 8003c46:	b086      	sub	sp, #24
 8003c48:	af00      	add	r7, sp, #0
 8003c4a:	60f8      	str	r0, [r7, #12]
 8003c4c:	60b9      	str	r1, [r7, #8]
 8003c4e:	607a      	str	r2, [r7, #4]
 8003c50:	70fb      	strb	r3, [r7, #3]
    if (!tao) {
 8003c52:	78fb      	ldrb	r3, [r7, #3]
 8003c54:	f083 0301 	eor.w	r3, r3, #1
 8003c58:	b2db      	uxtb	r3, r3
 8003c5a:	2b00      	cmp	r3, #0
 8003c5c:	d00c      	beq.n	8003c78 <_uavcan_protocol_file_Path_encode+0x34>
        canardEncodeScalar(buffer, *bit_ofs, 8, &msg->path.len);
 8003c5e:	68bb      	ldr	r3, [r7, #8]
 8003c60:	6819      	ldr	r1, [r3, #0]
 8003c62:	687b      	ldr	r3, [r7, #4]
 8003c64:	2208      	movs	r2, #8
 8003c66:	68f8      	ldr	r0, [r7, #12]
 8003c68:	f7fd fc9b 	bl	80015a2 <canardEncodeScalar>
        *bit_ofs += 8;
 8003c6c:	68bb      	ldr	r3, [r7, #8]
 8003c6e:	681b      	ldr	r3, [r3, #0]
 8003c70:	f103 0208 	add.w	r2, r3, #8
 8003c74:	68bb      	ldr	r3, [r7, #8]
 8003c76:	601a      	str	r2, [r3, #0]
    const size_t path_len = msg->path.len > 200 ? 200 : msg->path.len;
 8003c78:	687b      	ldr	r3, [r7, #4]
 8003c7a:	781b      	ldrb	r3, [r3, #0]
 8003c7c:	2bc8      	cmp	r3, #200	@ 0xc8
 8003c7e:	bf28      	it	cs
 8003c80:	23c8      	movcs	r3, #200	@ 0xc8
 8003c82:	b2db      	uxtb	r3, r3
 8003c84:	613b      	str	r3, [r7, #16]
    for (size_t i=0; i < path_len; i++) {
 8003c86:	2300      	movs	r3, #0
 8003c88:	617b      	str	r3, [r7, #20]
 8003c8a:	e012      	b.n	8003cb2 <_uavcan_protocol_file_Path_encode+0x6e>
        canardEncodeScalar(buffer, *bit_ofs, 8, &msg->path.data[i]);
 8003c8c:	68bb      	ldr	r3, [r7, #8]
 8003c8e:	6819      	ldr	r1, [r3, #0]
 8003c90:	687a      	ldr	r2, [r7, #4]
 8003c92:	697b      	ldr	r3, [r7, #20]
 8003c94:	4413      	add	r3, r2
 8003c96:	3301      	adds	r3, #1
 8003c98:	2208      	movs	r2, #8
 8003c9a:	68f8      	ldr	r0, [r7, #12]
 8003c9c:	f7fd fc81 	bl	80015a2 <canardEncodeScalar>
        *bit_ofs += 8;
 8003ca0:	68bb      	ldr	r3, [r7, #8]
 8003ca2:	681b      	ldr	r3, [r3, #0]
 8003ca4:	f103 0208 	add.w	r2, r3, #8
 8003ca8:	68bb      	ldr	r3, [r7, #8]
 8003caa:	601a      	str	r2, [r3, #0]
    for (size_t i=0; i < path_len; i++) {
 8003cac:	697b      	ldr	r3, [r7, #20]
 8003cae:	3301      	adds	r3, #1
 8003cb0:	617b      	str	r3, [r7, #20]
 8003cb2:	697a      	ldr	r2, [r7, #20]
 8003cb4:	693b      	ldr	r3, [r7, #16]
 8003cb6:	429a      	cmp	r2, r3
 8003cb8:	d3e8      	bcc.n	8003c8c <_uavcan_protocol_file_Path_encode+0x48>
}
 8003cba:	bf00      	nop
 8003cbc:	bf00      	nop
 8003cbe:	3718      	adds	r7, #24
 8003cc0:	46bd      	mov	sp, r7
 8003cc2:	bd80      	pop	{r7, pc}

08003cc4 <_uavcan_protocol_file_ReadRequest_encode>:

#if defined(CANARD_DSDLC_INTERNAL)

static inline void _uavcan_protocol_file_ReadRequest_encode(uint8_t* buffer, uint32_t* bit_ofs, struct uavcan_protocol_file_ReadRequest* msg, bool tao);
static inline bool _uavcan_protocol_file_ReadRequest_decode(const CanardRxTransfer* transfer, uint32_t* bit_ofs, struct uavcan_protocol_file_ReadRequest* msg, bool tao);
void _uavcan_protocol_file_ReadRequest_encode(uint8_t* buffer, uint32_t* bit_ofs, struct uavcan_protocol_file_ReadRequest* msg, bool tao) {
 8003cc4:	b580      	push	{r7, lr}
 8003cc6:	b084      	sub	sp, #16
 8003cc8:	af00      	add	r7, sp, #0
 8003cca:	60f8      	str	r0, [r7, #12]
 8003ccc:	60b9      	str	r1, [r7, #8]
 8003cce:	607a      	str	r2, [r7, #4]
 8003cd0:	70fb      	strb	r3, [r7, #3]





    canardEncodeScalar(buffer, *bit_ofs, 40, &msg->offset);
 8003cd2:	68bb      	ldr	r3, [r7, #8]
 8003cd4:	6819      	ldr	r1, [r3, #0]
 8003cd6:	687b      	ldr	r3, [r7, #4]
 8003cd8:	2228      	movs	r2, #40	@ 0x28
 8003cda:	68f8      	ldr	r0, [r7, #12]
 8003cdc:	f7fd fc61 	bl	80015a2 <canardEncodeScalar>

    *bit_ofs += 40;
 8003ce0:	68bb      	ldr	r3, [r7, #8]
 8003ce2:	681b      	ldr	r3, [r3, #0]
 8003ce4:	f103 0228 	add.w	r2, r3, #40	@ 0x28
 8003ce8:	68bb      	ldr	r3, [r7, #8]
 8003cea:	601a      	str	r2, [r3, #0]





    _uavcan_protocol_file_Path_encode(buffer, bit_ofs, &msg->path, tao);
 8003cec:	687b      	ldr	r3, [r7, #4]
 8003cee:	f103 0208 	add.w	r2, r3, #8
 8003cf2:	78fb      	ldrb	r3, [r7, #3]
 8003cf4:	68b9      	ldr	r1, [r7, #8]
 8003cf6:	68f8      	ldr	r0, [r7, #12]
 8003cf8:	f7ff ffa4 	bl	8003c44 <_uavcan_protocol_file_Path_encode>





}
 8003cfc:	bf00      	nop
 8003cfe:	3710      	adds	r7, #16
 8003d00:	46bd      	mov	sp, r7
 8003d02:	bd80      	pop	{r7, pc}

08003d04 <uavcan_protocol_file_ReadRequest_encode>:

uint32_t uavcan_protocol_file_ReadRequest_encode(struct uavcan_protocol_file_ReadRequest* msg, uint8_t* buffer
#if CANARD_ENABLE_TAO_OPTION
    , bool tao
#endif
) {
 8003d04:	b580      	push	{r7, lr}
 8003d06:	b084      	sub	sp, #16
 8003d08:	af00      	add	r7, sp, #0
 8003d0a:	6078      	str	r0, [r7, #4]
 8003d0c:	6039      	str	r1, [r7, #0]
    uint32_t bit_ofs = 0;
 8003d0e:	2300      	movs	r3, #0
 8003d10:	60fb      	str	r3, [r7, #12]
    memset(buffer, 0, UAVCAN_PROTOCOL_FILE_READ_REQUEST_MAX_SIZE);
 8003d12:	22ce      	movs	r2, #206	@ 0xce
 8003d14:	2100      	movs	r1, #0
 8003d16:	6838      	ldr	r0, [r7, #0]
 8003d18:	f003 fe21 	bl	800795e <memset>
    _uavcan_protocol_file_ReadRequest_encode(buffer, &bit_ofs, msg, 
 8003d1c:	f107 010c 	add.w	r1, r7, #12
 8003d20:	2301      	movs	r3, #1
 8003d22:	687a      	ldr	r2, [r7, #4]
 8003d24:	6838      	ldr	r0, [r7, #0]
 8003d26:	f7ff ffcd 	bl	8003cc4 <_uavcan_protocol_file_ReadRequest_encode>
    tao
#else
    true
#endif
    );
    return ((bit_ofs+7)/8);
 8003d2a:	68fb      	ldr	r3, [r7, #12]
 8003d2c:	3307      	adds	r3, #7
 8003d2e:	08db      	lsrs	r3, r3, #3
}
 8003d30:	4618      	mov	r0, r3
 8003d32:	3710      	adds	r7, #16
 8003d34:	46bd      	mov	sp, r7
 8003d36:	bd80      	pop	{r7, pc}

08003d38 <_uavcan_protocol_file_Error_decode>:
}

/*
 decode uavcan_protocol_file_Error, return true on failure, false on success
*/
bool _uavcan_protocol_file_Error_decode(const CanardRxTransfer* transfer, uint32_t* bit_ofs, struct uavcan_protocol_file_Error* msg, bool tao) {
 8003d38:	b580      	push	{r7, lr}
 8003d3a:	b086      	sub	sp, #24
 8003d3c:	af02      	add	r7, sp, #8
 8003d3e:	60f8      	str	r0, [r7, #12]
 8003d40:	60b9      	str	r1, [r7, #8]
 8003d42:	607a      	str	r2, [r7, #4]
 8003d44:	70fb      	strb	r3, [r7, #3]





    canardDecodeScalar(transfer, *bit_ofs, 16, true, &msg->value);
 8003d46:	68bb      	ldr	r3, [r7, #8]
 8003d48:	6819      	ldr	r1, [r3, #0]
 8003d4a:	687b      	ldr	r3, [r7, #4]
 8003d4c:	9300      	str	r3, [sp, #0]
 8003d4e:	2301      	movs	r3, #1
 8003d50:	2210      	movs	r2, #16
 8003d52:	68f8      	ldr	r0, [r7, #12]
 8003d54:	f7fd fa9c 	bl	8001290 <canardDecodeScalar>

    *bit_ofs += 16;
 8003d58:	68bb      	ldr	r3, [r7, #8]
 8003d5a:	681b      	ldr	r3, [r3, #0]
 8003d5c:	f103 0210 	add.w	r2, r3, #16
 8003d60:	68bb      	ldr	r3, [r7, #8]
 8003d62:	601a      	str	r2, [r3, #0]





    return false; /* success */
 8003d64:	2300      	movs	r3, #0

}
 8003d66:	4618      	mov	r0, r3
 8003d68:	3710      	adds	r7, #16
 8003d6a:	46bd      	mov	sp, r7
 8003d6c:	bd80      	pop	{r7, pc}

08003d6e <_uavcan_protocol_file_ReadResponse_decode>:
}

/*
 decode uavcan_protocol_file_ReadResponse, return true on failure, false on success
*/
bool _uavcan_protocol_file_ReadResponse_decode(const CanardRxTransfer* transfer, uint32_t* bit_ofs, struct uavcan_protocol_file_ReadResponse* msg, bool tao) {
 8003d6e:	b580      	push	{r7, lr}
 8003d70:	b088      	sub	sp, #32
 8003d72:	af02      	add	r7, sp, #8
 8003d74:	60f8      	str	r0, [r7, #12]
 8003d76:	60b9      	str	r1, [r7, #8]
 8003d78:	607a      	str	r2, [r7, #4]
 8003d7a:	70fb      	strb	r3, [r7, #3]
    (void)tao;




    if (_uavcan_protocol_file_Error_decode(transfer, bit_ofs, &msg->error, false)) {return true;}
 8003d7c:	687a      	ldr	r2, [r7, #4]
 8003d7e:	2300      	movs	r3, #0
 8003d80:	68b9      	ldr	r1, [r7, #8]
 8003d82:	68f8      	ldr	r0, [r7, #12]
 8003d84:	f7ff ffd8 	bl	8003d38 <_uavcan_protocol_file_Error_decode>
 8003d88:	4603      	mov	r3, r0
 8003d8a:	2b00      	cmp	r3, #0
 8003d8c:	d001      	beq.n	8003d92 <_uavcan_protocol_file_ReadResponse_decode+0x24>
 8003d8e:	2301      	movs	r3, #1
 8003d90:	e047      	b.n	8003e22 <_uavcan_protocol_file_ReadResponse_decode+0xb4>





    if (!tao) {
 8003d92:	78fb      	ldrb	r3, [r7, #3]
 8003d94:	f083 0301 	eor.w	r3, r3, #1
 8003d98:	b2db      	uxtb	r3, r3
 8003d9a:	2b00      	cmp	r3, #0
 8003d9c:	d010      	beq.n	8003dc0 <_uavcan_protocol_file_ReadResponse_decode+0x52>


        canardDecodeScalar(transfer, *bit_ofs, 9, false, &msg->data.len);
 8003d9e:	68bb      	ldr	r3, [r7, #8]
 8003da0:	6819      	ldr	r1, [r3, #0]
 8003da2:	687b      	ldr	r3, [r7, #4]
 8003da4:	3302      	adds	r3, #2
 8003da6:	9300      	str	r3, [sp, #0]
 8003da8:	2300      	movs	r3, #0
 8003daa:	2209      	movs	r2, #9
 8003dac:	68f8      	ldr	r0, [r7, #12]
 8003dae:	f7fd fa6f 	bl	8001290 <canardDecodeScalar>
        *bit_ofs += 9;
 8003db2:	68bb      	ldr	r3, [r7, #8]
 8003db4:	681b      	ldr	r3, [r3, #0]
 8003db6:	f103 0209 	add.w	r2, r3, #9
 8003dba:	68bb      	ldr	r3, [r7, #8]
 8003dbc:	601a      	str	r2, [r3, #0]
 8003dbe:	e00a      	b.n	8003dd6 <_uavcan_protocol_file_ReadResponse_decode+0x68>



    } else {

        msg->data.len = ((transfer->payload_len*8)-*bit_ofs)/8;
 8003dc0:	68fb      	ldr	r3, [r7, #12]
 8003dc2:	8a9b      	ldrh	r3, [r3, #20]
 8003dc4:	00db      	lsls	r3, r3, #3
 8003dc6:	461a      	mov	r2, r3
 8003dc8:	68bb      	ldr	r3, [r7, #8]
 8003dca:	681b      	ldr	r3, [r3, #0]
 8003dcc:	1ad3      	subs	r3, r2, r3
 8003dce:	08db      	lsrs	r3, r3, #3
 8003dd0:	b29a      	uxth	r2, r3
 8003dd2:	687b      	ldr	r3, [r7, #4]
 8003dd4:	805a      	strh	r2, [r3, #2]



#pragma GCC diagnostic push
#pragma GCC diagnostic ignored "-Wtype-limits"
    if (msg->data.len > 256) {
 8003dd6:	687b      	ldr	r3, [r7, #4]
 8003dd8:	885b      	ldrh	r3, [r3, #2]
 8003dda:	f5b3 7f80 	cmp.w	r3, #256	@ 0x100
 8003dde:	d901      	bls.n	8003de4 <_uavcan_protocol_file_ReadResponse_decode+0x76>
        return true; /* invalid value */
 8003de0:	2301      	movs	r3, #1
 8003de2:	e01e      	b.n	8003e22 <_uavcan_protocol_file_ReadResponse_decode+0xb4>
    }
#pragma GCC diagnostic pop
    for (size_t i=0; i < msg->data.len; i++) {
 8003de4:	2300      	movs	r3, #0
 8003de6:	617b      	str	r3, [r7, #20]
 8003de8:	e014      	b.n	8003e14 <_uavcan_protocol_file_ReadResponse_decode+0xa6>




        canardDecodeScalar(transfer, *bit_ofs, 8, false, &msg->data.data[i]);
 8003dea:	68bb      	ldr	r3, [r7, #8]
 8003dec:	6819      	ldr	r1, [r3, #0]
 8003dee:	687a      	ldr	r2, [r7, #4]
 8003df0:	697b      	ldr	r3, [r7, #20]
 8003df2:	4413      	add	r3, r2
 8003df4:	3304      	adds	r3, #4
 8003df6:	9300      	str	r3, [sp, #0]
 8003df8:	2300      	movs	r3, #0
 8003dfa:	2208      	movs	r2, #8
 8003dfc:	68f8      	ldr	r0, [r7, #12]
 8003dfe:	f7fd fa47 	bl	8001290 <canardDecodeScalar>

        *bit_ofs += 8;
 8003e02:	68bb      	ldr	r3, [r7, #8]
 8003e04:	681b      	ldr	r3, [r3, #0]
 8003e06:	f103 0208 	add.w	r2, r3, #8
 8003e0a:	68bb      	ldr	r3, [r7, #8]
 8003e0c:	601a      	str	r2, [r3, #0]
    for (size_t i=0; i < msg->data.len; i++) {
 8003e0e:	697b      	ldr	r3, [r7, #20]
 8003e10:	3301      	adds	r3, #1
 8003e12:	617b      	str	r3, [r7, #20]
 8003e14:	687b      	ldr	r3, [r7, #4]
 8003e16:	885b      	ldrh	r3, [r3, #2]
 8003e18:	461a      	mov	r2, r3
 8003e1a:	697b      	ldr	r3, [r7, #20]
 8003e1c:	4293      	cmp	r3, r2
 8003e1e:	d3e4      	bcc.n	8003dea <_uavcan_protocol_file_ReadResponse_decode+0x7c>





    return false; /* success */
 8003e20:	2300      	movs	r3, #0

}
 8003e22:	4618      	mov	r0, r3
 8003e24:	3718      	adds	r7, #24
 8003e26:	46bd      	mov	sp, r7
 8003e28:	bd80      	pop	{r7, pc}

08003e2a <uavcan_protocol_file_ReadResponse_decode>:
}

/*
  return true if the decode is invalid
 */
bool uavcan_protocol_file_ReadResponse_decode(const CanardRxTransfer* transfer, struct uavcan_protocol_file_ReadResponse* msg) {
 8003e2a:	b580      	push	{r7, lr}
 8003e2c:	b084      	sub	sp, #16
 8003e2e:	af00      	add	r7, sp, #0
 8003e30:	6078      	str	r0, [r7, #4]
 8003e32:	6039      	str	r1, [r7, #0]
#if CANARD_ENABLE_TAO_OPTION
    if (transfer->tao && (transfer->payload_len > UAVCAN_PROTOCOL_FILE_READ_RESPONSE_MAX_SIZE)) {
        return true; /* invalid payload length */
    }
#endif
    uint32_t bit_ofs = 0;
 8003e34:	2300      	movs	r3, #0
 8003e36:	60bb      	str	r3, [r7, #8]
    if (_uavcan_protocol_file_ReadResponse_decode(transfer, &bit_ofs, msg,
 8003e38:	f107 0108 	add.w	r1, r7, #8
 8003e3c:	2301      	movs	r3, #1
 8003e3e:	683a      	ldr	r2, [r7, #0]
 8003e40:	6878      	ldr	r0, [r7, #4]
 8003e42:	f7ff ff94 	bl	8003d6e <_uavcan_protocol_file_ReadResponse_decode>
 8003e46:	4603      	mov	r3, r0
 8003e48:	2b00      	cmp	r3, #0
 8003e4a:	d001      	beq.n	8003e50 <uavcan_protocol_file_ReadResponse_decode+0x26>
    transfer->tao
#else
    true
#endif
    )) {
        return true; /* invalid payload */
 8003e4c:	2301      	movs	r3, #1
 8003e4e:	e00c      	b.n	8003e6a <uavcan_protocol_file_ReadResponse_decode+0x40>
    }

    const uint32_t byte_len = (bit_ofs+7U)/8U;
 8003e50:	68bb      	ldr	r3, [r7, #8]
 8003e52:	3307      	adds	r3, #7
 8003e54:	08db      	lsrs	r3, r3, #3
 8003e56:	60fb      	str	r3, [r7, #12]
    // we actually have
    if (!transfer->tao) {
        return byte_len > transfer->payload_len;
    }
#endif
    return byte_len != transfer->payload_len;
 8003e58:	687b      	ldr	r3, [r7, #4]
 8003e5a:	8a9b      	ldrh	r3, [r3, #20]
 8003e5c:	461a      	mov	r2, r3
 8003e5e:	68fb      	ldr	r3, [r7, #12]
 8003e60:	4293      	cmp	r3, r2
 8003e62:	bf14      	ite	ne
 8003e64:	2301      	movne	r3, #1
 8003e66:	2300      	moveq	r3, #0
 8003e68:	b2db      	uxtb	r3, r3
}
 8003e6a:	4618      	mov	r0, r3
 8003e6c:	3710      	adds	r7, #16
 8003e6e:	46bd      	mov	sp, r7
 8003e70:	bd80      	pop	{r7, pc}
	...

08003e74 <HAL_Init>:
  *         each 1ms in the SysTick_Handler() interrupt handler.
  *
  * @retval HAL status
  */
HAL_StatusTypeDef HAL_Init(void)
{
 8003e74:	b580      	push	{r7, lr}
 8003e76:	b082      	sub	sp, #8
 8003e78:	af00      	add	r7, sp, #0
  HAL_StatusTypeDef  status = HAL_OK;
 8003e7a:	2300      	movs	r3, #0
 8003e7c:	71fb      	strb	r3, [r7, #7]
#if (DATA_CACHE_ENABLE == 0)
   __HAL_FLASH_DATA_CACHE_DISABLE();
#endif /* DATA_CACHE_ENABLE */

#if (PREFETCH_ENABLE != 0)
  __HAL_FLASH_PREFETCH_BUFFER_ENABLE();
 8003e7e:	4b0c      	ldr	r3, [pc, #48]	@ (8003eb0 <HAL_Init+0x3c>)
 8003e80:	681b      	ldr	r3, [r3, #0]
 8003e82:	4a0b      	ldr	r2, [pc, #44]	@ (8003eb0 <HAL_Init+0x3c>)
 8003e84:	f443 7380 	orr.w	r3, r3, #256	@ 0x100
 8003e88:	6013      	str	r3, [r2, #0]
#endif /* PREFETCH_ENABLE */

  /* Set Interrupt Group Priority */
  HAL_NVIC_SetPriorityGrouping(NVIC_PRIORITYGROUP_4);
 8003e8a:	2003      	movs	r0, #3
 8003e8c:	f001 f848 	bl	8004f20 <HAL_NVIC_SetPriorityGrouping>

  /* Use SysTick as time base source and configure 1ms tick (default clock after Reset is MSI) */
  if (HAL_InitTick(TICK_INT_PRIORITY) != HAL_OK)
 8003e90:	2000      	movs	r0, #0
 8003e92:	f000 f84b 	bl	8003f2c <HAL_InitTick>
 8003e96:	4603      	mov	r3, r0
 8003e98:	2b00      	cmp	r3, #0
 8003e9a:	d002      	beq.n	8003ea2 <HAL_Init+0x2e>
  {
    status = HAL_ERROR;
 8003e9c:	2301      	movs	r3, #1
 8003e9e:	71fb      	strb	r3, [r7, #7]
 8003ea0:	e001      	b.n	8003ea6 <HAL_Init+0x32>
  }
  else
  {
    /* Init the low level hardware */
    HAL_MspInit();
 8003ea2:	f7ff fa17 	bl	80032d4 <HAL_MspInit>
  }

  /* Return function status */
  return status;
 8003ea6:	79fb      	ldrb	r3, [r7, #7]
}
 8003ea8:	4618      	mov	r0, r3
 8003eaa:	3708      	adds	r7, #8
 8003eac:	46bd      	mov	sp, r7
 8003eae:	bd80      	pop	{r7, pc}
 8003eb0:	40022000 	.word	0x40022000

08003eb4 <HAL_DeInit>:
  * @brief De-initialize common part of the HAL and stop the source of time base.
  * @note This function is optional.
  * @retval HAL status
  */
HAL_StatusTypeDef HAL_DeInit(void)
{
 8003eb4:	b580      	push	{r7, lr}
 8003eb6:	af00      	add	r7, sp, #0
  /* Reset of all peripherals */
  __HAL_RCC_APB1_FORCE_RESET();
 8003eb8:	4b17      	ldr	r3, [pc, #92]	@ (8003f18 <HAL_DeInit+0x64>)
 8003eba:	f04f 32ff 	mov.w	r2, #4294967295
 8003ebe:	639a      	str	r2, [r3, #56]	@ 0x38
 8003ec0:	4b15      	ldr	r3, [pc, #84]	@ (8003f18 <HAL_DeInit+0x64>)
 8003ec2:	f04f 32ff 	mov.w	r2, #4294967295
 8003ec6:	63da      	str	r2, [r3, #60]	@ 0x3c
  __HAL_RCC_APB1_RELEASE_RESET();
 8003ec8:	4b13      	ldr	r3, [pc, #76]	@ (8003f18 <HAL_DeInit+0x64>)
 8003eca:	2200      	movs	r2, #0
 8003ecc:	639a      	str	r2, [r3, #56]	@ 0x38
 8003ece:	4b12      	ldr	r3, [pc, #72]	@ (8003f18 <HAL_DeInit+0x64>)
 8003ed0:	2200      	movs	r2, #0
 8003ed2:	63da      	str	r2, [r3, #60]	@ 0x3c

  __HAL_RCC_APB2_FORCE_RESET();
 8003ed4:	4b10      	ldr	r3, [pc, #64]	@ (8003f18 <HAL_DeInit+0x64>)
 8003ed6:	f04f 32ff 	mov.w	r2, #4294967295
 8003eda:	641a      	str	r2, [r3, #64]	@ 0x40
  __HAL_RCC_APB2_RELEASE_RESET();
 8003edc:	4b0e      	ldr	r3, [pc, #56]	@ (8003f18 <HAL_DeInit+0x64>)
 8003ede:	2200      	movs	r2, #0
 8003ee0:	641a      	str	r2, [r3, #64]	@ 0x40

  __HAL_RCC_AHB1_FORCE_RESET();
 8003ee2:	4b0d      	ldr	r3, [pc, #52]	@ (8003f18 <HAL_DeInit+0x64>)
 8003ee4:	f04f 32ff 	mov.w	r2, #4294967295
 8003ee8:	629a      	str	r2, [r3, #40]	@ 0x28
  __HAL_RCC_AHB1_RELEASE_RESET();
 8003eea:	4b0b      	ldr	r3, [pc, #44]	@ (8003f18 <HAL_DeInit+0x64>)
 8003eec:	2200      	movs	r2, #0
 8003eee:	629a      	str	r2, [r3, #40]	@ 0x28

  __HAL_RCC_AHB2_FORCE_RESET();
 8003ef0:	4b09      	ldr	r3, [pc, #36]	@ (8003f18 <HAL_DeInit+0x64>)
 8003ef2:	f04f 32ff 	mov.w	r2, #4294967295
 8003ef6:	62da      	str	r2, [r3, #44]	@ 0x2c
  __HAL_RCC_AHB2_RELEASE_RESET();
 8003ef8:	4b07      	ldr	r3, [pc, #28]	@ (8003f18 <HAL_DeInit+0x64>)
 8003efa:	2200      	movs	r2, #0
 8003efc:	62da      	str	r2, [r3, #44]	@ 0x2c

  __HAL_RCC_AHB3_FORCE_RESET();
 8003efe:	4b06      	ldr	r3, [pc, #24]	@ (8003f18 <HAL_DeInit+0x64>)
 8003f00:	f04f 32ff 	mov.w	r2, #4294967295
 8003f04:	631a      	str	r2, [r3, #48]	@ 0x30
  __HAL_RCC_AHB3_RELEASE_RESET();
 8003f06:	4b04      	ldr	r3, [pc, #16]	@ (8003f18 <HAL_DeInit+0x64>)
 8003f08:	2200      	movs	r2, #0
 8003f0a:	631a      	str	r2, [r3, #48]	@ 0x30

  /* De-Init the low level hardware */
  HAL_MspDeInit();
 8003f0c:	f000 f806 	bl	8003f1c <HAL_MspDeInit>

  /* Return function status */
  return HAL_OK;
 8003f10:	2300      	movs	r3, #0
}
 8003f12:	4618      	mov	r0, r3
 8003f14:	bd80      	pop	{r7, pc}
 8003f16:	bf00      	nop
 8003f18:	40021000 	.word	0x40021000

08003f1c <HAL_MspDeInit>:
/**
  * @brief  DeInitialize the MSP.
  * @retval None
  */
__weak void HAL_MspDeInit(void)
{
 8003f1c:	b480      	push	{r7}
 8003f1e:	af00      	add	r7, sp, #0
  /* NOTE : This function should not be modified, when the callback is needed,
            the HAL_MspDeInit could be implemented in the user file
   */
}
 8003f20:	bf00      	nop
 8003f22:	46bd      	mov	sp, r7
 8003f24:	f85d 7b04 	ldr.w	r7, [sp], #4
 8003f28:	4770      	bx	lr
	...

08003f2c <HAL_InitTick>:
  *       implementation  in user file.
  * @param TickPriority  Tick interrupt priority.
  * @retval HAL status
  */
__weak HAL_StatusTypeDef HAL_InitTick(uint32_t TickPriority)
{
 8003f2c:	b580      	push	{r7, lr}
 8003f2e:	b084      	sub	sp, #16
 8003f30:	af00      	add	r7, sp, #0
 8003f32:	6078      	str	r0, [r7, #4]
  HAL_StatusTypeDef  status = HAL_OK;
 8003f34:	2300      	movs	r3, #0
 8003f36:	73fb      	strb	r3, [r7, #15]

  /* Check uwTickFreq for MisraC 2012 (even if uwTickFreq is a enum type that doesn't take the value zero)*/
  if ((uint32_t)uwTickFreq != 0U)
 8003f38:	4b17      	ldr	r3, [pc, #92]	@ (8003f98 <HAL_InitTick+0x6c>)
 8003f3a:	781b      	ldrb	r3, [r3, #0]
 8003f3c:	2b00      	cmp	r3, #0
 8003f3e:	d023      	beq.n	8003f88 <HAL_InitTick+0x5c>
  {
    /*Configure the SysTick to have interrupt in 1ms time basis*/
    if (HAL_SYSTICK_Config(SystemCoreClock / (1000U / (uint32_t)uwTickFreq)) == 0U)
 8003f40:	4b16      	ldr	r3, [pc, #88]	@ (8003f9c <HAL_InitTick+0x70>)
 8003f42:	681a      	ldr	r2, [r3, #0]
 8003f44:	4b14      	ldr	r3, [pc, #80]	@ (8003f98 <HAL_InitTick+0x6c>)
 8003f46:	781b      	ldrb	r3, [r3, #0]
 8003f48:	4619      	mov	r1, r3
 8003f4a:	f44f 737a 	mov.w	r3, #1000	@ 0x3e8
 8003f4e:	fbb3 f3f1 	udiv	r3, r3, r1
 8003f52:	fbb2 f3f3 	udiv	r3, r2, r3
 8003f56:	4618      	mov	r0, r3
 8003f58:	f001 f817 	bl	8004f8a <HAL_SYSTICK_Config>
 8003f5c:	4603      	mov	r3, r0
 8003f5e:	2b00      	cmp	r3, #0
 8003f60:	d10f      	bne.n	8003f82 <HAL_InitTick+0x56>
    {
      /* Configure the SysTick IRQ priority */
      if (TickPriority < (1UL << __NVIC_PRIO_BITS))
 8003f62:	687b      	ldr	r3, [r7, #4]
 8003f64:	2b0f      	cmp	r3, #15
 8003f66:	d809      	bhi.n	8003f7c <HAL_InitTick+0x50>
      {
        HAL_NVIC_SetPriority(SysTick_IRQn, TickPriority, 0U);
 8003f68:	2200      	movs	r2, #0
 8003f6a:	6879      	ldr	r1, [r7, #4]
 8003f6c:	f04f 30ff 	mov.w	r0, #4294967295
 8003f70:	f000 ffe1 	bl	8004f36 <HAL_NVIC_SetPriority>
        uwTickPrio = TickPriority;
 8003f74:	4a0a      	ldr	r2, [pc, #40]	@ (8003fa0 <HAL_InitTick+0x74>)
 8003f76:	687b      	ldr	r3, [r7, #4]
 8003f78:	6013      	str	r3, [r2, #0]
 8003f7a:	e007      	b.n	8003f8c <HAL_InitTick+0x60>
      }
      else
      {
        status = HAL_ERROR;
 8003f7c:	2301      	movs	r3, #1
 8003f7e:	73fb      	strb	r3, [r7, #15]
 8003f80:	e004      	b.n	8003f8c <HAL_InitTick+0x60>
      }
    }
    else
    {
      status = HAL_ERROR;
 8003f82:	2301      	movs	r3, #1
 8003f84:	73fb      	strb	r3, [r7, #15]
 8003f86:	e001      	b.n	8003f8c <HAL_InitTick+0x60>
    }
  }
  else
  {
    status = HAL_ERROR;
 8003f88:	2301      	movs	r3, #1
 8003f8a:	73fb      	strb	r3, [r7, #15]
  }

  /* Return function status */
  return status;
 8003f8c:	7bfb      	ldrb	r3, [r7, #15]
}
 8003f8e:	4618      	mov	r0, r3
 8003f90:	3710      	adds	r7, #16
 8003f92:	46bd      	mov	sp, r7
 8003f94:	bd80      	pop	{r7, pc}
 8003f96:	bf00      	nop
 8003f98:	20000008 	.word	0x20000008
 8003f9c:	20000000 	.word	0x20000000
 8003fa0:	20000004 	.word	0x20000004

08003fa4 <HAL_IncTick>:
 * @note This function is declared as __weak to be overwritten in case of other
  *      implementations in user file.
  * @retval None
  */
__weak void HAL_IncTick(void)
{
 8003fa4:	b480      	push	{r7}
 8003fa6:	af00      	add	r7, sp, #0
  uwTick += (uint32_t)uwTickFreq;
 8003fa8:	4b06      	ldr	r3, [pc, #24]	@ (8003fc4 <HAL_IncTick+0x20>)
 8003faa:	781b      	ldrb	r3, [r3, #0]
 8003fac:	461a      	mov	r2, r3
 8003fae:	4b06      	ldr	r3, [pc, #24]	@ (8003fc8 <HAL_IncTick+0x24>)
 8003fb0:	681b      	ldr	r3, [r3, #0]
 8003fb2:	4413      	add	r3, r2
 8003fb4:	4a04      	ldr	r2, [pc, #16]	@ (8003fc8 <HAL_IncTick+0x24>)
 8003fb6:	6013      	str	r3, [r2, #0]
}
 8003fb8:	bf00      	nop
 8003fba:	46bd      	mov	sp, r7
 8003fbc:	f85d 7b04 	ldr.w	r7, [sp], #4
 8003fc0:	4770      	bx	lr
 8003fc2:	bf00      	nop
 8003fc4:	20000008 	.word	0x20000008
 8003fc8:	200006bc 	.word	0x200006bc

08003fcc <HAL_GetTick>:
  * @note This function is declared as __weak to be overwritten in case of other
  *       implementations in user file.
  * @retval tick value
  */
__weak uint32_t HAL_GetTick(void)
{
 8003fcc:	b480      	push	{r7}
 8003fce:	af00      	add	r7, sp, #0
  return uwTick;
 8003fd0:	4b03      	ldr	r3, [pc, #12]	@ (8003fe0 <HAL_GetTick+0x14>)
 8003fd2:	681b      	ldr	r3, [r3, #0]
}
 8003fd4:	4618      	mov	r0, r3
 8003fd6:	46bd      	mov	sp, r7
 8003fd8:	f85d 7b04 	ldr.w	r7, [sp], #4
 8003fdc:	4770      	bx	lr
 8003fde:	bf00      	nop
 8003fe0:	200006bc 	.word	0x200006bc

08003fe4 <HAL_Delay>:
  *       implementations in user file.
  * @param Delay  specifies the delay time length, in milliseconds.
  * @retval None
  */
__weak void HAL_Delay(uint32_t Delay)
{
 8003fe4:	b580      	push	{r7, lr}
 8003fe6:	b084      	sub	sp, #16
 8003fe8:	af00      	add	r7, sp, #0
 8003fea:	6078      	str	r0, [r7, #4]
  uint32_t tickstart = HAL_GetTick();
 8003fec:	f7ff ffee 	bl	8003fcc <HAL_GetTick>
 8003ff0:	60b8      	str	r0, [r7, #8]
  uint32_t wait = Delay;
 8003ff2:	687b      	ldr	r3, [r7, #4]
 8003ff4:	60fb      	str	r3, [r7, #12]

  /* Add a period to guaranty minimum wait */
  if (wait < HAL_MAX_DELAY)
 8003ff6:	68fb      	ldr	r3, [r7, #12]
 8003ff8:	f1b3 3fff 	cmp.w	r3, #4294967295
 8003ffc:	d005      	beq.n	800400a <HAL_Delay+0x26>
  {
    wait += (uint32_t)uwTickFreq;
 8003ffe:	4b0a      	ldr	r3, [pc, #40]	@ (8004028 <HAL_Delay+0x44>)
 8004000:	781b      	ldrb	r3, [r3, #0]
 8004002:	461a      	mov	r2, r3
 8004004:	68fb      	ldr	r3, [r7, #12]
 8004006:	4413      	add	r3, r2
 8004008:	60fb      	str	r3, [r7, #12]
  }

  while ((HAL_GetTick() - tickstart) < wait)
 800400a:	bf00      	nop
 800400c:	f7ff ffde 	bl	8003fcc <HAL_GetTick>
 8004010:	4602      	mov	r2, r0
 8004012:	68bb      	ldr	r3, [r7, #8]
 8004014:	1ad3      	subs	r3, r2, r3
 8004016:	68fa      	ldr	r2, [r7, #12]
 8004018:	429a      	cmp	r2, r3
 800401a:	d8f7      	bhi.n	800400c <HAL_Delay+0x28>
  {
  }
}
 800401c:	bf00      	nop
 800401e:	bf00      	nop
 8004020:	3710      	adds	r7, #16
 8004022:	46bd      	mov	sp, r7
 8004024:	bd80      	pop	{r7, pc}
 8004026:	bf00      	nop
 8004028:	20000008 	.word	0x20000008

0800402c <HAL_GetUIDw0>:
/**
  * @brief  Return the first word of the unique device identifier (UID based on 96 bits)
  * @retval Device identifier
  */
uint32_t HAL_GetUIDw0(void)
{
 800402c:	b480      	push	{r7}
 800402e:	af00      	add	r7, sp, #0
  return(READ_REG(*((uint32_t *)UID_BASE)));
 8004030:	4b03      	ldr	r3, [pc, #12]	@ (8004040 <HAL_GetUIDw0+0x14>)
 8004032:	681b      	ldr	r3, [r3, #0]
}
 8004034:	4618      	mov	r0, r3
 8004036:	46bd      	mov	sp, r7
 8004038:	f85d 7b04 	ldr.w	r7, [sp], #4
 800403c:	4770      	bx	lr
 800403e:	bf00      	nop
 8004040:	1fff7590 	.word	0x1fff7590

08004044 <HAL_GetUIDw1>:
/**
  * @brief  Return the second word of the unique device identifier (UID based on 96 bits)
  * @retval Device identifier
  */
uint32_t HAL_GetUIDw1(void)
{
 8004044:	b480      	push	{r7}
 8004046:	af00      	add	r7, sp, #0
  return(READ_REG(*((uint32_t *)(UID_BASE + 4U))));
 8004048:	4b03      	ldr	r3, [pc, #12]	@ (8004058 <HAL_GetUIDw1+0x14>)
 800404a:	681b      	ldr	r3, [r3, #0]
}
 800404c:	4618      	mov	r0, r3
 800404e:	46bd      	mov	sp, r7
 8004050:	f85d 7b04 	ldr.w	r7, [sp], #4
 8004054:	4770      	bx	lr
 8004056:	bf00      	nop
 8004058:	1fff7594 	.word	0x1fff7594

0800405c <HAL_GetUIDw2>:
/**
  * @brief  Return the third word of the unique device identifier (UID based on 96 bits)
  * @retval Device identifier
  */
uint32_t HAL_GetUIDw2(void)
{
 800405c:	b480      	push	{r7}
 800405e:	af00      	add	r7, sp, #0
  return(READ_REG(*((uint32_t *)(UID_BASE + 8U))));
 8004060:	4b03      	ldr	r3, [pc, #12]	@ (8004070 <HAL_GetUIDw2+0x14>)
 8004062:	681b      	ldr	r3, [r3, #0]
}
 8004064:	4618      	mov	r0, r3
 8004066:	46bd      	mov	sp, r7
 8004068:	f85d 7b04 	ldr.w	r7, [sp], #4
 800406c:	4770      	bx	lr
 800406e:	bf00      	nop
 8004070:	1fff7598 	.word	0x1fff7598

08004074 <HAL_CAN_Init>:
  * @param  hcan pointer to a CAN_HandleTypeDef structure that contains
  *         the configuration information for the specified CAN.
  * @retval HAL status
  */
HAL_StatusTypeDef HAL_CAN_Init(CAN_HandleTypeDef *hcan)
{
 8004074:	b580      	push	{r7, lr}
 8004076:	b084      	sub	sp, #16
 8004078:	af00      	add	r7, sp, #0
 800407a:	6078      	str	r0, [r7, #4]
  uint32_t tickstart;

  /* Check CAN handle */
  if (hcan == NULL)
 800407c:	687b      	ldr	r3, [r7, #4]
 800407e:	2b00      	cmp	r3, #0
 8004080:	d101      	bne.n	8004086 <HAL_CAN_Init+0x12>
  {
    return HAL_ERROR;
 8004082:	2301      	movs	r3, #1
 8004084:	e0ed      	b.n	8004262 <HAL_CAN_Init+0x1ee>
    /* Init the low level hardware: CLOCK, NVIC */
    hcan->MspInitCallback(hcan);
  }

#else
  if (hcan->State == HAL_CAN_STATE_RESET)
 8004086:	687b      	ldr	r3, [r7, #4]
 8004088:	f893 3020 	ldrb.w	r3, [r3, #32]
 800408c:	b2db      	uxtb	r3, r3
 800408e:	2b00      	cmp	r3, #0
 8004090:	d102      	bne.n	8004098 <HAL_CAN_Init+0x24>
  {
    /* Init the low level hardware: CLOCK, NVIC */
    HAL_CAN_MspInit(hcan);
 8004092:	6878      	ldr	r0, [r7, #4]
 8004094:	f7fc fac0 	bl	8000618 <HAL_CAN_MspInit>
  }
#endif /* USE_HAL_CAN_REGISTER_CALLBACKS */

  /* Request initialisation */
  SET_BIT(hcan->Instance->MCR, CAN_MCR_INRQ);
 8004098:	687b      	ldr	r3, [r7, #4]
 800409a:	681b      	ldr	r3, [r3, #0]
 800409c:	681a      	ldr	r2, [r3, #0]
 800409e:	687b      	ldr	r3, [r7, #4]
 80040a0:	681b      	ldr	r3, [r3, #0]
 80040a2:	f042 0201 	orr.w	r2, r2, #1
 80040a6:	601a      	str	r2, [r3, #0]

  /* Get tick */
  tickstart = HAL_GetTick();
 80040a8:	f7ff ff90 	bl	8003fcc <HAL_GetTick>
 80040ac:	60f8      	str	r0, [r7, #12]

  /* Wait initialisation acknowledge */
  while ((hcan->Instance->MSR & CAN_MSR_INAK) == 0U)
 80040ae:	e012      	b.n	80040d6 <HAL_CAN_Init+0x62>
  {
    if ((HAL_GetTick() - tickstart) > CAN_TIMEOUT_VALUE)
 80040b0:	f7ff ff8c 	bl	8003fcc <HAL_GetTick>
 80040b4:	4602      	mov	r2, r0
 80040b6:	68fb      	ldr	r3, [r7, #12]
 80040b8:	1ad3      	subs	r3, r2, r3
 80040ba:	2b0a      	cmp	r3, #10
 80040bc:	d90b      	bls.n	80040d6 <HAL_CAN_Init+0x62>
    {
      /* Update error code */
      hcan->ErrorCode |= HAL_CAN_ERROR_TIMEOUT;
 80040be:	687b      	ldr	r3, [r7, #4]
 80040c0:	6a5b      	ldr	r3, [r3, #36]	@ 0x24
 80040c2:	f443 3200 	orr.w	r2, r3, #131072	@ 0x20000
 80040c6:	687b      	ldr	r3, [r7, #4]
 80040c8:	625a      	str	r2, [r3, #36]	@ 0x24

      /* Change CAN state */
      hcan->State = HAL_CAN_STATE_ERROR;
 80040ca:	687b      	ldr	r3, [r7, #4]
 80040cc:	2205      	movs	r2, #5
 80040ce:	f883 2020 	strb.w	r2, [r3, #32]

      return HAL_ERROR;
 80040d2:	2301      	movs	r3, #1
 80040d4:	e0c5      	b.n	8004262 <HAL_CAN_Init+0x1ee>
  while ((hcan->Instance->MSR & CAN_MSR_INAK) == 0U)
 80040d6:	687b      	ldr	r3, [r7, #4]
 80040d8:	681b      	ldr	r3, [r3, #0]
 80040da:	685b      	ldr	r3, [r3, #4]
 80040dc:	f003 0301 	and.w	r3, r3, #1
 80040e0:	2b00      	cmp	r3, #0
 80040e2:	d0e5      	beq.n	80040b0 <HAL_CAN_Init+0x3c>
    }
  }

  /* Exit from sleep mode */
  CLEAR_BIT(hcan->Instance->MCR, CAN_MCR_SLEEP);
 80040e4:	687b      	ldr	r3, [r7, #4]
 80040e6:	681b      	ldr	r3, [r3, #0]
 80040e8:	681a      	ldr	r2, [r3, #0]
 80040ea:	687b      	ldr	r3, [r7, #4]
 80040ec:	681b      	ldr	r3, [r3, #0]
 80040ee:	f022 0202 	bic.w	r2, r2, #2
 80040f2:	601a      	str	r2, [r3, #0]

  /* Get tick */
  tickstart = HAL_GetTick();
 80040f4:	f7ff ff6a 	bl	8003fcc <HAL_GetTick>
 80040f8:	60f8      	str	r0, [r7, #12]

  /* Check Sleep mode leave acknowledge */
  while ((hcan->Instance->MSR & CAN_MSR_SLAK) != 0U)
 80040fa:	e012      	b.n	8004122 <HAL_CAN_Init+0xae>
  {
    if ((HAL_GetTick() - tickstart) > CAN_TIMEOUT_VALUE)
 80040fc:	f7ff ff66 	bl	8003fcc <HAL_GetTick>
 8004100:	4602      	mov	r2, r0
 8004102:	68fb      	ldr	r3, [r7, #12]
 8004104:	1ad3      	subs	r3, r2, r3
 8004106:	2b0a      	cmp	r3, #10
 8004108:	d90b      	bls.n	8004122 <HAL_CAN_Init+0xae>
    {
      /* Update error code */
      hcan->ErrorCode |= HAL_CAN_ERROR_TIMEOUT;
 800410a:	687b      	ldr	r3, [r7, #4]
 800410c:	6a5b      	ldr	r3, [r3, #36]	@ 0x24
 800410e:	f443 3200 	orr.w	r2, r3, #131072	@ 0x20000
 8004112:	687b      	ldr	r3, [r7, #4]
 8004114:	625a      	str	r2, [r3, #36]	@ 0x24

      /* Change CAN state */
      hcan->State = HAL_CAN_STATE_ERROR;
 8004116:	687b      	ldr	r3, [r7, #4]
 8004118:	2205      	movs	r2, #5
 800411a:	f883 2020 	strb.w	r2, [r3, #32]

      return HAL_ERROR;
 800411e:	2301      	movs	r3, #1
 8004120:	e09f      	b.n	8004262 <HAL_CAN_Init+0x1ee>
  while ((hcan->Instance->MSR & CAN_MSR_SLAK) != 0U)
 8004122:	687b      	ldr	r3, [r7, #4]
 8004124:	681b      	ldr	r3, [r3, #0]
 8004126:	685b      	ldr	r3, [r3, #4]
 8004128:	f003 0302 	and.w	r3, r3, #2
 800412c:	2b00      	cmp	r3, #0
 800412e:	d1e5      	bne.n	80040fc <HAL_CAN_Init+0x88>
    }
  }

  /* Set the time triggered communication mode */
  if (hcan->Init.TimeTriggeredMode == ENABLE)
 8004130:	687b      	ldr	r3, [r7, #4]
 8004132:	7e1b      	ldrb	r3, [r3, #24]
 8004134:	2b01      	cmp	r3, #1
 8004136:	d108      	bne.n	800414a <HAL_CAN_Init+0xd6>
  {
    SET_BIT(hcan->Instance->MCR, CAN_MCR_TTCM);
 8004138:	687b      	ldr	r3, [r7, #4]
 800413a:	681b      	ldr	r3, [r3, #0]
 800413c:	681a      	ldr	r2, [r3, #0]
 800413e:	687b      	ldr	r3, [r7, #4]
 8004140:	681b      	ldr	r3, [r3, #0]
 8004142:	f042 0280 	orr.w	r2, r2, #128	@ 0x80
 8004146:	601a      	str	r2, [r3, #0]
 8004148:	e007      	b.n	800415a <HAL_CAN_Init+0xe6>
  }
  else
  {
    CLEAR_BIT(hcan->Instance->MCR, CAN_MCR_TTCM);
 800414a:	687b      	ldr	r3, [r7, #4]
 800414c:	681b      	ldr	r3, [r3, #0]
 800414e:	681a      	ldr	r2, [r3, #0]
 8004150:	687b      	ldr	r3, [r7, #4]
 8004152:	681b      	ldr	r3, [r3, #0]
 8004154:	f022 0280 	bic.w	r2, r2, #128	@ 0x80
 8004158:	601a      	str	r2, [r3, #0]
  }

  /* Set the automatic bus-off management */
  if (hcan->Init.AutoBusOff == ENABLE)
 800415a:	687b      	ldr	r3, [r7, #4]
 800415c:	7e5b      	ldrb	r3, [r3, #25]
 800415e:	2b01      	cmp	r3, #1
 8004160:	d108      	bne.n	8004174 <HAL_CAN_Init+0x100>
  {
    SET_BIT(hcan->Instance->MCR, CAN_MCR_ABOM);
 8004162:	687b      	ldr	r3, [r7, #4]
 8004164:	681b      	ldr	r3, [r3, #0]
 8004166:	681a      	ldr	r2, [r3, #0]
 8004168:	687b      	ldr	r3, [r7, #4]
 800416a:	681b      	ldr	r3, [r3, #0]
 800416c:	f042 0240 	orr.w	r2, r2, #64	@ 0x40
 8004170:	601a      	str	r2, [r3, #0]
 8004172:	e007      	b.n	8004184 <HAL_CAN_Init+0x110>
  }
  else
  {
    CLEAR_BIT(hcan->Instance->MCR, CAN_MCR_ABOM);
 8004174:	687b      	ldr	r3, [r7, #4]
 8004176:	681b      	ldr	r3, [r3, #0]
 8004178:	681a      	ldr	r2, [r3, #0]
 800417a:	687b      	ldr	r3, [r7, #4]
 800417c:	681b      	ldr	r3, [r3, #0]
 800417e:	f022 0240 	bic.w	r2, r2, #64	@ 0x40
 8004182:	601a      	str	r2, [r3, #0]
  }

  /* Set the automatic wake-up mode */
  if (hcan->Init.AutoWakeUp == ENABLE)
 8004184:	687b      	ldr	r3, [r7, #4]
 8004186:	7e9b      	ldrb	r3, [r3, #26]
 8004188:	2b01      	cmp	r3, #1
 800418a:	d108      	bne.n	800419e <HAL_CAN_Init+0x12a>
  {
    SET_BIT(hcan->Instance->MCR, CAN_MCR_AWUM);
 800418c:	687b      	ldr	r3, [r7, #4]
 800418e:	681b      	ldr	r3, [r3, #0]
 8004190:	681a      	ldr	r2, [r3, #0]
 8004192:	687b      	ldr	r3, [r7, #4]
 8004194:	681b      	ldr	r3, [r3, #0]
 8004196:	f042 0220 	orr.w	r2, r2, #32
 800419a:	601a      	str	r2, [r3, #0]
 800419c:	e007      	b.n	80041ae <HAL_CAN_Init+0x13a>
  }
  else
  {
    CLEAR_BIT(hcan->Instance->MCR, CAN_MCR_AWUM);
 800419e:	687b      	ldr	r3, [r7, #4]
 80041a0:	681b      	ldr	r3, [r3, #0]
 80041a2:	681a      	ldr	r2, [r3, #0]
 80041a4:	687b      	ldr	r3, [r7, #4]
 80041a6:	681b      	ldr	r3, [r3, #0]
 80041a8:	f022 0220 	bic.w	r2, r2, #32
 80041ac:	601a      	str	r2, [r3, #0]
  }

  /* Set the automatic retransmission */
  if (hcan->Init.AutoRetransmission == ENABLE)
 80041ae:	687b      	ldr	r3, [r7, #4]
 80041b0:	7edb      	ldrb	r3, [r3, #27]
 80041b2:	2b01      	cmp	r3, #1
 80041b4:	d108      	bne.n	80041c8 <HAL_CAN_Init+0x154>
  {
    CLEAR_BIT(hcan->Instance->MCR, CAN_MCR_NART);
 80041b6:	687b      	ldr	r3, [r7, #4]
 80041b8:	681b      	ldr	r3, [r3, #0]
 80041ba:	681a      	ldr	r2, [r3, #0]
 80041bc:	687b      	ldr	r3, [r7, #4]
 80041be:	681b      	ldr	r3, [r3, #0]
 80041c0:	f022 0210 	bic.w	r2, r2, #16
 80041c4:	601a      	str	r2, [r3, #0]
 80041c6:	e007      	b.n	80041d8 <HAL_CAN_Init+0x164>
  }
  else
  {
    SET_BIT(hcan->Instance->MCR, CAN_MCR_NART);
 80041c8:	687b      	ldr	r3, [r7, #4]
 80041ca:	681b      	ldr	r3, [r3, #0]
 80041cc:	681a      	ldr	r2, [r3, #0]
 80041ce:	687b      	ldr	r3, [r7, #4]
 80041d0:	681b      	ldr	r3, [r3, #0]
 80041d2:	f042 0210 	orr.w	r2, r2, #16
 80041d6:	601a      	str	r2, [r3, #0]
  }

  /* Set the receive FIFO locked mode */
  if (hcan->Init.ReceiveFifoLocked == ENABLE)
 80041d8:	687b      	ldr	r3, [r7, #4]
 80041da:	7f1b      	ldrb	r3, [r3, #28]
 80041dc:	2b01      	cmp	r3, #1
 80041de:	d108      	bne.n	80041f2 <HAL_CAN_Init+0x17e>
  {
    SET_BIT(hcan->Instance->MCR, CAN_MCR_RFLM);
 80041e0:	687b      	ldr	r3, [r7, #4]
 80041e2:	681b      	ldr	r3, [r3, #0]
 80041e4:	681a      	ldr	r2, [r3, #0]
 80041e6:	687b      	ldr	r3, [r7, #4]
 80041e8:	681b      	ldr	r3, [r3, #0]
 80041ea:	f042 0208 	orr.w	r2, r2, #8
 80041ee:	601a      	str	r2, [r3, #0]
 80041f0:	e007      	b.n	8004202 <HAL_CAN_Init+0x18e>
  }
  else
  {
    CLEAR_BIT(hcan->Instance->MCR, CAN_MCR_RFLM);
 80041f2:	687b      	ldr	r3, [r7, #4]
 80041f4:	681b      	ldr	r3, [r3, #0]
 80041f6:	681a      	ldr	r2, [r3, #0]
 80041f8:	687b      	ldr	r3, [r7, #4]
 80041fa:	681b      	ldr	r3, [r3, #0]
 80041fc:	f022 0208 	bic.w	r2, r2, #8
 8004200:	601a      	str	r2, [r3, #0]
  }

  /* Set the transmit FIFO priority */
  if (hcan->Init.TransmitFifoPriority == ENABLE)
 8004202:	687b      	ldr	r3, [r7, #4]
 8004204:	7f5b      	ldrb	r3, [r3, #29]
 8004206:	2b01      	cmp	r3, #1
 8004208:	d108      	bne.n	800421c <HAL_CAN_Init+0x1a8>
  {
    SET_BIT(hcan->Instance->MCR, CAN_MCR_TXFP);
 800420a:	687b      	ldr	r3, [r7, #4]
 800420c:	681b      	ldr	r3, [r3, #0]
 800420e:	681a      	ldr	r2, [r3, #0]
 8004210:	687b      	ldr	r3, [r7, #4]
 8004212:	681b      	ldr	r3, [r3, #0]
 8004214:	f042 0204 	orr.w	r2, r2, #4
 8004218:	601a      	str	r2, [r3, #0]
 800421a:	e007      	b.n	800422c <HAL_CAN_Init+0x1b8>
  }
  else
  {
    CLEAR_BIT(hcan->Instance->MCR, CAN_MCR_TXFP);
 800421c:	687b      	ldr	r3, [r7, #4]
 800421e:	681b      	ldr	r3, [r3, #0]
 8004220:	681a      	ldr	r2, [r3, #0]
 8004222:	687b      	ldr	r3, [r7, #4]
 8004224:	681b      	ldr	r3, [r3, #0]
 8004226:	f022 0204 	bic.w	r2, r2, #4
 800422a:	601a      	str	r2, [r3, #0]
  }

  /* Set the bit timing register */
  WRITE_REG(hcan->Instance->BTR, (uint32_t)(hcan->Init.Mode           |
 800422c:	687b      	ldr	r3, [r7, #4]
 800422e:	689a      	ldr	r2, [r3, #8]
 8004230:	687b      	ldr	r3, [r7, #4]
 8004232:	68db      	ldr	r3, [r3, #12]
 8004234:	431a      	orrs	r2, r3
 8004236:	687b      	ldr	r3, [r7, #4]
 8004238:	691b      	ldr	r3, [r3, #16]
 800423a:	431a      	orrs	r2, r3
 800423c:	687b      	ldr	r3, [r7, #4]
 800423e:	695b      	ldr	r3, [r3, #20]
 8004240:	ea42 0103 	orr.w	r1, r2, r3
 8004244:	687b      	ldr	r3, [r7, #4]
 8004246:	685b      	ldr	r3, [r3, #4]
 8004248:	1e5a      	subs	r2, r3, #1
 800424a:	687b      	ldr	r3, [r7, #4]
 800424c:	681b      	ldr	r3, [r3, #0]
 800424e:	430a      	orrs	r2, r1
 8004250:	61da      	str	r2, [r3, #28]
                                            hcan->Init.TimeSeg1       |
                                            hcan->Init.TimeSeg2       |
                                            (hcan->Init.Prescaler - 1U)));

  /* Initialize the error code */
  hcan->ErrorCode = HAL_CAN_ERROR_NONE;
 8004252:	687b      	ldr	r3, [r7, #4]
 8004254:	2200      	movs	r2, #0
 8004256:	625a      	str	r2, [r3, #36]	@ 0x24

  /* Initialize the CAN state */
  hcan->State = HAL_CAN_STATE_READY;
 8004258:	687b      	ldr	r3, [r7, #4]
 800425a:	2201      	movs	r2, #1
 800425c:	f883 2020 	strb.w	r2, [r3, #32]

  /* Return function status */
  return HAL_OK;
 8004260:	2300      	movs	r3, #0
}
 8004262:	4618      	mov	r0, r3
 8004264:	3710      	adds	r7, #16
 8004266:	46bd      	mov	sp, r7
 8004268:	bd80      	pop	{r7, pc}

0800426a <HAL_CAN_ConfigFilter>:
  * @param  sFilterConfig pointer to a CAN_FilterTypeDef structure that
  *         contains the filter configuration information.
  * @retval None
  */
HAL_StatusTypeDef HAL_CAN_ConfigFilter(CAN_HandleTypeDef *hcan, const CAN_FilterTypeDef *sFilterConfig)
{
 800426a:	b480      	push	{r7}
 800426c:	b087      	sub	sp, #28
 800426e:	af00      	add	r7, sp, #0
 8004270:	6078      	str	r0, [r7, #4]
 8004272:	6039      	str	r1, [r7, #0]
  uint32_t filternbrbitpos;
  CAN_TypeDef *can_ip = hcan->Instance;
 8004274:	687b      	ldr	r3, [r7, #4]
 8004276:	681b      	ldr	r3, [r3, #0]
 8004278:	617b      	str	r3, [r7, #20]
  HAL_CAN_StateTypeDef state = hcan->State;
 800427a:	687b      	ldr	r3, [r7, #4]
 800427c:	f893 3020 	ldrb.w	r3, [r3, #32]
 8004280:	74fb      	strb	r3, [r7, #19]

  if ((state == HAL_CAN_STATE_READY) ||
 8004282:	7cfb      	ldrb	r3, [r7, #19]
 8004284:	2b01      	cmp	r3, #1
 8004286:	d003      	beq.n	8004290 <HAL_CAN_ConfigFilter+0x26>
 8004288:	7cfb      	ldrb	r3, [r7, #19]
 800428a:	2b02      	cmp	r3, #2
 800428c:	f040 80aa 	bne.w	80043e4 <HAL_CAN_ConfigFilter+0x17a>
    /* Check the parameters */
    assert_param(IS_CAN_FILTER_BANK_SINGLE(sFilterConfig->FilterBank));
#endif /* CAN3 */

    /* Initialisation mode for the filter */
    SET_BIT(can_ip->FMR, CAN_FMR_FINIT);
 8004290:	697b      	ldr	r3, [r7, #20]
 8004292:	f8d3 3200 	ldr.w	r3, [r3, #512]	@ 0x200
 8004296:	f043 0201 	orr.w	r2, r3, #1
 800429a:	697b      	ldr	r3, [r7, #20]
 800429c:	f8c3 2200 	str.w	r2, [r3, #512]	@ 0x200
    CLEAR_BIT(can_ip->FMR, CAN_FMR_CAN2SB);
    SET_BIT(can_ip->FMR, sFilterConfig->SlaveStartFilterBank << CAN_FMR_CAN2SB_Pos);

#endif /* CAN3 */
    /* Convert filter number into bit position */
    filternbrbitpos = (uint32_t)1 << (sFilterConfig->FilterBank & 0x1FU);
 80042a0:	683b      	ldr	r3, [r7, #0]
 80042a2:	695b      	ldr	r3, [r3, #20]
 80042a4:	f003 031f 	and.w	r3, r3, #31
 80042a8:	2201      	movs	r2, #1
 80042aa:	fa02 f303 	lsl.w	r3, r2, r3
 80042ae:	60fb      	str	r3, [r7, #12]

    /* Filter Deactivation */
    CLEAR_BIT(can_ip->FA1R, filternbrbitpos);
 80042b0:	697b      	ldr	r3, [r7, #20]
 80042b2:	f8d3 221c 	ldr.w	r2, [r3, #540]	@ 0x21c
 80042b6:	68fb      	ldr	r3, [r7, #12]
 80042b8:	43db      	mvns	r3, r3
 80042ba:	401a      	ands	r2, r3
 80042bc:	697b      	ldr	r3, [r7, #20]
 80042be:	f8c3 221c 	str.w	r2, [r3, #540]	@ 0x21c

    /* Filter Scale */
    if (sFilterConfig->FilterScale == CAN_FILTERSCALE_16BIT)
 80042c2:	683b      	ldr	r3, [r7, #0]
 80042c4:	69db      	ldr	r3, [r3, #28]
 80042c6:	2b00      	cmp	r3, #0
 80042c8:	d123      	bne.n	8004312 <HAL_CAN_ConfigFilter+0xa8>
    {
      /* 16-bit scale for the filter */
      CLEAR_BIT(can_ip->FS1R, filternbrbitpos);
 80042ca:	697b      	ldr	r3, [r7, #20]
 80042cc:	f8d3 220c 	ldr.w	r2, [r3, #524]	@ 0x20c
 80042d0:	68fb      	ldr	r3, [r7, #12]
 80042d2:	43db      	mvns	r3, r3
 80042d4:	401a      	ands	r2, r3
 80042d6:	697b      	ldr	r3, [r7, #20]
 80042d8:	f8c3 220c 	str.w	r2, [r3, #524]	@ 0x20c

      /* First 16-bit identifier and First 16-bit mask */
      /* Or First 16-bit identifier and Second 16-bit identifier */
      can_ip->sFilterRegister[sFilterConfig->FilterBank].FR1 =
        ((0x0000FFFFU & (uint32_t)sFilterConfig->FilterMaskIdLow) << 16U) |
 80042dc:	683b      	ldr	r3, [r7, #0]
 80042de:	68db      	ldr	r3, [r3, #12]
 80042e0:	0419      	lsls	r1, r3, #16
        (0x0000FFFFU & (uint32_t)sFilterConfig->FilterIdLow);
 80042e2:	683b      	ldr	r3, [r7, #0]
 80042e4:	685b      	ldr	r3, [r3, #4]
 80042e6:	b29b      	uxth	r3, r3
      can_ip->sFilterRegister[sFilterConfig->FilterBank].FR1 =
 80042e8:	683a      	ldr	r2, [r7, #0]
 80042ea:	6952      	ldr	r2, [r2, #20]
        ((0x0000FFFFU & (uint32_t)sFilterConfig->FilterMaskIdLow) << 16U) |
 80042ec:	4319      	orrs	r1, r3
      can_ip->sFilterRegister[sFilterConfig->FilterBank].FR1 =
 80042ee:	697b      	ldr	r3, [r7, #20]
 80042f0:	3248      	adds	r2, #72	@ 0x48
 80042f2:	f843 1032 	str.w	r1, [r3, r2, lsl #3]

      /* Second 16-bit identifier and Second 16-bit mask */
      /* Or Third 16-bit identifier and Fourth 16-bit identifier */
      can_ip->sFilterRegister[sFilterConfig->FilterBank].FR2 =
        ((0x0000FFFFU & (uint32_t)sFilterConfig->FilterMaskIdHigh) << 16U) |
 80042f6:	683b      	ldr	r3, [r7, #0]
 80042f8:	689b      	ldr	r3, [r3, #8]
 80042fa:	0419      	lsls	r1, r3, #16
        (0x0000FFFFU & (uint32_t)sFilterConfig->FilterIdHigh);
 80042fc:	683b      	ldr	r3, [r7, #0]
 80042fe:	681b      	ldr	r3, [r3, #0]
 8004300:	b29a      	uxth	r2, r3
      can_ip->sFilterRegister[sFilterConfig->FilterBank].FR2 =
 8004302:	683b      	ldr	r3, [r7, #0]
 8004304:	695b      	ldr	r3, [r3, #20]
        ((0x0000FFFFU & (uint32_t)sFilterConfig->FilterMaskIdHigh) << 16U) |
 8004306:	430a      	orrs	r2, r1
      can_ip->sFilterRegister[sFilterConfig->FilterBank].FR2 =
 8004308:	6979      	ldr	r1, [r7, #20]
 800430a:	3348      	adds	r3, #72	@ 0x48
 800430c:	00db      	lsls	r3, r3, #3
 800430e:	440b      	add	r3, r1
 8004310:	605a      	str	r2, [r3, #4]
    }

    if (sFilterConfig->FilterScale == CAN_FILTERSCALE_32BIT)
 8004312:	683b      	ldr	r3, [r7, #0]
 8004314:	69db      	ldr	r3, [r3, #28]
 8004316:	2b01      	cmp	r3, #1
 8004318:	d122      	bne.n	8004360 <HAL_CAN_ConfigFilter+0xf6>
    {
      /* 32-bit scale for the filter */
      SET_BIT(can_ip->FS1R, filternbrbitpos);
 800431a:	697b      	ldr	r3, [r7, #20]
 800431c:	f8d3 220c 	ldr.w	r2, [r3, #524]	@ 0x20c
 8004320:	68fb      	ldr	r3, [r7, #12]
 8004322:	431a      	orrs	r2, r3
 8004324:	697b      	ldr	r3, [r7, #20]
 8004326:	f8c3 220c 	str.w	r2, [r3, #524]	@ 0x20c

      /* 32-bit identifier or First 32-bit identifier */
      can_ip->sFilterRegister[sFilterConfig->FilterBank].FR1 =
        ((0x0000FFFFU & (uint32_t)sFilterConfig->FilterIdHigh) << 16U) |
 800432a:	683b      	ldr	r3, [r7, #0]
 800432c:	681b      	ldr	r3, [r3, #0]
 800432e:	0419      	lsls	r1, r3, #16
        (0x0000FFFFU & (uint32_t)sFilterConfig->FilterIdLow);
 8004330:	683b      	ldr	r3, [r7, #0]
 8004332:	685b      	ldr	r3, [r3, #4]
 8004334:	b29b      	uxth	r3, r3
      can_ip->sFilterRegister[sFilterConfig->FilterBank].FR1 =
 8004336:	683a      	ldr	r2, [r7, #0]
 8004338:	6952      	ldr	r2, [r2, #20]
        ((0x0000FFFFU & (uint32_t)sFilterConfig->FilterIdHigh) << 16U) |
 800433a:	4319      	orrs	r1, r3
      can_ip->sFilterRegister[sFilterConfig->FilterBank].FR1 =
 800433c:	697b      	ldr	r3, [r7, #20]
 800433e:	3248      	adds	r2, #72	@ 0x48
 8004340:	f843 1032 	str.w	r1, [r3, r2, lsl #3]

      /* 32-bit mask or Second 32-bit identifier */
      can_ip->sFilterRegister[sFilterConfig->FilterBank].FR2 =
        ((0x0000FFFFU & (uint32_t)sFilterConfig->FilterMaskIdHigh) << 16U) |
 8004344:	683b      	ldr	r3, [r7, #0]
 8004346:	689b      	ldr	r3, [r3, #8]
 8004348:	0419      	lsls	r1, r3, #16
        (0x0000FFFFU & (uint32_t)sFilterConfig->FilterMaskIdLow);
 800434a:	683b      	ldr	r3, [r7, #0]
 800434c:	68db      	ldr	r3, [r3, #12]
 800434e:	b29a      	uxth	r2, r3
      can_ip->sFilterRegister[sFilterConfig->FilterBank].FR2 =
 8004350:	683b      	ldr	r3, [r7, #0]
 8004352:	695b      	ldr	r3, [r3, #20]
        ((0x0000FFFFU & (uint32_t)sFilterConfig->FilterMaskIdHigh) << 16U) |
 8004354:	430a      	orrs	r2, r1
      can_ip->sFilterRegister[sFilterConfig->FilterBank].FR2 =
 8004356:	6979      	ldr	r1, [r7, #20]
 8004358:	3348      	adds	r3, #72	@ 0x48
 800435a:	00db      	lsls	r3, r3, #3
 800435c:	440b      	add	r3, r1
 800435e:	605a      	str	r2, [r3, #4]
    }

    /* Filter Mode */
    if (sFilterConfig->FilterMode == CAN_FILTERMODE_IDMASK)
 8004360:	683b      	ldr	r3, [r7, #0]
 8004362:	699b      	ldr	r3, [r3, #24]
 8004364:	2b00      	cmp	r3, #0
 8004366:	d109      	bne.n	800437c <HAL_CAN_ConfigFilter+0x112>
    {
      /* Id/Mask mode for the filter*/
      CLEAR_BIT(can_ip->FM1R, filternbrbitpos);
 8004368:	697b      	ldr	r3, [r7, #20]
 800436a:	f8d3 2204 	ldr.w	r2, [r3, #516]	@ 0x204
 800436e:	68fb      	ldr	r3, [r7, #12]
 8004370:	43db      	mvns	r3, r3
 8004372:	401a      	ands	r2, r3
 8004374:	697b      	ldr	r3, [r7, #20]
 8004376:	f8c3 2204 	str.w	r2, [r3, #516]	@ 0x204
 800437a:	e007      	b.n	800438c <HAL_CAN_ConfigFilter+0x122>
    }
    else /* CAN_FilterInitStruct->CAN_FilterMode == CAN_FilterMode_IdList */
    {
      /* Identifier list mode for the filter*/
      SET_BIT(can_ip->FM1R, filternbrbitpos);
 800437c:	697b      	ldr	r3, [r7, #20]
 800437e:	f8d3 2204 	ldr.w	r2, [r3, #516]	@ 0x204
 8004382:	68fb      	ldr	r3, [r7, #12]
 8004384:	431a      	orrs	r2, r3
 8004386:	697b      	ldr	r3, [r7, #20]
 8004388:	f8c3 2204 	str.w	r2, [r3, #516]	@ 0x204
    }

    /* Filter FIFO assignment */
    if (sFilterConfig->FilterFIFOAssignment == CAN_FILTER_FIFO0)
 800438c:	683b      	ldr	r3, [r7, #0]
 800438e:	691b      	ldr	r3, [r3, #16]
 8004390:	2b00      	cmp	r3, #0
 8004392:	d109      	bne.n	80043a8 <HAL_CAN_ConfigFilter+0x13e>
    {
      /* FIFO 0 assignation for the filter */
      CLEAR_BIT(can_ip->FFA1R, filternbrbitpos);
 8004394:	697b      	ldr	r3, [r7, #20]
 8004396:	f8d3 2214 	ldr.w	r2, [r3, #532]	@ 0x214
 800439a:	68fb      	ldr	r3, [r7, #12]
 800439c:	43db      	mvns	r3, r3
 800439e:	401a      	ands	r2, r3
 80043a0:	697b      	ldr	r3, [r7, #20]
 80043a2:	f8c3 2214 	str.w	r2, [r3, #532]	@ 0x214
 80043a6:	e007      	b.n	80043b8 <HAL_CAN_ConfigFilter+0x14e>
    }
    else
    {
      /* FIFO 1 assignation for the filter */
      SET_BIT(can_ip->FFA1R, filternbrbitpos);
 80043a8:	697b      	ldr	r3, [r7, #20]
 80043aa:	f8d3 2214 	ldr.w	r2, [r3, #532]	@ 0x214
 80043ae:	68fb      	ldr	r3, [r7, #12]
 80043b0:	431a      	orrs	r2, r3
 80043b2:	697b      	ldr	r3, [r7, #20]
 80043b4:	f8c3 2214 	str.w	r2, [r3, #532]	@ 0x214
    }

    /* Filter activation */
    if (sFilterConfig->FilterActivation == CAN_FILTER_ENABLE)
 80043b8:	683b      	ldr	r3, [r7, #0]
 80043ba:	6a1b      	ldr	r3, [r3, #32]
 80043bc:	2b01      	cmp	r3, #1
 80043be:	d107      	bne.n	80043d0 <HAL_CAN_ConfigFilter+0x166>
    {
      SET_BIT(can_ip->FA1R, filternbrbitpos);
 80043c0:	697b      	ldr	r3, [r7, #20]
 80043c2:	f8d3 221c 	ldr.w	r2, [r3, #540]	@ 0x21c
 80043c6:	68fb      	ldr	r3, [r7, #12]
 80043c8:	431a      	orrs	r2, r3
 80043ca:	697b      	ldr	r3, [r7, #20]
 80043cc:	f8c3 221c 	str.w	r2, [r3, #540]	@ 0x21c
    }

    /* Leave the initialisation mode for the filter */
    CLEAR_BIT(can_ip->FMR, CAN_FMR_FINIT);
 80043d0:	697b      	ldr	r3, [r7, #20]
 80043d2:	f8d3 3200 	ldr.w	r3, [r3, #512]	@ 0x200
 80043d6:	f023 0201 	bic.w	r2, r3, #1
 80043da:	697b      	ldr	r3, [r7, #20]
 80043dc:	f8c3 2200 	str.w	r2, [r3, #512]	@ 0x200

    /* Return function status */
    return HAL_OK;
 80043e0:	2300      	movs	r3, #0
 80043e2:	e006      	b.n	80043f2 <HAL_CAN_ConfigFilter+0x188>
  }
  else
  {
    /* Update error code */
    hcan->ErrorCode |= HAL_CAN_ERROR_NOT_INITIALIZED;
 80043e4:	687b      	ldr	r3, [r7, #4]
 80043e6:	6a5b      	ldr	r3, [r3, #36]	@ 0x24
 80043e8:	f443 2280 	orr.w	r2, r3, #262144	@ 0x40000
 80043ec:	687b      	ldr	r3, [r7, #4]
 80043ee:	625a      	str	r2, [r3, #36]	@ 0x24

    return HAL_ERROR;
 80043f0:	2301      	movs	r3, #1
  }
}
 80043f2:	4618      	mov	r0, r3
 80043f4:	371c      	adds	r7, #28
 80043f6:	46bd      	mov	sp, r7
 80043f8:	f85d 7b04 	ldr.w	r7, [sp], #4
 80043fc:	4770      	bx	lr

080043fe <HAL_CAN_Start>:
  * @param  hcan pointer to an CAN_HandleTypeDef structure that contains
  *         the configuration information for the specified CAN.
  * @retval HAL status
  */
HAL_StatusTypeDef HAL_CAN_Start(CAN_HandleTypeDef *hcan)
{
 80043fe:	b580      	push	{r7, lr}
 8004400:	b084      	sub	sp, #16
 8004402:	af00      	add	r7, sp, #0
 8004404:	6078      	str	r0, [r7, #4]
  uint32_t tickstart;

  if (hcan->State == HAL_CAN_STATE_READY)
 8004406:	687b      	ldr	r3, [r7, #4]
 8004408:	f893 3020 	ldrb.w	r3, [r3, #32]
 800440c:	b2db      	uxtb	r3, r3
 800440e:	2b01      	cmp	r3, #1
 8004410:	d12e      	bne.n	8004470 <HAL_CAN_Start+0x72>
  {
    /* Change CAN peripheral state */
    hcan->State = HAL_CAN_STATE_LISTENING;
 8004412:	687b      	ldr	r3, [r7, #4]
 8004414:	2202      	movs	r2, #2
 8004416:	f883 2020 	strb.w	r2, [r3, #32]

    /* Request leave initialisation */
    CLEAR_BIT(hcan->Instance->MCR, CAN_MCR_INRQ);
 800441a:	687b      	ldr	r3, [r7, #4]
 800441c:	681b      	ldr	r3, [r3, #0]
 800441e:	681a      	ldr	r2, [r3, #0]
 8004420:	687b      	ldr	r3, [r7, #4]
 8004422:	681b      	ldr	r3, [r3, #0]
 8004424:	f022 0201 	bic.w	r2, r2, #1
 8004428:	601a      	str	r2, [r3, #0]

    /* Get tick */
    tickstart = HAL_GetTick();
 800442a:	f7ff fdcf 	bl	8003fcc <HAL_GetTick>
 800442e:	60f8      	str	r0, [r7, #12]

    /* Wait the acknowledge */
    while ((hcan->Instance->MSR & CAN_MSR_INAK) != 0U)
 8004430:	e012      	b.n	8004458 <HAL_CAN_Start+0x5a>
    {
      /* Check for the Timeout */
      if ((HAL_GetTick() - tickstart) > CAN_TIMEOUT_VALUE)
 8004432:	f7ff fdcb 	bl	8003fcc <HAL_GetTick>
 8004436:	4602      	mov	r2, r0
 8004438:	68fb      	ldr	r3, [r7, #12]
 800443a:	1ad3      	subs	r3, r2, r3
 800443c:	2b0a      	cmp	r3, #10
 800443e:	d90b      	bls.n	8004458 <HAL_CAN_Start+0x5a>
      {
        /* Update error code */
        hcan->ErrorCode |= HAL_CAN_ERROR_TIMEOUT;
 8004440:	687b      	ldr	r3, [r7, #4]
 8004442:	6a5b      	ldr	r3, [r3, #36]	@ 0x24
 8004444:	f443 3200 	orr.w	r2, r3, #131072	@ 0x20000
 8004448:	687b      	ldr	r3, [r7, #4]
 800444a:	625a      	str	r2, [r3, #36]	@ 0x24

        /* Change CAN state */
        hcan->State = HAL_CAN_STATE_ERROR;
 800444c:	687b      	ldr	r3, [r7, #4]
 800444e:	2205      	movs	r2, #5
 8004450:	f883 2020 	strb.w	r2, [r3, #32]

        return HAL_ERROR;
 8004454:	2301      	movs	r3, #1
 8004456:	e012      	b.n	800447e <HAL_CAN_Start+0x80>
    while ((hcan->Instance->MSR & CAN_MSR_INAK) != 0U)
 8004458:	687b      	ldr	r3, [r7, #4]
 800445a:	681b      	ldr	r3, [r3, #0]
 800445c:	685b      	ldr	r3, [r3, #4]
 800445e:	f003 0301 	and.w	r3, r3, #1
 8004462:	2b00      	cmp	r3, #0
 8004464:	d1e5      	bne.n	8004432 <HAL_CAN_Start+0x34>
      }
    }

    /* Reset the CAN ErrorCode */
    hcan->ErrorCode = HAL_CAN_ERROR_NONE;
 8004466:	687b      	ldr	r3, [r7, #4]
 8004468:	2200      	movs	r2, #0
 800446a:	625a      	str	r2, [r3, #36]	@ 0x24

    /* Return function status */
    return HAL_OK;
 800446c:	2300      	movs	r3, #0
 800446e:	e006      	b.n	800447e <HAL_CAN_Start+0x80>
  }
  else
  {
    /* Update error code */
    hcan->ErrorCode |= HAL_CAN_ERROR_NOT_READY;
 8004470:	687b      	ldr	r3, [r7, #4]
 8004472:	6a5b      	ldr	r3, [r3, #36]	@ 0x24
 8004474:	f443 2200 	orr.w	r2, r3, #524288	@ 0x80000
 8004478:	687b      	ldr	r3, [r7, #4]
 800447a:	625a      	str	r2, [r3, #36]	@ 0x24

    return HAL_ERROR;
 800447c:	2301      	movs	r3, #1
  }
}
 800447e:	4618      	mov	r0, r3
 8004480:	3710      	adds	r7, #16
 8004482:	46bd      	mov	sp, r7
 8004484:	bd80      	pop	{r7, pc}

08004486 <HAL_CAN_AddTxMessage>:
  *         This parameter can be a value of @arg CAN_Tx_Mailboxes.
  * @retval HAL status
  */
HAL_StatusTypeDef HAL_CAN_AddTxMessage(CAN_HandleTypeDef *hcan, const CAN_TxHeaderTypeDef *pHeader,
                                       const uint8_t aData[], uint32_t *pTxMailbox)
{
 8004486:	b480      	push	{r7}
 8004488:	b089      	sub	sp, #36	@ 0x24
 800448a:	af00      	add	r7, sp, #0
 800448c:	60f8      	str	r0, [r7, #12]
 800448e:	60b9      	str	r1, [r7, #8]
 8004490:	607a      	str	r2, [r7, #4]
 8004492:	603b      	str	r3, [r7, #0]
  uint32_t transmitmailbox;
  HAL_CAN_StateTypeDef state = hcan->State;
 8004494:	68fb      	ldr	r3, [r7, #12]
 8004496:	f893 3020 	ldrb.w	r3, [r3, #32]
 800449a:	77fb      	strb	r3, [r7, #31]
  uint32_t tsr = READ_REG(hcan->Instance->TSR);
 800449c:	68fb      	ldr	r3, [r7, #12]
 800449e:	681b      	ldr	r3, [r3, #0]
 80044a0:	689b      	ldr	r3, [r3, #8]
 80044a2:	61bb      	str	r3, [r7, #24]
  {
    assert_param(IS_CAN_EXTID(pHeader->ExtId));
  }
  assert_param(IS_FUNCTIONAL_STATE(pHeader->TransmitGlobalTime));

  if ((state == HAL_CAN_STATE_READY) ||
 80044a4:	7ffb      	ldrb	r3, [r7, #31]
 80044a6:	2b01      	cmp	r3, #1
 80044a8:	d003      	beq.n	80044b2 <HAL_CAN_AddTxMessage+0x2c>
 80044aa:	7ffb      	ldrb	r3, [r7, #31]
 80044ac:	2b02      	cmp	r3, #2
 80044ae:	f040 80ad 	bne.w	800460c <HAL_CAN_AddTxMessage+0x186>
      (state == HAL_CAN_STATE_LISTENING))
  {
    /* Check that all the Tx mailboxes are not full */
    if (((tsr & CAN_TSR_TME0) != 0U) ||
 80044b2:	69bb      	ldr	r3, [r7, #24]
 80044b4:	f003 6380 	and.w	r3, r3, #67108864	@ 0x4000000
 80044b8:	2b00      	cmp	r3, #0
 80044ba:	d10a      	bne.n	80044d2 <HAL_CAN_AddTxMessage+0x4c>
        ((tsr & CAN_TSR_TME1) != 0U) ||
 80044bc:	69bb      	ldr	r3, [r7, #24]
 80044be:	f003 6300 	and.w	r3, r3, #134217728	@ 0x8000000
    if (((tsr & CAN_TSR_TME0) != 0U) ||
 80044c2:	2b00      	cmp	r3, #0
 80044c4:	d105      	bne.n	80044d2 <HAL_CAN_AddTxMessage+0x4c>
        ((tsr & CAN_TSR_TME2) != 0U))
 80044c6:	69bb      	ldr	r3, [r7, #24]
 80044c8:	f003 5380 	and.w	r3, r3, #268435456	@ 0x10000000
        ((tsr & CAN_TSR_TME1) != 0U) ||
 80044cc:	2b00      	cmp	r3, #0
 80044ce:	f000 8095 	beq.w	80045fc <HAL_CAN_AddTxMessage+0x176>
    {
      /* Select an empty transmit mailbox */
      transmitmailbox = (tsr & CAN_TSR_CODE) >> CAN_TSR_CODE_Pos;
 80044d2:	69bb      	ldr	r3, [r7, #24]
 80044d4:	0e1b      	lsrs	r3, r3, #24
 80044d6:	f003 0303 	and.w	r3, r3, #3
 80044da:	617b      	str	r3, [r7, #20]

      /* Store the Tx mailbox */
      *pTxMailbox = (uint32_t)1 << transmitmailbox;
 80044dc:	2201      	movs	r2, #1
 80044de:	697b      	ldr	r3, [r7, #20]
 80044e0:	409a      	lsls	r2, r3
 80044e2:	683b      	ldr	r3, [r7, #0]
 80044e4:	601a      	str	r2, [r3, #0]

      /* Set up the Id */
      if (pHeader->IDE == CAN_ID_STD)
 80044e6:	68bb      	ldr	r3, [r7, #8]
 80044e8:	689b      	ldr	r3, [r3, #8]
 80044ea:	2b00      	cmp	r3, #0
 80044ec:	d10d      	bne.n	800450a <HAL_CAN_AddTxMessage+0x84>
      {
        hcan->Instance->sTxMailBox[transmitmailbox].TIR = ((pHeader->StdId << CAN_TI0R_STID_Pos) |
 80044ee:	68bb      	ldr	r3, [r7, #8]
 80044f0:	681b      	ldr	r3, [r3, #0]
 80044f2:	055a      	lsls	r2, r3, #21
                                                           pHeader->RTR);
 80044f4:	68bb      	ldr	r3, [r7, #8]
 80044f6:	68db      	ldr	r3, [r3, #12]
        hcan->Instance->sTxMailBox[transmitmailbox].TIR = ((pHeader->StdId << CAN_TI0R_STID_Pos) |
 80044f8:	68f9      	ldr	r1, [r7, #12]
 80044fa:	6809      	ldr	r1, [r1, #0]
 80044fc:	431a      	orrs	r2, r3
 80044fe:	697b      	ldr	r3, [r7, #20]
 8004500:	3318      	adds	r3, #24
 8004502:	011b      	lsls	r3, r3, #4
 8004504:	440b      	add	r3, r1
 8004506:	601a      	str	r2, [r3, #0]
 8004508:	e00f      	b.n	800452a <HAL_CAN_AddTxMessage+0xa4>
      }
      else
      {
        hcan->Instance->sTxMailBox[transmitmailbox].TIR = ((pHeader->ExtId << CAN_TI0R_EXID_Pos) |
 800450a:	68bb      	ldr	r3, [r7, #8]
 800450c:	685b      	ldr	r3, [r3, #4]
 800450e:	00da      	lsls	r2, r3, #3
                                                           pHeader->IDE |
 8004510:	68bb      	ldr	r3, [r7, #8]
 8004512:	689b      	ldr	r3, [r3, #8]
        hcan->Instance->sTxMailBox[transmitmailbox].TIR = ((pHeader->ExtId << CAN_TI0R_EXID_Pos) |
 8004514:	431a      	orrs	r2, r3
                                                           pHeader->RTR);
 8004516:	68bb      	ldr	r3, [r7, #8]
 8004518:	68db      	ldr	r3, [r3, #12]
        hcan->Instance->sTxMailBox[transmitmailbox].TIR = ((pHeader->ExtId << CAN_TI0R_EXID_Pos) |
 800451a:	68f9      	ldr	r1, [r7, #12]
 800451c:	6809      	ldr	r1, [r1, #0]
                                                           pHeader->IDE |
 800451e:	431a      	orrs	r2, r3
        hcan->Instance->sTxMailBox[transmitmailbox].TIR = ((pHeader->ExtId << CAN_TI0R_EXID_Pos) |
 8004520:	697b      	ldr	r3, [r7, #20]
 8004522:	3318      	adds	r3, #24
 8004524:	011b      	lsls	r3, r3, #4
 8004526:	440b      	add	r3, r1
 8004528:	601a      	str	r2, [r3, #0]
      }

      /* Set up the DLC */
      hcan->Instance->sTxMailBox[transmitmailbox].TDTR = (pHeader->DLC);
 800452a:	68fb      	ldr	r3, [r7, #12]
 800452c:	6819      	ldr	r1, [r3, #0]
 800452e:	68bb      	ldr	r3, [r7, #8]
 8004530:	691a      	ldr	r2, [r3, #16]
 8004532:	697b      	ldr	r3, [r7, #20]
 8004534:	3318      	adds	r3, #24
 8004536:	011b      	lsls	r3, r3, #4
 8004538:	440b      	add	r3, r1
 800453a:	3304      	adds	r3, #4
 800453c:	601a      	str	r2, [r3, #0]

      /* Set up the Transmit Global Time mode */
      if (pHeader->TransmitGlobalTime == ENABLE)
 800453e:	68bb      	ldr	r3, [r7, #8]
 8004540:	7d1b      	ldrb	r3, [r3, #20]
 8004542:	2b01      	cmp	r3, #1
 8004544:	d111      	bne.n	800456a <HAL_CAN_AddTxMessage+0xe4>
      {
        SET_BIT(hcan->Instance->sTxMailBox[transmitmailbox].TDTR, CAN_TDT0R_TGT);
 8004546:	68fb      	ldr	r3, [r7, #12]
 8004548:	681a      	ldr	r2, [r3, #0]
 800454a:	697b      	ldr	r3, [r7, #20]
 800454c:	3318      	adds	r3, #24
 800454e:	011b      	lsls	r3, r3, #4
 8004550:	4413      	add	r3, r2
 8004552:	3304      	adds	r3, #4
 8004554:	681b      	ldr	r3, [r3, #0]
 8004556:	68fa      	ldr	r2, [r7, #12]
 8004558:	6811      	ldr	r1, [r2, #0]
 800455a:	f443 7280 	orr.w	r2, r3, #256	@ 0x100
 800455e:	697b      	ldr	r3, [r7, #20]
 8004560:	3318      	adds	r3, #24
 8004562:	011b      	lsls	r3, r3, #4
 8004564:	440b      	add	r3, r1
 8004566:	3304      	adds	r3, #4
 8004568:	601a      	str	r2, [r3, #0]
      }

      /* Set up the data field */
      WRITE_REG(hcan->Instance->sTxMailBox[transmitmailbox].TDHR,
 800456a:	687b      	ldr	r3, [r7, #4]
 800456c:	3307      	adds	r3, #7
 800456e:	781b      	ldrb	r3, [r3, #0]
 8004570:	061a      	lsls	r2, r3, #24
 8004572:	687b      	ldr	r3, [r7, #4]
 8004574:	3306      	adds	r3, #6
 8004576:	781b      	ldrb	r3, [r3, #0]
 8004578:	041b      	lsls	r3, r3, #16
 800457a:	431a      	orrs	r2, r3
 800457c:	687b      	ldr	r3, [r7, #4]
 800457e:	3305      	adds	r3, #5
 8004580:	781b      	ldrb	r3, [r3, #0]
 8004582:	021b      	lsls	r3, r3, #8
 8004584:	4313      	orrs	r3, r2
 8004586:	687a      	ldr	r2, [r7, #4]
 8004588:	3204      	adds	r2, #4
 800458a:	7812      	ldrb	r2, [r2, #0]
 800458c:	4610      	mov	r0, r2
 800458e:	68fa      	ldr	r2, [r7, #12]
 8004590:	6811      	ldr	r1, [r2, #0]
 8004592:	ea43 0200 	orr.w	r2, r3, r0
 8004596:	697b      	ldr	r3, [r7, #20]
 8004598:	011b      	lsls	r3, r3, #4
 800459a:	440b      	add	r3, r1
 800459c:	f503 73c6 	add.w	r3, r3, #396	@ 0x18c
 80045a0:	601a      	str	r2, [r3, #0]
                ((uint32_t)aData[7] << CAN_TDH0R_DATA7_Pos) |
                ((uint32_t)aData[6] << CAN_TDH0R_DATA6_Pos) |
                ((uint32_t)aData[5] << CAN_TDH0R_DATA5_Pos) |
                ((uint32_t)aData[4] << CAN_TDH0R_DATA4_Pos));
      WRITE_REG(hcan->Instance->sTxMailBox[transmitmailbox].TDLR,
 80045a2:	687b      	ldr	r3, [r7, #4]
 80045a4:	3303      	adds	r3, #3
 80045a6:	781b      	ldrb	r3, [r3, #0]
 80045a8:	061a      	lsls	r2, r3, #24
 80045aa:	687b      	ldr	r3, [r7, #4]
 80045ac:	3302      	adds	r3, #2
 80045ae:	781b      	ldrb	r3, [r3, #0]
 80045b0:	041b      	lsls	r3, r3, #16
 80045b2:	431a      	orrs	r2, r3
 80045b4:	687b      	ldr	r3, [r7, #4]
 80045b6:	3301      	adds	r3, #1
 80045b8:	781b      	ldrb	r3, [r3, #0]
 80045ba:	021b      	lsls	r3, r3, #8
 80045bc:	4313      	orrs	r3, r2
 80045be:	687a      	ldr	r2, [r7, #4]
 80045c0:	7812      	ldrb	r2, [r2, #0]
 80045c2:	4610      	mov	r0, r2
 80045c4:	68fa      	ldr	r2, [r7, #12]
 80045c6:	6811      	ldr	r1, [r2, #0]
 80045c8:	ea43 0200 	orr.w	r2, r3, r0
 80045cc:	697b      	ldr	r3, [r7, #20]
 80045ce:	011b      	lsls	r3, r3, #4
 80045d0:	440b      	add	r3, r1
 80045d2:	f503 73c4 	add.w	r3, r3, #392	@ 0x188
 80045d6:	601a      	str	r2, [r3, #0]
                ((uint32_t)aData[2] << CAN_TDL0R_DATA2_Pos) |
                ((uint32_t)aData[1] << CAN_TDL0R_DATA1_Pos) |
                ((uint32_t)aData[0] << CAN_TDL0R_DATA0_Pos));

      /* Request transmission */
      SET_BIT(hcan->Instance->sTxMailBox[transmitmailbox].TIR, CAN_TI0R_TXRQ);
 80045d8:	68fb      	ldr	r3, [r7, #12]
 80045da:	681a      	ldr	r2, [r3, #0]
 80045dc:	697b      	ldr	r3, [r7, #20]
 80045de:	3318      	adds	r3, #24
 80045e0:	011b      	lsls	r3, r3, #4
 80045e2:	4413      	add	r3, r2
 80045e4:	681b      	ldr	r3, [r3, #0]
 80045e6:	68fa      	ldr	r2, [r7, #12]
 80045e8:	6811      	ldr	r1, [r2, #0]
 80045ea:	f043 0201 	orr.w	r2, r3, #1
 80045ee:	697b      	ldr	r3, [r7, #20]
 80045f0:	3318      	adds	r3, #24
 80045f2:	011b      	lsls	r3, r3, #4
 80045f4:	440b      	add	r3, r1
 80045f6:	601a      	str	r2, [r3, #0]

      /* Return function status */
      return HAL_OK;
 80045f8:	2300      	movs	r3, #0
 80045fa:	e00e      	b.n	800461a <HAL_CAN_AddTxMessage+0x194>
    }
    else
    {
      /* Update error code */
      hcan->ErrorCode |= HAL_CAN_ERROR_PARAM;
 80045fc:	68fb      	ldr	r3, [r7, #12]
 80045fe:	6a5b      	ldr	r3, [r3, #36]	@ 0x24
 8004600:	f443 1200 	orr.w	r2, r3, #2097152	@ 0x200000
 8004604:	68fb      	ldr	r3, [r7, #12]
 8004606:	625a      	str	r2, [r3, #36]	@ 0x24

      return HAL_ERROR;
 8004608:	2301      	movs	r3, #1
 800460a:	e006      	b.n	800461a <HAL_CAN_AddTxMessage+0x194>
    }
  }
  else
  {
    /* Update error code */
    hcan->ErrorCode |= HAL_CAN_ERROR_NOT_INITIALIZED;
 800460c:	68fb      	ldr	r3, [r7, #12]
 800460e:	6a5b      	ldr	r3, [r3, #36]	@ 0x24
 8004610:	f443 2280 	orr.w	r2, r3, #262144	@ 0x40000
 8004614:	68fb      	ldr	r3, [r7, #12]
 8004616:	625a      	str	r2, [r3, #36]	@ 0x24

    return HAL_ERROR;
 8004618:	2301      	movs	r3, #1
  }
}
 800461a:	4618      	mov	r0, r3
 800461c:	3724      	adds	r7, #36	@ 0x24
 800461e:	46bd      	mov	sp, r7
 8004620:	f85d 7b04 	ldr.w	r7, [sp], #4
 8004624:	4770      	bx	lr

08004626 <HAL_CAN_GetTxMailboxesFreeLevel>:
  * @param  hcan pointer to a CAN_HandleTypeDef structure that contains
  *         the configuration information for the specified CAN.
  * @retval Number of free Tx Mailboxes.
  */
uint32_t HAL_CAN_GetTxMailboxesFreeLevel(const CAN_HandleTypeDef *hcan)
{
 8004626:	b480      	push	{r7}
 8004628:	b085      	sub	sp, #20
 800462a:	af00      	add	r7, sp, #0
 800462c:	6078      	str	r0, [r7, #4]
  uint32_t freelevel = 0U;
 800462e:	2300      	movs	r3, #0
 8004630:	60fb      	str	r3, [r7, #12]
  HAL_CAN_StateTypeDef state = hcan->State;
 8004632:	687b      	ldr	r3, [r7, #4]
 8004634:	f893 3020 	ldrb.w	r3, [r3, #32]
 8004638:	72fb      	strb	r3, [r7, #11]

  if ((state == HAL_CAN_STATE_READY) ||
 800463a:	7afb      	ldrb	r3, [r7, #11]
 800463c:	2b01      	cmp	r3, #1
 800463e:	d002      	beq.n	8004646 <HAL_CAN_GetTxMailboxesFreeLevel+0x20>
 8004640:	7afb      	ldrb	r3, [r7, #11]
 8004642:	2b02      	cmp	r3, #2
 8004644:	d11d      	bne.n	8004682 <HAL_CAN_GetTxMailboxesFreeLevel+0x5c>
      (state == HAL_CAN_STATE_LISTENING))
  {
    /* Check Tx Mailbox 0 status */
    if ((hcan->Instance->TSR & CAN_TSR_TME0) != 0U)
 8004646:	687b      	ldr	r3, [r7, #4]
 8004648:	681b      	ldr	r3, [r3, #0]
 800464a:	689b      	ldr	r3, [r3, #8]
 800464c:	f003 6380 	and.w	r3, r3, #67108864	@ 0x4000000
 8004650:	2b00      	cmp	r3, #0
 8004652:	d002      	beq.n	800465a <HAL_CAN_GetTxMailboxesFreeLevel+0x34>
    {
      freelevel++;
 8004654:	68fb      	ldr	r3, [r7, #12]
 8004656:	3301      	adds	r3, #1
 8004658:	60fb      	str	r3, [r7, #12]
    }

    /* Check Tx Mailbox 1 status */
    if ((hcan->Instance->TSR & CAN_TSR_TME1) != 0U)
 800465a:	687b      	ldr	r3, [r7, #4]
 800465c:	681b      	ldr	r3, [r3, #0]
 800465e:	689b      	ldr	r3, [r3, #8]
 8004660:	f003 6300 	and.w	r3, r3, #134217728	@ 0x8000000
 8004664:	2b00      	cmp	r3, #0
 8004666:	d002      	beq.n	800466e <HAL_CAN_GetTxMailboxesFreeLevel+0x48>
    {
      freelevel++;
 8004668:	68fb      	ldr	r3, [r7, #12]
 800466a:	3301      	adds	r3, #1
 800466c:	60fb      	str	r3, [r7, #12]
    }

    /* Check Tx Mailbox 2 status */
    if ((hcan->Instance->TSR & CAN_TSR_TME2) != 0U)
 800466e:	687b      	ldr	r3, [r7, #4]
 8004670:	681b      	ldr	r3, [r3, #0]
 8004672:	689b      	ldr	r3, [r3, #8]
 8004674:	f003 5380 	and.w	r3, r3, #268435456	@ 0x10000000
 8004678:	2b00      	cmp	r3, #0
 800467a:	d002      	beq.n	8004682 <HAL_CAN_GetTxMailboxesFreeLevel+0x5c>
    {
      freelevel++;
 800467c:	68fb      	ldr	r3, [r7, #12]
 800467e:	3301      	adds	r3, #1
 8004680:	60fb      	str	r3, [r7, #12]
    }
  }

  /* Return Tx Mailboxes free level */
  return freelevel;
 8004682:	68fb      	ldr	r3, [r7, #12]
}
 8004684:	4618      	mov	r0, r3
 8004686:	3714      	adds	r7, #20
 8004688:	46bd      	mov	sp, r7
 800468a:	f85d 7b04 	ldr.w	r7, [sp], #4
 800468e:	4770      	bx	lr

08004690 <HAL_CAN_GetRxMessage>:
  * @param  aData array where the payload of the Rx frame will be stored.
  * @retval HAL status
  */
HAL_StatusTypeDef HAL_CAN_GetRxMessage(CAN_HandleTypeDef *hcan, uint32_t RxFifo,
                                       CAN_RxHeaderTypeDef *pHeader, uint8_t aData[])
{
 8004690:	b480      	push	{r7}
 8004692:	b087      	sub	sp, #28
 8004694:	af00      	add	r7, sp, #0
 8004696:	60f8      	str	r0, [r7, #12]
 8004698:	60b9      	str	r1, [r7, #8]
 800469a:	607a      	str	r2, [r7, #4]
 800469c:	603b      	str	r3, [r7, #0]
  HAL_CAN_StateTypeDef state = hcan->State;
 800469e:	68fb      	ldr	r3, [r7, #12]
 80046a0:	f893 3020 	ldrb.w	r3, [r3, #32]
 80046a4:	75fb      	strb	r3, [r7, #23]

  assert_param(IS_CAN_RX_FIFO(RxFifo));

  if ((state == HAL_CAN_STATE_READY) ||
 80046a6:	7dfb      	ldrb	r3, [r7, #23]
 80046a8:	2b01      	cmp	r3, #1
 80046aa:	d003      	beq.n	80046b4 <HAL_CAN_GetRxMessage+0x24>
 80046ac:	7dfb      	ldrb	r3, [r7, #23]
 80046ae:	2b02      	cmp	r3, #2
 80046b0:	f040 8103 	bne.w	80048ba <HAL_CAN_GetRxMessage+0x22a>
      (state == HAL_CAN_STATE_LISTENING))
  {
    /* Check the Rx FIFO */
    if (RxFifo == CAN_RX_FIFO0) /* Rx element is assigned to Rx FIFO 0 */
 80046b4:	68bb      	ldr	r3, [r7, #8]
 80046b6:	2b00      	cmp	r3, #0
 80046b8:	d10e      	bne.n	80046d8 <HAL_CAN_GetRxMessage+0x48>
    {
      /* Check that the Rx FIFO 0 is not empty */
      if ((hcan->Instance->RF0R & CAN_RF0R_FMP0) == 0U)
 80046ba:	68fb      	ldr	r3, [r7, #12]
 80046bc:	681b      	ldr	r3, [r3, #0]
 80046be:	68db      	ldr	r3, [r3, #12]
 80046c0:	f003 0303 	and.w	r3, r3, #3
 80046c4:	2b00      	cmp	r3, #0
 80046c6:	d116      	bne.n	80046f6 <HAL_CAN_GetRxMessage+0x66>
      {
        /* Update error code */
        hcan->ErrorCode |= HAL_CAN_ERROR_PARAM;
 80046c8:	68fb      	ldr	r3, [r7, #12]
 80046ca:	6a5b      	ldr	r3, [r3, #36]	@ 0x24
 80046cc:	f443 1200 	orr.w	r2, r3, #2097152	@ 0x200000
 80046d0:	68fb      	ldr	r3, [r7, #12]
 80046d2:	625a      	str	r2, [r3, #36]	@ 0x24

        return HAL_ERROR;
 80046d4:	2301      	movs	r3, #1
 80046d6:	e0f7      	b.n	80048c8 <HAL_CAN_GetRxMessage+0x238>
      }
    }
    else /* Rx element is assigned to Rx FIFO 1 */
    {
      /* Check that the Rx FIFO 1 is not empty */
      if ((hcan->Instance->RF1R & CAN_RF1R_FMP1) == 0U)
 80046d8:	68fb      	ldr	r3, [r7, #12]
 80046da:	681b      	ldr	r3, [r3, #0]
 80046dc:	691b      	ldr	r3, [r3, #16]
 80046de:	f003 0303 	and.w	r3, r3, #3
 80046e2:	2b00      	cmp	r3, #0
 80046e4:	d107      	bne.n	80046f6 <HAL_CAN_GetRxMessage+0x66>
      {
        /* Update error code */
        hcan->ErrorCode |= HAL_CAN_ERROR_PARAM;
 80046e6:	68fb      	ldr	r3, [r7, #12]
 80046e8:	6a5b      	ldr	r3, [r3, #36]	@ 0x24
 80046ea:	f443 1200 	orr.w	r2, r3, #2097152	@ 0x200000
 80046ee:	68fb      	ldr	r3, [r7, #12]
 80046f0:	625a      	str	r2, [r3, #36]	@ 0x24

        return HAL_ERROR;
 80046f2:	2301      	movs	r3, #1
 80046f4:	e0e8      	b.n	80048c8 <HAL_CAN_GetRxMessage+0x238>
      }
    }

    /* Get the header */
    pHeader->IDE = CAN_RI0R_IDE & hcan->Instance->sFIFOMailBox[RxFifo].RIR;
 80046f6:	68fb      	ldr	r3, [r7, #12]
 80046f8:	681a      	ldr	r2, [r3, #0]
 80046fa:	68bb      	ldr	r3, [r7, #8]
 80046fc:	331b      	adds	r3, #27
 80046fe:	011b      	lsls	r3, r3, #4
 8004700:	4413      	add	r3, r2
 8004702:	681b      	ldr	r3, [r3, #0]
 8004704:	f003 0204 	and.w	r2, r3, #4
 8004708:	687b      	ldr	r3, [r7, #4]
 800470a:	609a      	str	r2, [r3, #8]
    if (pHeader->IDE == CAN_ID_STD)
 800470c:	687b      	ldr	r3, [r7, #4]
 800470e:	689b      	ldr	r3, [r3, #8]
 8004710:	2b00      	cmp	r3, #0
 8004712:	d10c      	bne.n	800472e <HAL_CAN_GetRxMessage+0x9e>
    {
      pHeader->StdId = (CAN_RI0R_STID & hcan->Instance->sFIFOMailBox[RxFifo].RIR) >> CAN_TI0R_STID_Pos;
 8004714:	68fb      	ldr	r3, [r7, #12]
 8004716:	681a      	ldr	r2, [r3, #0]
 8004718:	68bb      	ldr	r3, [r7, #8]
 800471a:	331b      	adds	r3, #27
 800471c:	011b      	lsls	r3, r3, #4
 800471e:	4413      	add	r3, r2
 8004720:	681b      	ldr	r3, [r3, #0]
 8004722:	0d5b      	lsrs	r3, r3, #21
 8004724:	f3c3 020a 	ubfx	r2, r3, #0, #11
 8004728:	687b      	ldr	r3, [r7, #4]
 800472a:	601a      	str	r2, [r3, #0]
 800472c:	e00b      	b.n	8004746 <HAL_CAN_GetRxMessage+0xb6>
    }
    else
    {
      pHeader->ExtId = ((CAN_RI0R_EXID | CAN_RI0R_STID) &
                        hcan->Instance->sFIFOMailBox[RxFifo].RIR) >> CAN_RI0R_EXID_Pos;
 800472e:	68fb      	ldr	r3, [r7, #12]
 8004730:	681a      	ldr	r2, [r3, #0]
 8004732:	68bb      	ldr	r3, [r7, #8]
 8004734:	331b      	adds	r3, #27
 8004736:	011b      	lsls	r3, r3, #4
 8004738:	4413      	add	r3, r2
 800473a:	681b      	ldr	r3, [r3, #0]
 800473c:	08db      	lsrs	r3, r3, #3
 800473e:	f023 4260 	bic.w	r2, r3, #3758096384	@ 0xe0000000
      pHeader->ExtId = ((CAN_RI0R_EXID | CAN_RI0R_STID) &
 8004742:	687b      	ldr	r3, [r7, #4]
 8004744:	605a      	str	r2, [r3, #4]
    }
    pHeader->RTR = (CAN_RI0R_RTR & hcan->Instance->sFIFOMailBox[RxFifo].RIR);
 8004746:	68fb      	ldr	r3, [r7, #12]
 8004748:	681a      	ldr	r2, [r3, #0]
 800474a:	68bb      	ldr	r3, [r7, #8]
 800474c:	331b      	adds	r3, #27
 800474e:	011b      	lsls	r3, r3, #4
 8004750:	4413      	add	r3, r2
 8004752:	681b      	ldr	r3, [r3, #0]
 8004754:	f003 0202 	and.w	r2, r3, #2
 8004758:	687b      	ldr	r3, [r7, #4]
 800475a:	60da      	str	r2, [r3, #12]
    if (((CAN_RDT0R_DLC & hcan->Instance->sFIFOMailBox[RxFifo].RDTR) >> CAN_RDT0R_DLC_Pos) >= 8U)
 800475c:	68fb      	ldr	r3, [r7, #12]
 800475e:	681a      	ldr	r2, [r3, #0]
 8004760:	68bb      	ldr	r3, [r7, #8]
 8004762:	331b      	adds	r3, #27
 8004764:	011b      	lsls	r3, r3, #4
 8004766:	4413      	add	r3, r2
 8004768:	3304      	adds	r3, #4
 800476a:	681b      	ldr	r3, [r3, #0]
 800476c:	f003 0308 	and.w	r3, r3, #8
 8004770:	2b00      	cmp	r3, #0
 8004772:	d003      	beq.n	800477c <HAL_CAN_GetRxMessage+0xec>
    {
      /* Truncate DLC to 8 if received field is over range */
      pHeader->DLC = 8U;
 8004774:	687b      	ldr	r3, [r7, #4]
 8004776:	2208      	movs	r2, #8
 8004778:	611a      	str	r2, [r3, #16]
 800477a:	e00b      	b.n	8004794 <HAL_CAN_GetRxMessage+0x104>
    }
    else
    {
      pHeader->DLC = (CAN_RDT0R_DLC & hcan->Instance->sFIFOMailBox[RxFifo].RDTR) >> CAN_RDT0R_DLC_Pos;
 800477c:	68fb      	ldr	r3, [r7, #12]
 800477e:	681a      	ldr	r2, [r3, #0]
 8004780:	68bb      	ldr	r3, [r7, #8]
 8004782:	331b      	adds	r3, #27
 8004784:	011b      	lsls	r3, r3, #4
 8004786:	4413      	add	r3, r2
 8004788:	3304      	adds	r3, #4
 800478a:	681b      	ldr	r3, [r3, #0]
 800478c:	f003 020f 	and.w	r2, r3, #15
 8004790:	687b      	ldr	r3, [r7, #4]
 8004792:	611a      	str	r2, [r3, #16]
    }
    pHeader->FilterMatchIndex = (CAN_RDT0R_FMI & hcan->Instance->sFIFOMailBox[RxFifo].RDTR) >> CAN_RDT0R_FMI_Pos;
 8004794:	68fb      	ldr	r3, [r7, #12]
 8004796:	681a      	ldr	r2, [r3, #0]
 8004798:	68bb      	ldr	r3, [r7, #8]
 800479a:	331b      	adds	r3, #27
 800479c:	011b      	lsls	r3, r3, #4
 800479e:	4413      	add	r3, r2
 80047a0:	3304      	adds	r3, #4
 80047a2:	681b      	ldr	r3, [r3, #0]
 80047a4:	0a1b      	lsrs	r3, r3, #8
 80047a6:	b2da      	uxtb	r2, r3
 80047a8:	687b      	ldr	r3, [r7, #4]
 80047aa:	619a      	str	r2, [r3, #24]
    pHeader->Timestamp = (CAN_RDT0R_TIME & hcan->Instance->sFIFOMailBox[RxFifo].RDTR) >> CAN_RDT0R_TIME_Pos;
 80047ac:	68fb      	ldr	r3, [r7, #12]
 80047ae:	681a      	ldr	r2, [r3, #0]
 80047b0:	68bb      	ldr	r3, [r7, #8]
 80047b2:	331b      	adds	r3, #27
 80047b4:	011b      	lsls	r3, r3, #4
 80047b6:	4413      	add	r3, r2
 80047b8:	3304      	adds	r3, #4
 80047ba:	681b      	ldr	r3, [r3, #0]
 80047bc:	0c1b      	lsrs	r3, r3, #16
 80047be:	b29a      	uxth	r2, r3
 80047c0:	687b      	ldr	r3, [r7, #4]
 80047c2:	615a      	str	r2, [r3, #20]

    /* Get the data */
    aData[0] = (uint8_t)((CAN_RDL0R_DATA0 & hcan->Instance->sFIFOMailBox[RxFifo].RDLR) >> CAN_RDL0R_DATA0_Pos);
 80047c4:	68fb      	ldr	r3, [r7, #12]
 80047c6:	681a      	ldr	r2, [r3, #0]
 80047c8:	68bb      	ldr	r3, [r7, #8]
 80047ca:	011b      	lsls	r3, r3, #4
 80047cc:	4413      	add	r3, r2
 80047ce:	f503 73dc 	add.w	r3, r3, #440	@ 0x1b8
 80047d2:	681b      	ldr	r3, [r3, #0]
 80047d4:	b2da      	uxtb	r2, r3
 80047d6:	683b      	ldr	r3, [r7, #0]
 80047d8:	701a      	strb	r2, [r3, #0]
    aData[1] = (uint8_t)((CAN_RDL0R_DATA1 & hcan->Instance->sFIFOMailBox[RxFifo].RDLR) >> CAN_RDL0R_DATA1_Pos);
 80047da:	68fb      	ldr	r3, [r7, #12]
 80047dc:	681a      	ldr	r2, [r3, #0]
 80047de:	68bb      	ldr	r3, [r7, #8]
 80047e0:	011b      	lsls	r3, r3, #4
 80047e2:	4413      	add	r3, r2
 80047e4:	f503 73dc 	add.w	r3, r3, #440	@ 0x1b8
 80047e8:	681b      	ldr	r3, [r3, #0]
 80047ea:	0a1a      	lsrs	r2, r3, #8
 80047ec:	683b      	ldr	r3, [r7, #0]
 80047ee:	3301      	adds	r3, #1
 80047f0:	b2d2      	uxtb	r2, r2
 80047f2:	701a      	strb	r2, [r3, #0]
    aData[2] = (uint8_t)((CAN_RDL0R_DATA2 & hcan->Instance->sFIFOMailBox[RxFifo].RDLR) >> CAN_RDL0R_DATA2_Pos);
 80047f4:	68fb      	ldr	r3, [r7, #12]
 80047f6:	681a      	ldr	r2, [r3, #0]
 80047f8:	68bb      	ldr	r3, [r7, #8]
 80047fa:	011b      	lsls	r3, r3, #4
 80047fc:	4413      	add	r3, r2
 80047fe:	f503 73dc 	add.w	r3, r3, #440	@ 0x1b8
 8004802:	681b      	ldr	r3, [r3, #0]
 8004804:	0c1a      	lsrs	r2, r3, #16
 8004806:	683b      	ldr	r3, [r7, #0]
 8004808:	3302      	adds	r3, #2
 800480a:	b2d2      	uxtb	r2, r2
 800480c:	701a      	strb	r2, [r3, #0]
    aData[3] = (uint8_t)((CAN_RDL0R_DATA3 & hcan->Instance->sFIFOMailBox[RxFifo].RDLR) >> CAN_RDL0R_DATA3_Pos);
 800480e:	68fb      	ldr	r3, [r7, #12]
 8004810:	681a      	ldr	r2, [r3, #0]
 8004812:	68bb      	ldr	r3, [r7, #8]
 8004814:	011b      	lsls	r3, r3, #4
 8004816:	4413      	add	r3, r2
 8004818:	f503 73dc 	add.w	r3, r3, #440	@ 0x1b8
 800481c:	681b      	ldr	r3, [r3, #0]
 800481e:	0e1a      	lsrs	r2, r3, #24
 8004820:	683b      	ldr	r3, [r7, #0]
 8004822:	3303      	adds	r3, #3
 8004824:	b2d2      	uxtb	r2, r2
 8004826:	701a      	strb	r2, [r3, #0]
    aData[4] = (uint8_t)((CAN_RDH0R_DATA4 & hcan->Instance->sFIFOMailBox[RxFifo].RDHR) >> CAN_RDH0R_DATA4_Pos);
 8004828:	68fb      	ldr	r3, [r7, #12]
 800482a:	681a      	ldr	r2, [r3, #0]
 800482c:	68bb      	ldr	r3, [r7, #8]
 800482e:	011b      	lsls	r3, r3, #4
 8004830:	4413      	add	r3, r2
 8004832:	f503 73de 	add.w	r3, r3, #444	@ 0x1bc
 8004836:	681a      	ldr	r2, [r3, #0]
 8004838:	683b      	ldr	r3, [r7, #0]
 800483a:	3304      	adds	r3, #4
 800483c:	b2d2      	uxtb	r2, r2
 800483e:	701a      	strb	r2, [r3, #0]
    aData[5] = (uint8_t)((CAN_RDH0R_DATA5 & hcan->Instance->sFIFOMailBox[RxFifo].RDHR) >> CAN_RDH0R_DATA5_Pos);
 8004840:	68fb      	ldr	r3, [r7, #12]
 8004842:	681a      	ldr	r2, [r3, #0]
 8004844:	68bb      	ldr	r3, [r7, #8]
 8004846:	011b      	lsls	r3, r3, #4
 8004848:	4413      	add	r3, r2
 800484a:	f503 73de 	add.w	r3, r3, #444	@ 0x1bc
 800484e:	681b      	ldr	r3, [r3, #0]
 8004850:	0a1a      	lsrs	r2, r3, #8
 8004852:	683b      	ldr	r3, [r7, #0]
 8004854:	3305      	adds	r3, #5
 8004856:	b2d2      	uxtb	r2, r2
 8004858:	701a      	strb	r2, [r3, #0]
    aData[6] = (uint8_t)((CAN_RDH0R_DATA6 & hcan->Instance->sFIFOMailBox[RxFifo].RDHR) >> CAN_RDH0R_DATA6_Pos);
 800485a:	68fb      	ldr	r3, [r7, #12]
 800485c:	681a      	ldr	r2, [r3, #0]
 800485e:	68bb      	ldr	r3, [r7, #8]
 8004860:	011b      	lsls	r3, r3, #4
 8004862:	4413      	add	r3, r2
 8004864:	f503 73de 	add.w	r3, r3, #444	@ 0x1bc
 8004868:	681b      	ldr	r3, [r3, #0]
 800486a:	0c1a      	lsrs	r2, r3, #16
 800486c:	683b      	ldr	r3, [r7, #0]
 800486e:	3306      	adds	r3, #6
 8004870:	b2d2      	uxtb	r2, r2
 8004872:	701a      	strb	r2, [r3, #0]
    aData[7] = (uint8_t)((CAN_RDH0R_DATA7 & hcan->Instance->sFIFOMailBox[RxFifo].RDHR) >> CAN_RDH0R_DATA7_Pos);
 8004874:	68fb      	ldr	r3, [r7, #12]
 8004876:	681a      	ldr	r2, [r3, #0]
 8004878:	68bb      	ldr	r3, [r7, #8]
 800487a:	011b      	lsls	r3, r3, #4
 800487c:	4413      	add	r3, r2
 800487e:	f503 73de 	add.w	r3, r3, #444	@ 0x1bc
 8004882:	681b      	ldr	r3, [r3, #0]
 8004884:	0e1a      	lsrs	r2, r3, #24
 8004886:	683b      	ldr	r3, [r7, #0]
 8004888:	3307      	adds	r3, #7
 800488a:	b2d2      	uxtb	r2, r2
 800488c:	701a      	strb	r2, [r3, #0]

    /* Release the FIFO */
    if (RxFifo == CAN_RX_FIFO0) /* Rx element is assigned to Rx FIFO 0 */
 800488e:	68bb      	ldr	r3, [r7, #8]
 8004890:	2b00      	cmp	r3, #0
 8004892:	d108      	bne.n	80048a6 <HAL_CAN_GetRxMessage+0x216>
    {
      /* Release RX FIFO 0 */
      SET_BIT(hcan->Instance->RF0R, CAN_RF0R_RFOM0);
 8004894:	68fb      	ldr	r3, [r7, #12]
 8004896:	681b      	ldr	r3, [r3, #0]
 8004898:	68da      	ldr	r2, [r3, #12]
 800489a:	68fb      	ldr	r3, [r7, #12]
 800489c:	681b      	ldr	r3, [r3, #0]
 800489e:	f042 0220 	orr.w	r2, r2, #32
 80048a2:	60da      	str	r2, [r3, #12]
 80048a4:	e007      	b.n	80048b6 <HAL_CAN_GetRxMessage+0x226>
    }
    else /* Rx element is assigned to Rx FIFO 1 */
    {
      /* Release RX FIFO 1 */
      SET_BIT(hcan->Instance->RF1R, CAN_RF1R_RFOM1);
 80048a6:	68fb      	ldr	r3, [r7, #12]
 80048a8:	681b      	ldr	r3, [r3, #0]
 80048aa:	691a      	ldr	r2, [r3, #16]
 80048ac:	68fb      	ldr	r3, [r7, #12]
 80048ae:	681b      	ldr	r3, [r3, #0]
 80048b0:	f042 0220 	orr.w	r2, r2, #32
 80048b4:	611a      	str	r2, [r3, #16]
    }

    /* Return function status */
    return HAL_OK;
 80048b6:	2300      	movs	r3, #0
 80048b8:	e006      	b.n	80048c8 <HAL_CAN_GetRxMessage+0x238>
  }
  else
  {
    /* Update error code */
    hcan->ErrorCode |= HAL_CAN_ERROR_NOT_INITIALIZED;
 80048ba:	68fb      	ldr	r3, [r7, #12]
 80048bc:	6a5b      	ldr	r3, [r3, #36]	@ 0x24
 80048be:	f443 2280 	orr.w	r2, r3, #262144	@ 0x40000
 80048c2:	68fb      	ldr	r3, [r7, #12]
 80048c4:	625a      	str	r2, [r3, #36]	@ 0x24

    return HAL_ERROR;
 80048c6:	2301      	movs	r3, #1
  }
}
 80048c8:	4618      	mov	r0, r3
 80048ca:	371c      	adds	r7, #28
 80048cc:	46bd      	mov	sp, r7
 80048ce:	f85d 7b04 	ldr.w	r7, [sp], #4
 80048d2:	4770      	bx	lr

080048d4 <HAL_CAN_ActivateNotification>:
  * @param  ActiveITs indicates which interrupts will be enabled.
  *         This parameter can be any combination of @arg CAN_Interrupts.
  * @retval HAL status
  */
HAL_StatusTypeDef HAL_CAN_ActivateNotification(CAN_HandleTypeDef *hcan, uint32_t ActiveITs)
{
 80048d4:	b480      	push	{r7}
 80048d6:	b085      	sub	sp, #20
 80048d8:	af00      	add	r7, sp, #0
 80048da:	6078      	str	r0, [r7, #4]
 80048dc:	6039      	str	r1, [r7, #0]
  HAL_CAN_StateTypeDef state = hcan->State;
 80048de:	687b      	ldr	r3, [r7, #4]
 80048e0:	f893 3020 	ldrb.w	r3, [r3, #32]
 80048e4:	73fb      	strb	r3, [r7, #15]

  /* Check function parameters */
  assert_param(IS_CAN_IT(ActiveITs));

  if ((state == HAL_CAN_STATE_READY) ||
 80048e6:	7bfb      	ldrb	r3, [r7, #15]
 80048e8:	2b01      	cmp	r3, #1
 80048ea:	d002      	beq.n	80048f2 <HAL_CAN_ActivateNotification+0x1e>
 80048ec:	7bfb      	ldrb	r3, [r7, #15]
 80048ee:	2b02      	cmp	r3, #2
 80048f0:	d109      	bne.n	8004906 <HAL_CAN_ActivateNotification+0x32>
      (state == HAL_CAN_STATE_LISTENING))
  {
    /* Enable the selected interrupts */
    __HAL_CAN_ENABLE_IT(hcan, ActiveITs);
 80048f2:	687b      	ldr	r3, [r7, #4]
 80048f4:	681b      	ldr	r3, [r3, #0]
 80048f6:	6959      	ldr	r1, [r3, #20]
 80048f8:	687b      	ldr	r3, [r7, #4]
 80048fa:	681b      	ldr	r3, [r3, #0]
 80048fc:	683a      	ldr	r2, [r7, #0]
 80048fe:	430a      	orrs	r2, r1
 8004900:	615a      	str	r2, [r3, #20]

    /* Return function status */
    return HAL_OK;
 8004902:	2300      	movs	r3, #0
 8004904:	e006      	b.n	8004914 <HAL_CAN_ActivateNotification+0x40>
  }
  else
  {
    /* Update error code */
    hcan->ErrorCode |= HAL_CAN_ERROR_NOT_INITIALIZED;
 8004906:	687b      	ldr	r3, [r7, #4]
 8004908:	6a5b      	ldr	r3, [r3, #36]	@ 0x24
 800490a:	f443 2280 	orr.w	r2, r3, #262144	@ 0x40000
 800490e:	687b      	ldr	r3, [r7, #4]
 8004910:	625a      	str	r2, [r3, #36]	@ 0x24

    return HAL_ERROR;
 8004912:	2301      	movs	r3, #1
  }
}
 8004914:	4618      	mov	r0, r3
 8004916:	3714      	adds	r7, #20
 8004918:	46bd      	mov	sp, r7
 800491a:	f85d 7b04 	ldr.w	r7, [sp], #4
 800491e:	4770      	bx	lr

08004920 <HAL_CAN_IRQHandler>:
  * @param  hcan pointer to a CAN_HandleTypeDef structure that contains
  *         the configuration information for the specified CAN.
  * @retval None
  */
void HAL_CAN_IRQHandler(CAN_HandleTypeDef *hcan)
{
 8004920:	b580      	push	{r7, lr}
 8004922:	b08a      	sub	sp, #40	@ 0x28
 8004924:	af00      	add	r7, sp, #0
 8004926:	6078      	str	r0, [r7, #4]
  uint32_t errorcode = HAL_CAN_ERROR_NONE;
 8004928:	2300      	movs	r3, #0
 800492a:	627b      	str	r3, [r7, #36]	@ 0x24
  uint32_t interrupts = READ_REG(hcan->Instance->IER);
 800492c:	687b      	ldr	r3, [r7, #4]
 800492e:	681b      	ldr	r3, [r3, #0]
 8004930:	695b      	ldr	r3, [r3, #20]
 8004932:	623b      	str	r3, [r7, #32]
  uint32_t msrflags = READ_REG(hcan->Instance->MSR);
 8004934:	687b      	ldr	r3, [r7, #4]
 8004936:	681b      	ldr	r3, [r3, #0]
 8004938:	685b      	ldr	r3, [r3, #4]
 800493a:	61fb      	str	r3, [r7, #28]
  uint32_t tsrflags = READ_REG(hcan->Instance->TSR);
 800493c:	687b      	ldr	r3, [r7, #4]
 800493e:	681b      	ldr	r3, [r3, #0]
 8004940:	689b      	ldr	r3, [r3, #8]
 8004942:	61bb      	str	r3, [r7, #24]
  uint32_t rf0rflags = READ_REG(hcan->Instance->RF0R);
 8004944:	687b      	ldr	r3, [r7, #4]
 8004946:	681b      	ldr	r3, [r3, #0]
 8004948:	68db      	ldr	r3, [r3, #12]
 800494a:	617b      	str	r3, [r7, #20]
  uint32_t rf1rflags = READ_REG(hcan->Instance->RF1R);
 800494c:	687b      	ldr	r3, [r7, #4]
 800494e:	681b      	ldr	r3, [r3, #0]
 8004950:	691b      	ldr	r3, [r3, #16]
 8004952:	613b      	str	r3, [r7, #16]
  uint32_t esrflags = READ_REG(hcan->Instance->ESR);
 8004954:	687b      	ldr	r3, [r7, #4]
 8004956:	681b      	ldr	r3, [r3, #0]
 8004958:	699b      	ldr	r3, [r3, #24]
 800495a:	60fb      	str	r3, [r7, #12]

  /* Transmit Mailbox empty interrupt management *****************************/
  if ((interrupts & CAN_IT_TX_MAILBOX_EMPTY) != 0U)
 800495c:	6a3b      	ldr	r3, [r7, #32]
 800495e:	f003 0301 	and.w	r3, r3, #1
 8004962:	2b00      	cmp	r3, #0
 8004964:	d07c      	beq.n	8004a60 <HAL_CAN_IRQHandler+0x140>
  {
    /* Transmit Mailbox 0 management *****************************************/
    if ((tsrflags & CAN_TSR_RQCP0) != 0U)
 8004966:	69bb      	ldr	r3, [r7, #24]
 8004968:	f003 0301 	and.w	r3, r3, #1
 800496c:	2b00      	cmp	r3, #0
 800496e:	d023      	beq.n	80049b8 <HAL_CAN_IRQHandler+0x98>
    {
      /* Clear the Transmission Complete flag (and TXOK0,ALST0,TERR0 bits) */
      __HAL_CAN_CLEAR_FLAG(hcan, CAN_FLAG_RQCP0);
 8004970:	687b      	ldr	r3, [r7, #4]
 8004972:	681b      	ldr	r3, [r3, #0]
 8004974:	2201      	movs	r2, #1
 8004976:	609a      	str	r2, [r3, #8]

      if ((tsrflags & CAN_TSR_TXOK0) != 0U)
 8004978:	69bb      	ldr	r3, [r7, #24]
 800497a:	f003 0302 	and.w	r3, r3, #2
 800497e:	2b00      	cmp	r3, #0
 8004980:	d003      	beq.n	800498a <HAL_CAN_IRQHandler+0x6a>
#if USE_HAL_CAN_REGISTER_CALLBACKS == 1
        /* Call registered callback*/
        hcan->TxMailbox0CompleteCallback(hcan);
#else
        /* Call weak (surcharged) callback */
        HAL_CAN_TxMailbox0CompleteCallback(hcan);
 8004982:	6878      	ldr	r0, [r7, #4]
 8004984:	f000 f983 	bl	8004c8e <HAL_CAN_TxMailbox0CompleteCallback>
 8004988:	e016      	b.n	80049b8 <HAL_CAN_IRQHandler+0x98>
#endif /* USE_HAL_CAN_REGISTER_CALLBACKS */
      }
      else
      {
        if ((tsrflags & CAN_TSR_ALST0) != 0U)
 800498a:	69bb      	ldr	r3, [r7, #24]
 800498c:	f003 0304 	and.w	r3, r3, #4
 8004990:	2b00      	cmp	r3, #0
 8004992:	d004      	beq.n	800499e <HAL_CAN_IRQHandler+0x7e>
        {
          /* Update error code */
          errorcode |= HAL_CAN_ERROR_TX_ALST0;
 8004994:	6a7b      	ldr	r3, [r7, #36]	@ 0x24
 8004996:	f443 6300 	orr.w	r3, r3, #2048	@ 0x800
 800499a:	627b      	str	r3, [r7, #36]	@ 0x24
 800499c:	e00c      	b.n	80049b8 <HAL_CAN_IRQHandler+0x98>
        }
        else if ((tsrflags & CAN_TSR_TERR0) != 0U)
 800499e:	69bb      	ldr	r3, [r7, #24]
 80049a0:	f003 0308 	and.w	r3, r3, #8
 80049a4:	2b00      	cmp	r3, #0
 80049a6:	d004      	beq.n	80049b2 <HAL_CAN_IRQHandler+0x92>
        {
          /* Update error code */
          errorcode |= HAL_CAN_ERROR_TX_TERR0;
 80049a8:	6a7b      	ldr	r3, [r7, #36]	@ 0x24
 80049aa:	f443 5380 	orr.w	r3, r3, #4096	@ 0x1000
 80049ae:	627b      	str	r3, [r7, #36]	@ 0x24
 80049b0:	e002      	b.n	80049b8 <HAL_CAN_IRQHandler+0x98>
#if USE_HAL_CAN_REGISTER_CALLBACKS == 1
          /* Call registered callback*/
          hcan->TxMailbox0AbortCallback(hcan);
#else
          /* Call weak (surcharged) callback */
          HAL_CAN_TxMailbox0AbortCallback(hcan);
 80049b2:	6878      	ldr	r0, [r7, #4]
 80049b4:	f000 f989 	bl	8004cca <HAL_CAN_TxMailbox0AbortCallback>
        }
      }
    }

    /* Transmit Mailbox 1 management *****************************************/
    if ((tsrflags & CAN_TSR_RQCP1) != 0U)
 80049b8:	69bb      	ldr	r3, [r7, #24]
 80049ba:	f403 7380 	and.w	r3, r3, #256	@ 0x100
 80049be:	2b00      	cmp	r3, #0
 80049c0:	d024      	beq.n	8004a0c <HAL_CAN_IRQHandler+0xec>
    {
      /* Clear the Transmission Complete flag (and TXOK1,ALST1,TERR1 bits) */
      __HAL_CAN_CLEAR_FLAG(hcan, CAN_FLAG_RQCP1);
 80049c2:	687b      	ldr	r3, [r7, #4]
 80049c4:	681b      	ldr	r3, [r3, #0]
 80049c6:	f44f 7280 	mov.w	r2, #256	@ 0x100
 80049ca:	609a      	str	r2, [r3, #8]

      if ((tsrflags & CAN_TSR_TXOK1) != 0U)
 80049cc:	69bb      	ldr	r3, [r7, #24]
 80049ce:	f403 7300 	and.w	r3, r3, #512	@ 0x200
 80049d2:	2b00      	cmp	r3, #0
 80049d4:	d003      	beq.n	80049de <HAL_CAN_IRQHandler+0xbe>
#if USE_HAL_CAN_REGISTER_CALLBACKS == 1
        /* Call registered callback*/
        hcan->TxMailbox1CompleteCallback(hcan);
#else
        /* Call weak (surcharged) callback */
        HAL_CAN_TxMailbox1CompleteCallback(hcan);
 80049d6:	6878      	ldr	r0, [r7, #4]
 80049d8:	f000 f963 	bl	8004ca2 <HAL_CAN_TxMailbox1CompleteCallback>
 80049dc:	e016      	b.n	8004a0c <HAL_CAN_IRQHandler+0xec>
#endif /* USE_HAL_CAN_REGISTER_CALLBACKS */
      }
      else
      {
        if ((tsrflags & CAN_TSR_ALST1) != 0U)
 80049de:	69bb      	ldr	r3, [r7, #24]
 80049e0:	f403 6380 	and.w	r3, r3, #1024	@ 0x400
 80049e4:	2b00      	cmp	r3, #0
 80049e6:	d004      	beq.n	80049f2 <HAL_CAN_IRQHandler+0xd2>
        {
          /* Update error code */
          errorcode |= HAL_CAN_ERROR_TX_ALST1;
 80049e8:	6a7b      	ldr	r3, [r7, #36]	@ 0x24
 80049ea:	f443 5300 	orr.w	r3, r3, #8192	@ 0x2000
 80049ee:	627b      	str	r3, [r7, #36]	@ 0x24
 80049f0:	e00c      	b.n	8004a0c <HAL_CAN_IRQHandler+0xec>
        }
        else if ((tsrflags & CAN_TSR_TERR1) != 0U)
 80049f2:	69bb      	ldr	r3, [r7, #24]
 80049f4:	f403 6300 	and.w	r3, r3, #2048	@ 0x800
 80049f8:	2b00      	cmp	r3, #0
 80049fa:	d004      	beq.n	8004a06 <HAL_CAN_IRQHandler+0xe6>
        {
          /* Update error code */
          errorcode |= HAL_CAN_ERROR_TX_TERR1;
 80049fc:	6a7b      	ldr	r3, [r7, #36]	@ 0x24
 80049fe:	f443 4380 	orr.w	r3, r3, #16384	@ 0x4000
 8004a02:	627b      	str	r3, [r7, #36]	@ 0x24
 8004a04:	e002      	b.n	8004a0c <HAL_CAN_IRQHandler+0xec>
#if USE_HAL_CAN_REGISTER_CALLBACKS == 1
          /* Call registered callback*/
          hcan->TxMailbox1AbortCallback(hcan);
#else
          /* Call weak (surcharged) callback */
          HAL_CAN_TxMailbox1AbortCallback(hcan);
 8004a06:	6878      	ldr	r0, [r7, #4]
 8004a08:	f000 f969 	bl	8004cde <HAL_CAN_TxMailbox1AbortCallback>
        }
      }
    }

    /* Transmit Mailbox 2 management *****************************************/
    if ((tsrflags & CAN_TSR_RQCP2) != 0U)
 8004a0c:	69bb      	ldr	r3, [r7, #24]
 8004a0e:	f403 3380 	and.w	r3, r3, #65536	@ 0x10000
 8004a12:	2b00      	cmp	r3, #0
 8004a14:	d024      	beq.n	8004a60 <HAL_CAN_IRQHandler+0x140>
    {
      /* Clear the Transmission Complete flag (and TXOK2,ALST2,TERR2 bits) */
      __HAL_CAN_CLEAR_FLAG(hcan, CAN_FLAG_RQCP2);
 8004a16:	687b      	ldr	r3, [r7, #4]
 8004a18:	681b      	ldr	r3, [r3, #0]
 8004a1a:	f44f 3280 	mov.w	r2, #65536	@ 0x10000
 8004a1e:	609a      	str	r2, [r3, #8]

      if ((tsrflags & CAN_TSR_TXOK2) != 0U)
 8004a20:	69bb      	ldr	r3, [r7, #24]
 8004a22:	f403 3300 	and.w	r3, r3, #131072	@ 0x20000
 8004a26:	2b00      	cmp	r3, #0
 8004a28:	d003      	beq.n	8004a32 <HAL_CAN_IRQHandler+0x112>
#if USE_HAL_CAN_REGISTER_CALLBACKS == 1
        /* Call registered callback*/
        hcan->TxMailbox2CompleteCallback(hcan);
#else
        /* Call weak (surcharged) callback */
        HAL_CAN_TxMailbox2CompleteCallback(hcan);
 8004a2a:	6878      	ldr	r0, [r7, #4]
 8004a2c:	f000 f943 	bl	8004cb6 <HAL_CAN_TxMailbox2CompleteCallback>
 8004a30:	e016      	b.n	8004a60 <HAL_CAN_IRQHandler+0x140>
#endif /* USE_HAL_CAN_REGISTER_CALLBACKS */
      }
      else
      {
        if ((tsrflags & CAN_TSR_ALST2) != 0U)
 8004a32:	69bb      	ldr	r3, [r7, #24]
 8004a34:	f403 2380 	and.w	r3, r3, #262144	@ 0x40000
 8004a38:	2b00      	cmp	r3, #0
 8004a3a:	d004      	beq.n	8004a46 <HAL_CAN_IRQHandler+0x126>
        {
          /* Update error code */
          errorcode |= HAL_CAN_ERROR_TX_ALST2;
 8004a3c:	6a7b      	ldr	r3, [r7, #36]	@ 0x24
 8004a3e:	f443 4300 	orr.w	r3, r3, #32768	@ 0x8000
 8004a42:	627b      	str	r3, [r7, #36]	@ 0x24
 8004a44:	e00c      	b.n	8004a60 <HAL_CAN_IRQHandler+0x140>
        }
        else if ((tsrflags & CAN_TSR_TERR2) != 0U)
 8004a46:	69bb      	ldr	r3, [r7, #24]
 8004a48:	f403 2300 	and.w	r3, r3, #524288	@ 0x80000
 8004a4c:	2b00      	cmp	r3, #0
 8004a4e:	d004      	beq.n	8004a5a <HAL_CAN_IRQHandler+0x13a>
        {
          /* Update error code */
          errorcode |= HAL_CAN_ERROR_TX_TERR2;
 8004a50:	6a7b      	ldr	r3, [r7, #36]	@ 0x24
 8004a52:	f443 3380 	orr.w	r3, r3, #65536	@ 0x10000
 8004a56:	627b      	str	r3, [r7, #36]	@ 0x24
 8004a58:	e002      	b.n	8004a60 <HAL_CAN_IRQHandler+0x140>
#if USE_HAL_CAN_REGISTER_CALLBACKS == 1
          /* Call registered callback*/
          hcan->TxMailbox2AbortCallback(hcan);
#else
          /* Call weak (surcharged) callback */
          HAL_CAN_TxMailbox2AbortCallback(hcan);
 8004a5a:	6878      	ldr	r0, [r7, #4]
 8004a5c:	f000 f949 	bl	8004cf2 <HAL_CAN_TxMailbox2AbortCallback>
      }
    }
  }

  /* Receive FIFO 0 overrun interrupt management *****************************/
  if ((interrupts & CAN_IT_RX_FIFO0_OVERRUN) != 0U)
 8004a60:	6a3b      	ldr	r3, [r7, #32]
 8004a62:	f003 0308 	and.w	r3, r3, #8
 8004a66:	2b00      	cmp	r3, #0
 8004a68:	d00c      	beq.n	8004a84 <HAL_CAN_IRQHandler+0x164>
  {
    if ((rf0rflags & CAN_RF0R_FOVR0) != 0U)
 8004a6a:	697b      	ldr	r3, [r7, #20]
 8004a6c:	f003 0310 	and.w	r3, r3, #16
 8004a70:	2b00      	cmp	r3, #0
 8004a72:	d007      	beq.n	8004a84 <HAL_CAN_IRQHandler+0x164>
    {
      /* Set CAN error code to Rx Fifo 0 overrun error */
      errorcode |= HAL_CAN_ERROR_RX_FOV0;
 8004a74:	6a7b      	ldr	r3, [r7, #36]	@ 0x24
 8004a76:	f443 7300 	orr.w	r3, r3, #512	@ 0x200
 8004a7a:	627b      	str	r3, [r7, #36]	@ 0x24

      /* Clear FIFO0 Overrun Flag */
      __HAL_CAN_CLEAR_FLAG(hcan, CAN_FLAG_FOV0);
 8004a7c:	687b      	ldr	r3, [r7, #4]
 8004a7e:	681b      	ldr	r3, [r3, #0]
 8004a80:	2210      	movs	r2, #16
 8004a82:	60da      	str	r2, [r3, #12]
    }
  }

  /* Receive FIFO 0 full interrupt management ********************************/
  if ((interrupts & CAN_IT_RX_FIFO0_FULL) != 0U)
 8004a84:	6a3b      	ldr	r3, [r7, #32]
 8004a86:	f003 0304 	and.w	r3, r3, #4
 8004a8a:	2b00      	cmp	r3, #0
 8004a8c:	d00b      	beq.n	8004aa6 <HAL_CAN_IRQHandler+0x186>
  {
    if ((rf0rflags & CAN_RF0R_FULL0) != 0U)
 8004a8e:	697b      	ldr	r3, [r7, #20]
 8004a90:	f003 0308 	and.w	r3, r3, #8
 8004a94:	2b00      	cmp	r3, #0
 8004a96:	d006      	beq.n	8004aa6 <HAL_CAN_IRQHandler+0x186>
    {
      /* Clear FIFO 0 full Flag */
      __HAL_CAN_CLEAR_FLAG(hcan, CAN_FLAG_FF0);
 8004a98:	687b      	ldr	r3, [r7, #4]
 8004a9a:	681b      	ldr	r3, [r3, #0]
 8004a9c:	2208      	movs	r2, #8
 8004a9e:	60da      	str	r2, [r3, #12]
#if USE_HAL_CAN_REGISTER_CALLBACKS == 1
      /* Call registered callback*/
      hcan->RxFifo0FullCallback(hcan);
#else
      /* Call weak (surcharged) callback */
      HAL_CAN_RxFifo0FullCallback(hcan);
 8004aa0:	6878      	ldr	r0, [r7, #4]
 8004aa2:	f000 f930 	bl	8004d06 <HAL_CAN_RxFifo0FullCallback>
#endif /* USE_HAL_CAN_REGISTER_CALLBACKS */
    }
  }

  /* Receive FIFO 0 message pending interrupt management *********************/
  if ((interrupts & CAN_IT_RX_FIFO0_MSG_PENDING) != 0U)
 8004aa6:	6a3b      	ldr	r3, [r7, #32]
 8004aa8:	f003 0302 	and.w	r3, r3, #2
 8004aac:	2b00      	cmp	r3, #0
 8004aae:	d009      	beq.n	8004ac4 <HAL_CAN_IRQHandler+0x1a4>
  {
    /* Check if message is still pending */
    if ((hcan->Instance->RF0R & CAN_RF0R_FMP0) != 0U)
 8004ab0:	687b      	ldr	r3, [r7, #4]
 8004ab2:	681b      	ldr	r3, [r3, #0]
 8004ab4:	68db      	ldr	r3, [r3, #12]
 8004ab6:	f003 0303 	and.w	r3, r3, #3
 8004aba:	2b00      	cmp	r3, #0
 8004abc:	d002      	beq.n	8004ac4 <HAL_CAN_IRQHandler+0x1a4>
#if USE_HAL_CAN_REGISTER_CALLBACKS == 1
      /* Call registered callback*/
      hcan->RxFifo0MsgPendingCallback(hcan);
#else
      /* Call weak (surcharged) callback */
      HAL_CAN_RxFifo0MsgPendingCallback(hcan);
 8004abe:	6878      	ldr	r0, [r7, #4]
 8004ac0:	f7fe f94c 	bl	8002d5c <HAL_CAN_RxFifo0MsgPendingCallback>
#endif /* USE_HAL_CAN_REGISTER_CALLBACKS */
    }
  }

  /* Receive FIFO 1 overrun interrupt management *****************************/
  if ((interrupts & CAN_IT_RX_FIFO1_OVERRUN) != 0U)
 8004ac4:	6a3b      	ldr	r3, [r7, #32]
 8004ac6:	f003 0340 	and.w	r3, r3, #64	@ 0x40
 8004aca:	2b00      	cmp	r3, #0
 8004acc:	d00c      	beq.n	8004ae8 <HAL_CAN_IRQHandler+0x1c8>
  {
    if ((rf1rflags & CAN_RF1R_FOVR1) != 0U)
 8004ace:	693b      	ldr	r3, [r7, #16]
 8004ad0:	f003 0310 	and.w	r3, r3, #16
 8004ad4:	2b00      	cmp	r3, #0
 8004ad6:	d007      	beq.n	8004ae8 <HAL_CAN_IRQHandler+0x1c8>
    {
      /* Set CAN error code to Rx Fifo 1 overrun error */
      errorcode |= HAL_CAN_ERROR_RX_FOV1;
 8004ad8:	6a7b      	ldr	r3, [r7, #36]	@ 0x24
 8004ada:	f443 6380 	orr.w	r3, r3, #1024	@ 0x400
 8004ade:	627b      	str	r3, [r7, #36]	@ 0x24

      /* Clear FIFO1 Overrun Flag */
      __HAL_CAN_CLEAR_FLAG(hcan, CAN_FLAG_FOV1);
 8004ae0:	687b      	ldr	r3, [r7, #4]
 8004ae2:	681b      	ldr	r3, [r3, #0]
 8004ae4:	2210      	movs	r2, #16
 8004ae6:	611a      	str	r2, [r3, #16]
    }
  }

  /* Receive FIFO 1 full interrupt management ********************************/
  if ((interrupts & CAN_IT_RX_FIFO1_FULL) != 0U)
 8004ae8:	6a3b      	ldr	r3, [r7, #32]
 8004aea:	f003 0320 	and.w	r3, r3, #32
 8004aee:	2b00      	cmp	r3, #0
 8004af0:	d00b      	beq.n	8004b0a <HAL_CAN_IRQHandler+0x1ea>
  {
    if ((rf1rflags & CAN_RF1R_FULL1) != 0U)
 8004af2:	693b      	ldr	r3, [r7, #16]
 8004af4:	f003 0308 	and.w	r3, r3, #8
 8004af8:	2b00      	cmp	r3, #0
 8004afa:	d006      	beq.n	8004b0a <HAL_CAN_IRQHandler+0x1ea>
    {
      /* Clear FIFO 1 full Flag */
      __HAL_CAN_CLEAR_FLAG(hcan, CAN_FLAG_FF1);
 8004afc:	687b      	ldr	r3, [r7, #4]
 8004afe:	681b      	ldr	r3, [r3, #0]
 8004b00:	2208      	movs	r2, #8
 8004b02:	611a      	str	r2, [r3, #16]
#if USE_HAL_CAN_REGISTER_CALLBACKS == 1
      /* Call registered callback*/
      hcan->RxFifo1FullCallback(hcan);
#else
      /* Call weak (surcharged) callback */
      HAL_CAN_RxFifo1FullCallback(hcan);
 8004b04:	6878      	ldr	r0, [r7, #4]
 8004b06:	f000 f912 	bl	8004d2e <HAL_CAN_RxFifo1FullCallback>
#endif /* USE_HAL_CAN_REGISTER_CALLBACKS */
    }
  }

  /* Receive FIFO 1 message pending interrupt management *********************/
  if ((interrupts & CAN_IT_RX_FIFO1_MSG_PENDING) != 0U)
 8004b0a:	6a3b      	ldr	r3, [r7, #32]
 8004b0c:	f003 0310 	and.w	r3, r3, #16
 8004b10:	2b00      	cmp	r3, #0
 8004b12:	d009      	beq.n	8004b28 <HAL_CAN_IRQHandler+0x208>
  {
    /* Check if message is still pending */
    if ((hcan->Instance->RF1R & CAN_RF1R_FMP1) != 0U)
 8004b14:	687b      	ldr	r3, [r7, #4]
 8004b16:	681b      	ldr	r3, [r3, #0]
 8004b18:	691b      	ldr	r3, [r3, #16]
 8004b1a:	f003 0303 	and.w	r3, r3, #3
 8004b1e:	2b00      	cmp	r3, #0
 8004b20:	d002      	beq.n	8004b28 <HAL_CAN_IRQHandler+0x208>
#if USE_HAL_CAN_REGISTER_CALLBACKS == 1
      /* Call registered callback*/
      hcan->RxFifo1MsgPendingCallback(hcan);
#else
      /* Call weak (surcharged) callback */
      HAL_CAN_RxFifo1MsgPendingCallback(hcan);
 8004b22:	6878      	ldr	r0, [r7, #4]
 8004b24:	f000 f8f9 	bl	8004d1a <HAL_CAN_RxFifo1MsgPendingCallback>
#endif /* USE_HAL_CAN_REGISTER_CALLBACKS */
    }
  }

  /* Sleep interrupt management *********************************************/
  if ((interrupts & CAN_IT_SLEEP_ACK) != 0U)
 8004b28:	6a3b      	ldr	r3, [r7, #32]
 8004b2a:	f403 3300 	and.w	r3, r3, #131072	@ 0x20000
 8004b2e:	2b00      	cmp	r3, #0
 8004b30:	d00b      	beq.n	8004b4a <HAL_CAN_IRQHandler+0x22a>
  {
    if ((msrflags & CAN_MSR_SLAKI) != 0U)
 8004b32:	69fb      	ldr	r3, [r7, #28]
 8004b34:	f003 0310 	and.w	r3, r3, #16
 8004b38:	2b00      	cmp	r3, #0
 8004b3a:	d006      	beq.n	8004b4a <HAL_CAN_IRQHandler+0x22a>
    {
      /* Clear Sleep interrupt Flag */
      __HAL_CAN_CLEAR_FLAG(hcan, CAN_FLAG_SLAKI);
 8004b3c:	687b      	ldr	r3, [r7, #4]
 8004b3e:	681b      	ldr	r3, [r3, #0]
 8004b40:	2210      	movs	r2, #16
 8004b42:	605a      	str	r2, [r3, #4]
#if USE_HAL_CAN_REGISTER_CALLBACKS == 1
      /* Call registered callback*/
      hcan->SleepCallback(hcan);
#else
      /* Call weak (surcharged) callback */
      HAL_CAN_SleepCallback(hcan);
 8004b44:	6878      	ldr	r0, [r7, #4]
 8004b46:	f000 f8fc 	bl	8004d42 <HAL_CAN_SleepCallback>
#endif /* USE_HAL_CAN_REGISTER_CALLBACKS */
    }
  }

  /* WakeUp interrupt management *********************************************/
  if ((interrupts & CAN_IT_WAKEUP) != 0U)
 8004b4a:	6a3b      	ldr	r3, [r7, #32]
 8004b4c:	f403 3380 	and.w	r3, r3, #65536	@ 0x10000
 8004b50:	2b00      	cmp	r3, #0
 8004b52:	d00b      	beq.n	8004b6c <HAL_CAN_IRQHandler+0x24c>
  {
    if ((msrflags & CAN_MSR_WKUI) != 0U)
 8004b54:	69fb      	ldr	r3, [r7, #28]
 8004b56:	f003 0308 	and.w	r3, r3, #8
 8004b5a:	2b00      	cmp	r3, #0
 8004b5c:	d006      	beq.n	8004b6c <HAL_CAN_IRQHandler+0x24c>
    {
      /* Clear WakeUp Flag */
      __HAL_CAN_CLEAR_FLAG(hcan, CAN_FLAG_WKU);
 8004b5e:	687b      	ldr	r3, [r7, #4]
 8004b60:	681b      	ldr	r3, [r3, #0]
 8004b62:	2208      	movs	r2, #8
 8004b64:	605a      	str	r2, [r3, #4]
#if USE_HAL_CAN_REGISTER_CALLBACKS == 1
      /* Call registered callback*/
      hcan->WakeUpFromRxMsgCallback(hcan);
#else
      /* Call weak (surcharged) callback */
      HAL_CAN_WakeUpFromRxMsgCallback(hcan);
 8004b66:	6878      	ldr	r0, [r7, #4]
 8004b68:	f000 f8f5 	bl	8004d56 <HAL_CAN_WakeUpFromRxMsgCallback>
#endif /* USE_HAL_CAN_REGISTER_CALLBACKS */
    }
  }

  /* Error interrupts management *********************************************/
  if ((interrupts & CAN_IT_ERROR) != 0U)
 8004b6c:	6a3b      	ldr	r3, [r7, #32]
 8004b6e:	f403 4300 	and.w	r3, r3, #32768	@ 0x8000
 8004b72:	2b00      	cmp	r3, #0
 8004b74:	d07b      	beq.n	8004c6e <HAL_CAN_IRQHandler+0x34e>
  {
    if ((msrflags & CAN_MSR_ERRI) != 0U)
 8004b76:	69fb      	ldr	r3, [r7, #28]
 8004b78:	f003 0304 	and.w	r3, r3, #4
 8004b7c:	2b00      	cmp	r3, #0
 8004b7e:	d072      	beq.n	8004c66 <HAL_CAN_IRQHandler+0x346>
    {
      /* Check Error Warning Flag */
      if (((interrupts & CAN_IT_ERROR_WARNING) != 0U) &&
 8004b80:	6a3b      	ldr	r3, [r7, #32]
 8004b82:	f403 7380 	and.w	r3, r3, #256	@ 0x100
 8004b86:	2b00      	cmp	r3, #0
 8004b88:	d008      	beq.n	8004b9c <HAL_CAN_IRQHandler+0x27c>
          ((esrflags & CAN_ESR_EWGF) != 0U))
 8004b8a:	68fb      	ldr	r3, [r7, #12]
 8004b8c:	f003 0301 	and.w	r3, r3, #1
      if (((interrupts & CAN_IT_ERROR_WARNING) != 0U) &&
 8004b90:	2b00      	cmp	r3, #0
 8004b92:	d003      	beq.n	8004b9c <HAL_CAN_IRQHandler+0x27c>
      {
        /* Set CAN error code to Error Warning */
        errorcode |= HAL_CAN_ERROR_EWG;
 8004b94:	6a7b      	ldr	r3, [r7, #36]	@ 0x24
 8004b96:	f043 0301 	orr.w	r3, r3, #1
 8004b9a:	627b      	str	r3, [r7, #36]	@ 0x24

        /* No need for clear of Error Warning Flag as read-only */
      }

      /* Check Error Passive Flag */
      if (((interrupts & CAN_IT_ERROR_PASSIVE) != 0U) &&
 8004b9c:	6a3b      	ldr	r3, [r7, #32]
 8004b9e:	f403 7300 	and.w	r3, r3, #512	@ 0x200
 8004ba2:	2b00      	cmp	r3, #0
 8004ba4:	d008      	beq.n	8004bb8 <HAL_CAN_IRQHandler+0x298>
          ((esrflags & CAN_ESR_EPVF) != 0U))
 8004ba6:	68fb      	ldr	r3, [r7, #12]
 8004ba8:	f003 0302 	and.w	r3, r3, #2
      if (((interrupts & CAN_IT_ERROR_PASSIVE) != 0U) &&
 8004bac:	2b00      	cmp	r3, #0
 8004bae:	d003      	beq.n	8004bb8 <HAL_CAN_IRQHandler+0x298>
      {
        /* Set CAN error code to Error Passive */
        errorcode |= HAL_CAN_ERROR_EPV;
 8004bb0:	6a7b      	ldr	r3, [r7, #36]	@ 0x24
 8004bb2:	f043 0302 	orr.w	r3, r3, #2
 8004bb6:	627b      	str	r3, [r7, #36]	@ 0x24

        /* No need for clear of Error Passive Flag as read-only */
      }

      /* Check Bus-off Flag */
      if (((interrupts & CAN_IT_BUSOFF) != 0U) &&
 8004bb8:	6a3b      	ldr	r3, [r7, #32]
 8004bba:	f403 6380 	and.w	r3, r3, #1024	@ 0x400
 8004bbe:	2b00      	cmp	r3, #0
 8004bc0:	d008      	beq.n	8004bd4 <HAL_CAN_IRQHandler+0x2b4>
          ((esrflags & CAN_ESR_BOFF) != 0U))
 8004bc2:	68fb      	ldr	r3, [r7, #12]
 8004bc4:	f003 0304 	and.w	r3, r3, #4
      if (((interrupts & CAN_IT_BUSOFF) != 0U) &&
 8004bc8:	2b00      	cmp	r3, #0
 8004bca:	d003      	beq.n	8004bd4 <HAL_CAN_IRQHandler+0x2b4>
      {
        /* Set CAN error code to Bus-Off */
        errorcode |= HAL_CAN_ERROR_BOF;
 8004bcc:	6a7b      	ldr	r3, [r7, #36]	@ 0x24
 8004bce:	f043 0304 	orr.w	r3, r3, #4
 8004bd2:	627b      	str	r3, [r7, #36]	@ 0x24

        /* No need for clear of Error Bus-Off as read-only */
      }

      /* Check Last Error Code Flag */
      if (((interrupts & CAN_IT_LAST_ERROR_CODE) != 0U) &&
 8004bd4:	6a3b      	ldr	r3, [r7, #32]
 8004bd6:	f403 6300 	and.w	r3, r3, #2048	@ 0x800
 8004bda:	2b00      	cmp	r3, #0
 8004bdc:	d043      	beq.n	8004c66 <HAL_CAN_IRQHandler+0x346>
          ((esrflags & CAN_ESR_LEC) != 0U))
 8004bde:	68fb      	ldr	r3, [r7, #12]
 8004be0:	f003 0370 	and.w	r3, r3, #112	@ 0x70
      if (((interrupts & CAN_IT_LAST_ERROR_CODE) != 0U) &&
 8004be4:	2b00      	cmp	r3, #0
 8004be6:	d03e      	beq.n	8004c66 <HAL_CAN_IRQHandler+0x346>
      {
        switch (esrflags & CAN_ESR_LEC)
 8004be8:	68fb      	ldr	r3, [r7, #12]
 8004bea:	f003 0370 	and.w	r3, r3, #112	@ 0x70
 8004bee:	2b60      	cmp	r3, #96	@ 0x60
 8004bf0:	d02b      	beq.n	8004c4a <HAL_CAN_IRQHandler+0x32a>
 8004bf2:	2b60      	cmp	r3, #96	@ 0x60
 8004bf4:	d82e      	bhi.n	8004c54 <HAL_CAN_IRQHandler+0x334>
 8004bf6:	2b50      	cmp	r3, #80	@ 0x50
 8004bf8:	d022      	beq.n	8004c40 <HAL_CAN_IRQHandler+0x320>
 8004bfa:	2b50      	cmp	r3, #80	@ 0x50
 8004bfc:	d82a      	bhi.n	8004c54 <HAL_CAN_IRQHandler+0x334>
 8004bfe:	2b40      	cmp	r3, #64	@ 0x40
 8004c00:	d019      	beq.n	8004c36 <HAL_CAN_IRQHandler+0x316>
 8004c02:	2b40      	cmp	r3, #64	@ 0x40
 8004c04:	d826      	bhi.n	8004c54 <HAL_CAN_IRQHandler+0x334>
 8004c06:	2b30      	cmp	r3, #48	@ 0x30
 8004c08:	d010      	beq.n	8004c2c <HAL_CAN_IRQHandler+0x30c>
 8004c0a:	2b30      	cmp	r3, #48	@ 0x30
 8004c0c:	d822      	bhi.n	8004c54 <HAL_CAN_IRQHandler+0x334>
 8004c0e:	2b10      	cmp	r3, #16
 8004c10:	d002      	beq.n	8004c18 <HAL_CAN_IRQHandler+0x2f8>
 8004c12:	2b20      	cmp	r3, #32
 8004c14:	d005      	beq.n	8004c22 <HAL_CAN_IRQHandler+0x302>
          case (CAN_ESR_LEC_2 | CAN_ESR_LEC_1):
            /* Set CAN error code to CRC error */
            errorcode |= HAL_CAN_ERROR_CRC;
            break;
          default:
            break;
 8004c16:	e01d      	b.n	8004c54 <HAL_CAN_IRQHandler+0x334>
            errorcode |= HAL_CAN_ERROR_STF;
 8004c18:	6a7b      	ldr	r3, [r7, #36]	@ 0x24
 8004c1a:	f043 0308 	orr.w	r3, r3, #8
 8004c1e:	627b      	str	r3, [r7, #36]	@ 0x24
            break;
 8004c20:	e019      	b.n	8004c56 <HAL_CAN_IRQHandler+0x336>
            errorcode |= HAL_CAN_ERROR_FOR;
 8004c22:	6a7b      	ldr	r3, [r7, #36]	@ 0x24
 8004c24:	f043 0310 	orr.w	r3, r3, #16
 8004c28:	627b      	str	r3, [r7, #36]	@ 0x24
            break;
 8004c2a:	e014      	b.n	8004c56 <HAL_CAN_IRQHandler+0x336>
            errorcode |= HAL_CAN_ERROR_ACK;
 8004c2c:	6a7b      	ldr	r3, [r7, #36]	@ 0x24
 8004c2e:	f043 0320 	orr.w	r3, r3, #32
 8004c32:	627b      	str	r3, [r7, #36]	@ 0x24
            break;
 8004c34:	e00f      	b.n	8004c56 <HAL_CAN_IRQHandler+0x336>
            errorcode |= HAL_CAN_ERROR_BR;
 8004c36:	6a7b      	ldr	r3, [r7, #36]	@ 0x24
 8004c38:	f043 0340 	orr.w	r3, r3, #64	@ 0x40
 8004c3c:	627b      	str	r3, [r7, #36]	@ 0x24
            break;
 8004c3e:	e00a      	b.n	8004c56 <HAL_CAN_IRQHandler+0x336>
            errorcode |= HAL_CAN_ERROR_BD;
 8004c40:	6a7b      	ldr	r3, [r7, #36]	@ 0x24
 8004c42:	f043 0380 	orr.w	r3, r3, #128	@ 0x80
 8004c46:	627b      	str	r3, [r7, #36]	@ 0x24
            break;
 8004c48:	e005      	b.n	8004c56 <HAL_CAN_IRQHandler+0x336>
            errorcode |= HAL_CAN_ERROR_CRC;
 8004c4a:	6a7b      	ldr	r3, [r7, #36]	@ 0x24
 8004c4c:	f443 7380 	orr.w	r3, r3, #256	@ 0x100
 8004c50:	627b      	str	r3, [r7, #36]	@ 0x24
            break;
 8004c52:	e000      	b.n	8004c56 <HAL_CAN_IRQHandler+0x336>
            break;
 8004c54:	bf00      	nop
        }

        /* Clear Last error code Flag */
        CLEAR_BIT(hcan->Instance->ESR, CAN_ESR_LEC);
 8004c56:	687b      	ldr	r3, [r7, #4]
 8004c58:	681b      	ldr	r3, [r3, #0]
 8004c5a:	699a      	ldr	r2, [r3, #24]
 8004c5c:	687b      	ldr	r3, [r7, #4]
 8004c5e:	681b      	ldr	r3, [r3, #0]
 8004c60:	f022 0270 	bic.w	r2, r2, #112	@ 0x70
 8004c64:	619a      	str	r2, [r3, #24]
      }
    }

    /* Clear ERRI Flag */
    __HAL_CAN_CLEAR_FLAG(hcan, CAN_FLAG_ERRI);
 8004c66:	687b      	ldr	r3, [r7, #4]
 8004c68:	681b      	ldr	r3, [r3, #0]
 8004c6a:	2204      	movs	r2, #4
 8004c6c:	605a      	str	r2, [r3, #4]
  }

  /* Call the Error call Back in case of Errors */
  if (errorcode != HAL_CAN_ERROR_NONE)
 8004c6e:	6a7b      	ldr	r3, [r7, #36]	@ 0x24
 8004c70:	2b00      	cmp	r3, #0
 8004c72:	d008      	beq.n	8004c86 <HAL_CAN_IRQHandler+0x366>
  {
    /* Update error code in handle */
    hcan->ErrorCode |= errorcode;
 8004c74:	687b      	ldr	r3, [r7, #4]
 8004c76:	6a5a      	ldr	r2, [r3, #36]	@ 0x24
 8004c78:	6a7b      	ldr	r3, [r7, #36]	@ 0x24
 8004c7a:	431a      	orrs	r2, r3
 8004c7c:	687b      	ldr	r3, [r7, #4]
 8004c7e:	625a      	str	r2, [r3, #36]	@ 0x24
#if USE_HAL_CAN_REGISTER_CALLBACKS == 1
    /* Call registered callback*/
    hcan->ErrorCallback(hcan);
#else
    /* Call weak (surcharged) callback */
    HAL_CAN_ErrorCallback(hcan);
 8004c80:	6878      	ldr	r0, [r7, #4]
 8004c82:	f000 f872 	bl	8004d6a <HAL_CAN_ErrorCallback>
#endif /* USE_HAL_CAN_REGISTER_CALLBACKS */
  }
}
 8004c86:	bf00      	nop
 8004c88:	3728      	adds	r7, #40	@ 0x28
 8004c8a:	46bd      	mov	sp, r7
 8004c8c:	bd80      	pop	{r7, pc}

08004c8e <HAL_CAN_TxMailbox0CompleteCallback>:
  * @param  hcan pointer to a CAN_HandleTypeDef structure that contains
  *         the configuration information for the specified CAN.
  * @retval None
  */
__weak void HAL_CAN_TxMailbox0CompleteCallback(CAN_HandleTypeDef *hcan)
{
 8004c8e:	b480      	push	{r7}
 8004c90:	b083      	sub	sp, #12
 8004c92:	af00      	add	r7, sp, #0
 8004c94:	6078      	str	r0, [r7, #4]

  /* NOTE : This function Should not be modified, when the callback is needed,
            the HAL_CAN_TxMailbox0CompleteCallback could be implemented in the
            user file
   */
}
 8004c96:	bf00      	nop
 8004c98:	370c      	adds	r7, #12
 8004c9a:	46bd      	mov	sp, r7
 8004c9c:	f85d 7b04 	ldr.w	r7, [sp], #4
 8004ca0:	4770      	bx	lr

08004ca2 <HAL_CAN_TxMailbox1CompleteCallback>:
  * @param  hcan pointer to a CAN_HandleTypeDef structure that contains
  *         the configuration information for the specified CAN.
  * @retval None
  */
__weak void HAL_CAN_TxMailbox1CompleteCallback(CAN_HandleTypeDef *hcan)
{
 8004ca2:	b480      	push	{r7}
 8004ca4:	b083      	sub	sp, #12
 8004ca6:	af00      	add	r7, sp, #0
 8004ca8:	6078      	str	r0, [r7, #4]

  /* NOTE : This function Should not be modified, when the callback is needed,
            the HAL_CAN_TxMailbox1CompleteCallback could be implemented in the
            user file
   */
}
 8004caa:	bf00      	nop
 8004cac:	370c      	adds	r7, #12
 8004cae:	46bd      	mov	sp, r7
 8004cb0:	f85d 7b04 	ldr.w	r7, [sp], #4
 8004cb4:	4770      	bx	lr

08004cb6 <HAL_CAN_TxMailbox2CompleteCallback>:
  * @param  hcan pointer to a CAN_HandleTypeDef structure that contains
  *         the configuration information for the specified CAN.
  * @retval None
  */
__weak void HAL_CAN_TxMailbox2CompleteCallback(CAN_HandleTypeDef *hcan)
{
 8004cb6:	b480      	push	{r7}
 8004cb8:	b083      	sub	sp, #12
 8004cba:	af00      	add	r7, sp, #0
 8004cbc:	6078      	str	r0, [r7, #4]

  /* NOTE : This function Should not be modified, when the callback is needed,
            the HAL_CAN_TxMailbox2CompleteCallback could be implemented in the
            user file
   */
}
 8004cbe:	bf00      	nop
 8004cc0:	370c      	adds	r7, #12
 8004cc2:	46bd      	mov	sp, r7
 8004cc4:	f85d 7b04 	ldr.w	r7, [sp], #4
 8004cc8:	4770      	bx	lr

08004cca <HAL_CAN_TxMailbox0AbortCallback>:
  * @param  hcan pointer to an CAN_HandleTypeDef structure that contains
  *         the configuration information for the specified CAN.
  * @retval None
  */
__weak void HAL_CAN_TxMailbox0AbortCallback(CAN_HandleTypeDef *hcan)
{
 8004cca:	b480      	push	{r7}
 8004ccc:	b083      	sub	sp, #12
 8004cce:	af00      	add	r7, sp, #0
 8004cd0:	6078      	str	r0, [r7, #4]

  /* NOTE : This function Should not be modified, when the callback is needed,
            the HAL_CAN_TxMailbox0AbortCallback could be implemented in the
            user file
   */
}
 8004cd2:	bf00      	nop
 8004cd4:	370c      	adds	r7, #12
 8004cd6:	46bd      	mov	sp, r7
 8004cd8:	f85d 7b04 	ldr.w	r7, [sp], #4
 8004cdc:	4770      	bx	lr

08004cde <HAL_CAN_TxMailbox1AbortCallback>:
  * @param  hcan pointer to an CAN_HandleTypeDef structure that contains
  *         the configuration information for the specified CAN.
  * @retval None
  */
__weak void HAL_CAN_TxMailbox1AbortCallback(CAN_HandleTypeDef *hcan)
{
 8004cde:	b480      	push	{r7}
 8004ce0:	b083      	sub	sp, #12
 8004ce2:	af00      	add	r7, sp, #0
 8004ce4:	6078      	str	r0, [r7, #4]

  /* NOTE : This function Should not be modified, when the callback is needed,
            the HAL_CAN_TxMailbox1AbortCallback could be implemented in the
            user file
   */
}
 8004ce6:	bf00      	nop
 8004ce8:	370c      	adds	r7, #12
 8004cea:	46bd      	mov	sp, r7
 8004cec:	f85d 7b04 	ldr.w	r7, [sp], #4
 8004cf0:	4770      	bx	lr

08004cf2 <HAL_CAN_TxMailbox2AbortCallback>:
  * @param  hcan pointer to an CAN_HandleTypeDef structure that contains
  *         the configuration information for the specified CAN.
  * @retval None
  */
__weak void HAL_CAN_TxMailbox2AbortCallback(CAN_HandleTypeDef *hcan)
{
 8004cf2:	b480      	push	{r7}
 8004cf4:	b083      	sub	sp, #12
 8004cf6:	af00      	add	r7, sp, #0
 8004cf8:	6078      	str	r0, [r7, #4]

  /* NOTE : This function Should not be modified, when the callback is needed,
            the HAL_CAN_TxMailbox2AbortCallback could be implemented in the
            user file
   */
}
 8004cfa:	bf00      	nop
 8004cfc:	370c      	adds	r7, #12
 8004cfe:	46bd      	mov	sp, r7
 8004d00:	f85d 7b04 	ldr.w	r7, [sp], #4
 8004d04:	4770      	bx	lr

08004d06 <HAL_CAN_RxFifo0FullCallback>:
  * @param  hcan pointer to a CAN_HandleTypeDef structure that contains
  *         the configuration information for the specified CAN.
  * @retval None
  */
__weak void HAL_CAN_RxFifo0FullCallback(CAN_HandleTypeDef *hcan)
{
 8004d06:	b480      	push	{r7}
 8004d08:	b083      	sub	sp, #12
 8004d0a:	af00      	add	r7, sp, #0
 8004d0c:	6078      	str	r0, [r7, #4]

  /* NOTE : This function Should not be modified, when the callback is needed,
            the HAL_CAN_RxFifo0FullCallback could be implemented in the user
            file
   */
}
 8004d0e:	bf00      	nop
 8004d10:	370c      	adds	r7, #12
 8004d12:	46bd      	mov	sp, r7
 8004d14:	f85d 7b04 	ldr.w	r7, [sp], #4
 8004d18:	4770      	bx	lr

08004d1a <HAL_CAN_RxFifo1MsgPendingCallback>:
  * @param  hcan pointer to a CAN_HandleTypeDef structure that contains
  *         the configuration information for the specified CAN.
  * @retval None
  */
__weak void HAL_CAN_RxFifo1MsgPendingCallback(CAN_HandleTypeDef *hcan)
{
 8004d1a:	b480      	push	{r7}
 8004d1c:	b083      	sub	sp, #12
 8004d1e:	af00      	add	r7, sp, #0
 8004d20:	6078      	str	r0, [r7, #4]

  /* NOTE : This function Should not be modified, when the callback is needed,
            the HAL_CAN_RxFifo1MsgPendingCallback could be implemented in the
            user file
   */
}
 8004d22:	bf00      	nop
 8004d24:	370c      	adds	r7, #12
 8004d26:	46bd      	mov	sp, r7
 8004d28:	f85d 7b04 	ldr.w	r7, [sp], #4
 8004d2c:	4770      	bx	lr

08004d2e <HAL_CAN_RxFifo1FullCallback>:
  * @param  hcan pointer to a CAN_HandleTypeDef structure that contains
  *         the configuration information for the specified CAN.
  * @retval None
  */
__weak void HAL_CAN_RxFifo1FullCallback(CAN_HandleTypeDef *hcan)
{
 8004d2e:	b480      	push	{r7}
 8004d30:	b083      	sub	sp, #12
 8004d32:	af00      	add	r7, sp, #0
 8004d34:	6078      	str	r0, [r7, #4]

  /* NOTE : This function Should not be modified, when the callback is needed,
            the HAL_CAN_RxFifo1FullCallback could be implemented in the user
            file
   */
}
 8004d36:	bf00      	nop
 8004d38:	370c      	adds	r7, #12
 8004d3a:	46bd      	mov	sp, r7
 8004d3c:	f85d 7b04 	ldr.w	r7, [sp], #4
 8004d40:	4770      	bx	lr

08004d42 <HAL_CAN_SleepCallback>:
  * @param  hcan pointer to a CAN_HandleTypeDef structure that contains
  *         the configuration information for the specified CAN.
  * @retval None
  */
__weak void HAL_CAN_SleepCallback(CAN_HandleTypeDef *hcan)
{
 8004d42:	b480      	push	{r7}
 8004d44:	b083      	sub	sp, #12
 8004d46:	af00      	add	r7, sp, #0
 8004d48:	6078      	str	r0, [r7, #4]
  UNUSED(hcan);

  /* NOTE : This function Should not be modified, when the callback is needed,
            the HAL_CAN_SleepCallback could be implemented in the user file
   */
}
 8004d4a:	bf00      	nop
 8004d4c:	370c      	adds	r7, #12
 8004d4e:	46bd      	mov	sp, r7
 8004d50:	f85d 7b04 	ldr.w	r7, [sp], #4
 8004d54:	4770      	bx	lr

08004d56 <HAL_CAN_WakeUpFromRxMsgCallback>:
  * @param  hcan pointer to a CAN_HandleTypeDef structure that contains
  *         the configuration information for the specified CAN.
  * @retval None
  */
__weak void HAL_CAN_WakeUpFromRxMsgCallback(CAN_HandleTypeDef *hcan)
{
 8004d56:	b480      	push	{r7}
 8004d58:	b083      	sub	sp, #12
 8004d5a:	af00      	add	r7, sp, #0
 8004d5c:	6078      	str	r0, [r7, #4]

  /* NOTE : This function Should not be modified, when the callback is needed,
            the HAL_CAN_WakeUpFromRxMsgCallback could be implemented in the
            user file
   */
}
 8004d5e:	bf00      	nop
 8004d60:	370c      	adds	r7, #12
 8004d62:	46bd      	mov	sp, r7
 8004d64:	f85d 7b04 	ldr.w	r7, [sp], #4
 8004d68:	4770      	bx	lr

08004d6a <HAL_CAN_ErrorCallback>:
  * @param  hcan pointer to a CAN_HandleTypeDef structure that contains
  *         the configuration information for the specified CAN.
  * @retval None
  */
__weak void HAL_CAN_ErrorCallback(CAN_HandleTypeDef *hcan)
{
 8004d6a:	b480      	push	{r7}
 8004d6c:	b083      	sub	sp, #12
 8004d6e:	af00      	add	r7, sp, #0
 8004d70:	6078      	str	r0, [r7, #4]
  UNUSED(hcan);

  /* NOTE : This function Should not be modified, when the callback is needed,
            the HAL_CAN_ErrorCallback could be implemented in the user file
   */
}
 8004d72:	bf00      	nop
 8004d74:	370c      	adds	r7, #12
 8004d76:	46bd      	mov	sp, r7
 8004d78:	f85d 7b04 	ldr.w	r7, [sp], #4
 8004d7c:	4770      	bx	lr
	...

08004d80 <__NVIC_SetPriorityGrouping>:
           In case of a conflict between priority grouping and available
           priority bits (__NVIC_PRIO_BITS), the smallest possible priority group is set.
  \param [in]      PriorityGroup  Priority grouping field.
 */
__STATIC_INLINE void __NVIC_SetPriorityGrouping(uint32_t PriorityGroup)
{
 8004d80:	b480      	push	{r7}
 8004d82:	b085      	sub	sp, #20
 8004d84:	af00      	add	r7, sp, #0
 8004d86:	6078      	str	r0, [r7, #4]
  uint32_t reg_value;
  uint32_t PriorityGroupTmp = (PriorityGroup & (uint32_t)0x07UL);             /* only values 0..7 are used          */
 8004d88:	687b      	ldr	r3, [r7, #4]
 8004d8a:	f003 0307 	and.w	r3, r3, #7
 8004d8e:	60fb      	str	r3, [r7, #12]

  reg_value  =  SCB->AIRCR;                                                   /* read old register configuration    */
 8004d90:	4b0c      	ldr	r3, [pc, #48]	@ (8004dc4 <__NVIC_SetPriorityGrouping+0x44>)
 8004d92:	68db      	ldr	r3, [r3, #12]
 8004d94:	60bb      	str	r3, [r7, #8]
  reg_value &= ~((uint32_t)(SCB_AIRCR_VECTKEY_Msk | SCB_AIRCR_PRIGROUP_Msk)); /* clear bits to change               */
 8004d96:	68ba      	ldr	r2, [r7, #8]
 8004d98:	f64f 03ff 	movw	r3, #63743	@ 0xf8ff
 8004d9c:	4013      	ands	r3, r2
 8004d9e:	60bb      	str	r3, [r7, #8]
  reg_value  =  (reg_value                                   |
                ((uint32_t)0x5FAUL << SCB_AIRCR_VECTKEY_Pos) |
                (PriorityGroupTmp << SCB_AIRCR_PRIGROUP_Pos)  );              /* Insert write key and priority group */
 8004da0:	68fb      	ldr	r3, [r7, #12]
 8004da2:	021a      	lsls	r2, r3, #8
                ((uint32_t)0x5FAUL << SCB_AIRCR_VECTKEY_Pos) |
 8004da4:	68bb      	ldr	r3, [r7, #8]
 8004da6:	4313      	orrs	r3, r2
  reg_value  =  (reg_value                                   |
 8004da8:	f043 63bf 	orr.w	r3, r3, #100139008	@ 0x5f80000
 8004dac:	f443 3300 	orr.w	r3, r3, #131072	@ 0x20000
 8004db0:	60bb      	str	r3, [r7, #8]
  SCB->AIRCR =  reg_value;
 8004db2:	4a04      	ldr	r2, [pc, #16]	@ (8004dc4 <__NVIC_SetPriorityGrouping+0x44>)
 8004db4:	68bb      	ldr	r3, [r7, #8]
 8004db6:	60d3      	str	r3, [r2, #12]
}
 8004db8:	bf00      	nop
 8004dba:	3714      	adds	r7, #20
 8004dbc:	46bd      	mov	sp, r7
 8004dbe:	f85d 7b04 	ldr.w	r7, [sp], #4
 8004dc2:	4770      	bx	lr
 8004dc4:	e000ed00 	.word	0xe000ed00

08004dc8 <__NVIC_GetPriorityGrouping>:
  \brief   Get Priority Grouping
  \details Reads the priority grouping field from the NVIC Interrupt Controller.
  \return                Priority grouping field (SCB->AIRCR [10:8] PRIGROUP field).
 */
__STATIC_INLINE uint32_t __NVIC_GetPriorityGrouping(void)
{
 8004dc8:	b480      	push	{r7}
 8004dca:	af00      	add	r7, sp, #0
  return ((uint32_t)((SCB->AIRCR & SCB_AIRCR_PRIGROUP_Msk) >> SCB_AIRCR_PRIGROUP_Pos));
 8004dcc:	4b04      	ldr	r3, [pc, #16]	@ (8004de0 <__NVIC_GetPriorityGrouping+0x18>)
 8004dce:	68db      	ldr	r3, [r3, #12]
 8004dd0:	0a1b      	lsrs	r3, r3, #8
 8004dd2:	f003 0307 	and.w	r3, r3, #7
}
 8004dd6:	4618      	mov	r0, r3
 8004dd8:	46bd      	mov	sp, r7
 8004dda:	f85d 7b04 	ldr.w	r7, [sp], #4
 8004dde:	4770      	bx	lr
 8004de0:	e000ed00 	.word	0xe000ed00

08004de4 <__NVIC_EnableIRQ>:
  \details Enables a device specific interrupt in the NVIC interrupt controller.
  \param [in]      IRQn  Device specific interrupt number.
  \note    IRQn must not be negative.
 */
__STATIC_INLINE void __NVIC_EnableIRQ(IRQn_Type IRQn)
{
 8004de4:	b480      	push	{r7}
 8004de6:	b083      	sub	sp, #12
 8004de8:	af00      	add	r7, sp, #0
 8004dea:	4603      	mov	r3, r0
 8004dec:	71fb      	strb	r3, [r7, #7]
  if ((int32_t)(IRQn) >= 0)
 8004dee:	f997 3007 	ldrsb.w	r3, [r7, #7]
 8004df2:	2b00      	cmp	r3, #0
 8004df4:	db0b      	blt.n	8004e0e <__NVIC_EnableIRQ+0x2a>
  {
    __COMPILER_BARRIER();
    NVIC->ISER[(((uint32_t)IRQn) >> 5UL)] = (uint32_t)(1UL << (((uint32_t)IRQn) & 0x1FUL));
 8004df6:	79fb      	ldrb	r3, [r7, #7]
 8004df8:	f003 021f 	and.w	r2, r3, #31
 8004dfc:	4907      	ldr	r1, [pc, #28]	@ (8004e1c <__NVIC_EnableIRQ+0x38>)
 8004dfe:	f997 3007 	ldrsb.w	r3, [r7, #7]
 8004e02:	095b      	lsrs	r3, r3, #5
 8004e04:	2001      	movs	r0, #1
 8004e06:	fa00 f202 	lsl.w	r2, r0, r2
 8004e0a:	f841 2023 	str.w	r2, [r1, r3, lsl #2]
    __COMPILER_BARRIER();
  }
}
 8004e0e:	bf00      	nop
 8004e10:	370c      	adds	r7, #12
 8004e12:	46bd      	mov	sp, r7
 8004e14:	f85d 7b04 	ldr.w	r7, [sp], #4
 8004e18:	4770      	bx	lr
 8004e1a:	bf00      	nop
 8004e1c:	e000e100 	.word	0xe000e100

08004e20 <__NVIC_SetPriority>:
  \param [in]      IRQn  Interrupt number.
  \param [in]  priority  Priority to set.
  \note    The priority cannot be set for every processor exception.
 */
__STATIC_INLINE void __NVIC_SetPriority(IRQn_Type IRQn, uint32_t priority)
{
 8004e20:	b480      	push	{r7}
 8004e22:	b083      	sub	sp, #12
 8004e24:	af00      	add	r7, sp, #0
 8004e26:	4603      	mov	r3, r0
 8004e28:	6039      	str	r1, [r7, #0]
 8004e2a:	71fb      	strb	r3, [r7, #7]
  if ((int32_t)(IRQn) >= 0)
 8004e2c:	f997 3007 	ldrsb.w	r3, [r7, #7]
 8004e30:	2b00      	cmp	r3, #0
 8004e32:	db0a      	blt.n	8004e4a <__NVIC_SetPriority+0x2a>
  {
    NVIC->IP[((uint32_t)IRQn)]               = (uint8_t)((priority << (8U - __NVIC_PRIO_BITS)) & (uint32_t)0xFFUL);
 8004e34:	683b      	ldr	r3, [r7, #0]
 8004e36:	b2da      	uxtb	r2, r3
 8004e38:	490c      	ldr	r1, [pc, #48]	@ (8004e6c <__NVIC_SetPriority+0x4c>)
 8004e3a:	f997 3007 	ldrsb.w	r3, [r7, #7]
 8004e3e:	0112      	lsls	r2, r2, #4
 8004e40:	b2d2      	uxtb	r2, r2
 8004e42:	440b      	add	r3, r1
 8004e44:	f883 2300 	strb.w	r2, [r3, #768]	@ 0x300
  }
  else
  {
    SCB->SHP[(((uint32_t)IRQn) & 0xFUL)-4UL] = (uint8_t)((priority << (8U - __NVIC_PRIO_BITS)) & (uint32_t)0xFFUL);
  }
}
 8004e48:	e00a      	b.n	8004e60 <__NVIC_SetPriority+0x40>
    SCB->SHP[(((uint32_t)IRQn) & 0xFUL)-4UL] = (uint8_t)((priority << (8U - __NVIC_PRIO_BITS)) & (uint32_t)0xFFUL);
 8004e4a:	683b      	ldr	r3, [r7, #0]
 8004e4c:	b2da      	uxtb	r2, r3
 8004e4e:	4908      	ldr	r1, [pc, #32]	@ (8004e70 <__NVIC_SetPriority+0x50>)
 8004e50:	79fb      	ldrb	r3, [r7, #7]
 8004e52:	f003 030f 	and.w	r3, r3, #15
 8004e56:	3b04      	subs	r3, #4
 8004e58:	0112      	lsls	r2, r2, #4
 8004e5a:	b2d2      	uxtb	r2, r2
 8004e5c:	440b      	add	r3, r1
 8004e5e:	761a      	strb	r2, [r3, #24]
}
 8004e60:	bf00      	nop
 8004e62:	370c      	adds	r7, #12
 8004e64:	46bd      	mov	sp, r7
 8004e66:	f85d 7b04 	ldr.w	r7, [sp], #4
 8004e6a:	4770      	bx	lr
 8004e6c:	e000e100 	.word	0xe000e100
 8004e70:	e000ed00 	.word	0xe000ed00

08004e74 <NVIC_EncodePriority>:
  \param [in]   PreemptPriority  Preemptive priority value (starting from 0).
  \param [in]       SubPriority  Subpriority value (starting from 0).
  \return                        Encoded priority. Value can be used in the function \ref NVIC_SetPriority().
 */
__STATIC_INLINE uint32_t NVIC_EncodePriority (uint32_t PriorityGroup, uint32_t PreemptPriority, uint32_t SubPriority)
{
 8004e74:	b480      	push	{r7}
 8004e76:	b089      	sub	sp, #36	@ 0x24
 8004e78:	af00      	add	r7, sp, #0
 8004e7a:	60f8      	str	r0, [r7, #12]
 8004e7c:	60b9      	str	r1, [r7, #8]
 8004e7e:	607a      	str	r2, [r7, #4]
  uint32_t PriorityGroupTmp = (PriorityGroup & (uint32_t)0x07UL);   /* only values 0..7 are used          */
 8004e80:	68fb      	ldr	r3, [r7, #12]
 8004e82:	f003 0307 	and.w	r3, r3, #7
 8004e86:	61fb      	str	r3, [r7, #28]
  uint32_t PreemptPriorityBits;
  uint32_t SubPriorityBits;

  PreemptPriorityBits = ((7UL - PriorityGroupTmp) > (uint32_t)(__NVIC_PRIO_BITS)) ? (uint32_t)(__NVIC_PRIO_BITS) : (uint32_t)(7UL - PriorityGroupTmp);
 8004e88:	69fb      	ldr	r3, [r7, #28]
 8004e8a:	f1c3 0307 	rsb	r3, r3, #7
 8004e8e:	2b04      	cmp	r3, #4
 8004e90:	bf28      	it	cs
 8004e92:	2304      	movcs	r3, #4
 8004e94:	61bb      	str	r3, [r7, #24]
  SubPriorityBits     = ((PriorityGroupTmp + (uint32_t)(__NVIC_PRIO_BITS)) < (uint32_t)7UL) ? (uint32_t)0UL : (uint32_t)((PriorityGroupTmp - 7UL) + (uint32_t)(__NVIC_PRIO_BITS));
 8004e96:	69fb      	ldr	r3, [r7, #28]
 8004e98:	3304      	adds	r3, #4
 8004e9a:	2b06      	cmp	r3, #6
 8004e9c:	d902      	bls.n	8004ea4 <NVIC_EncodePriority+0x30>
 8004e9e:	69fb      	ldr	r3, [r7, #28]
 8004ea0:	3b03      	subs	r3, #3
 8004ea2:	e000      	b.n	8004ea6 <NVIC_EncodePriority+0x32>
 8004ea4:	2300      	movs	r3, #0
 8004ea6:	617b      	str	r3, [r7, #20]

  return (
           ((PreemptPriority & (uint32_t)((1UL << (PreemptPriorityBits)) - 1UL)) << SubPriorityBits) |
 8004ea8:	f04f 32ff 	mov.w	r2, #4294967295
 8004eac:	69bb      	ldr	r3, [r7, #24]
 8004eae:	fa02 f303 	lsl.w	r3, r2, r3
 8004eb2:	43da      	mvns	r2, r3
 8004eb4:	68bb      	ldr	r3, [r7, #8]
 8004eb6:	401a      	ands	r2, r3
 8004eb8:	697b      	ldr	r3, [r7, #20]
 8004eba:	409a      	lsls	r2, r3
           ((SubPriority     & (uint32_t)((1UL << (SubPriorityBits    )) - 1UL)))
 8004ebc:	f04f 31ff 	mov.w	r1, #4294967295
 8004ec0:	697b      	ldr	r3, [r7, #20]
 8004ec2:	fa01 f303 	lsl.w	r3, r1, r3
 8004ec6:	43d9      	mvns	r1, r3
 8004ec8:	687b      	ldr	r3, [r7, #4]
 8004eca:	400b      	ands	r3, r1
           ((PreemptPriority & (uint32_t)((1UL << (PreemptPriorityBits)) - 1UL)) << SubPriorityBits) |
 8004ecc:	4313      	orrs	r3, r2
         );
}
 8004ece:	4618      	mov	r0, r3
 8004ed0:	3724      	adds	r7, #36	@ 0x24
 8004ed2:	46bd      	mov	sp, r7
 8004ed4:	f85d 7b04 	ldr.w	r7, [sp], #4
 8004ed8:	4770      	bx	lr
	...

08004edc <SysTick_Config>:
  \note    When the variable <b>__Vendor_SysTickConfig</b> is set to 1, then the
           function <b>SysTick_Config</b> is not included. In this case, the file <b><i>device</i>.h</b>
           must contain a vendor-specific implementation of this function.
 */
__STATIC_INLINE uint32_t SysTick_Config(uint32_t ticks)
{
 8004edc:	b580      	push	{r7, lr}
 8004ede:	b082      	sub	sp, #8
 8004ee0:	af00      	add	r7, sp, #0
 8004ee2:	6078      	str	r0, [r7, #4]
  if ((ticks - 1UL) > SysTick_LOAD_RELOAD_Msk)
 8004ee4:	687b      	ldr	r3, [r7, #4]
 8004ee6:	3b01      	subs	r3, #1
 8004ee8:	f1b3 7f80 	cmp.w	r3, #16777216	@ 0x1000000
 8004eec:	d301      	bcc.n	8004ef2 <SysTick_Config+0x16>
  {
    return (1UL);                                                   /* Reload value impossible */
 8004eee:	2301      	movs	r3, #1
 8004ef0:	e00f      	b.n	8004f12 <SysTick_Config+0x36>
  }

  SysTick->LOAD  = (uint32_t)(ticks - 1UL);                         /* set reload register */
 8004ef2:	4a0a      	ldr	r2, [pc, #40]	@ (8004f1c <SysTick_Config+0x40>)
 8004ef4:	687b      	ldr	r3, [r7, #4]
 8004ef6:	3b01      	subs	r3, #1
 8004ef8:	6053      	str	r3, [r2, #4]
  NVIC_SetPriority (SysTick_IRQn, (1UL << __NVIC_PRIO_BITS) - 1UL); /* set Priority for Systick Interrupt */
 8004efa:	210f      	movs	r1, #15
 8004efc:	f04f 30ff 	mov.w	r0, #4294967295
 8004f00:	f7ff ff8e 	bl	8004e20 <__NVIC_SetPriority>
  SysTick->VAL   = 0UL;                                             /* Load the SysTick Counter Value */
 8004f04:	4b05      	ldr	r3, [pc, #20]	@ (8004f1c <SysTick_Config+0x40>)
 8004f06:	2200      	movs	r2, #0
 8004f08:	609a      	str	r2, [r3, #8]
  SysTick->CTRL  = SysTick_CTRL_CLKSOURCE_Msk |
 8004f0a:	4b04      	ldr	r3, [pc, #16]	@ (8004f1c <SysTick_Config+0x40>)
 8004f0c:	2207      	movs	r2, #7
 8004f0e:	601a      	str	r2, [r3, #0]
                   SysTick_CTRL_TICKINT_Msk   |
                   SysTick_CTRL_ENABLE_Msk;                         /* Enable SysTick IRQ and SysTick Timer */
  return (0UL);                                                     /* Function successful */
 8004f10:	2300      	movs	r3, #0
}
 8004f12:	4618      	mov	r0, r3
 8004f14:	3708      	adds	r7, #8
 8004f16:	46bd      	mov	sp, r7
 8004f18:	bd80      	pop	{r7, pc}
 8004f1a:	bf00      	nop
 8004f1c:	e000e010 	.word	0xe000e010

08004f20 <HAL_NVIC_SetPriorityGrouping>:
  * @note   When the NVIC_PriorityGroup_0 is selected, IRQ pre-emption is no more possible.
  *         The pending IRQ priority will be managed only by the subpriority.
  * @retval None
  */
void HAL_NVIC_SetPriorityGrouping(uint32_t PriorityGroup)
{
 8004f20:	b580      	push	{r7, lr}
 8004f22:	b082      	sub	sp, #8
 8004f24:	af00      	add	r7, sp, #0
 8004f26:	6078      	str	r0, [r7, #4]
  /* Check the parameters */
  assert_param(IS_NVIC_PRIORITY_GROUP(PriorityGroup));

  /* Set the PRIGROUP[10:8] bits according to the PriorityGroup parameter value */
  NVIC_SetPriorityGrouping(PriorityGroup);
 8004f28:	6878      	ldr	r0, [r7, #4]
 8004f2a:	f7ff ff29 	bl	8004d80 <__NVIC_SetPriorityGrouping>
}
 8004f2e:	bf00      	nop
 8004f30:	3708      	adds	r7, #8
 8004f32:	46bd      	mov	sp, r7
 8004f34:	bd80      	pop	{r7, pc}

08004f36 <HAL_NVIC_SetPriority>:
  *         This parameter can be a value between 0 and 15
  *         A lower priority value indicates a higher priority.
  * @retval None
  */
void HAL_NVIC_SetPriority(IRQn_Type IRQn, uint32_t PreemptPriority, uint32_t SubPriority)
{
 8004f36:	b580      	push	{r7, lr}
 8004f38:	b086      	sub	sp, #24
 8004f3a:	af00      	add	r7, sp, #0
 8004f3c:	4603      	mov	r3, r0
 8004f3e:	60b9      	str	r1, [r7, #8]
 8004f40:	607a      	str	r2, [r7, #4]
 8004f42:	73fb      	strb	r3, [r7, #15]
  uint32_t prioritygroup = 0x00;
 8004f44:	2300      	movs	r3, #0
 8004f46:	617b      	str	r3, [r7, #20]

  /* Check the parameters */
  assert_param(IS_NVIC_SUB_PRIORITY(SubPriority));
  assert_param(IS_NVIC_PREEMPTION_PRIORITY(PreemptPriority));

  prioritygroup = NVIC_GetPriorityGrouping();
 8004f48:	f7ff ff3e 	bl	8004dc8 <__NVIC_GetPriorityGrouping>
 8004f4c:	6178      	str	r0, [r7, #20]

  NVIC_SetPriority(IRQn, NVIC_EncodePriority(prioritygroup, PreemptPriority, SubPriority));
 8004f4e:	687a      	ldr	r2, [r7, #4]
 8004f50:	68b9      	ldr	r1, [r7, #8]
 8004f52:	6978      	ldr	r0, [r7, #20]
 8004f54:	f7ff ff8e 	bl	8004e74 <NVIC_EncodePriority>
 8004f58:	4602      	mov	r2, r0
 8004f5a:	f997 300f 	ldrsb.w	r3, [r7, #15]
 8004f5e:	4611      	mov	r1, r2
 8004f60:	4618      	mov	r0, r3
 8004f62:	f7ff ff5d 	bl	8004e20 <__NVIC_SetPriority>
}
 8004f66:	bf00      	nop
 8004f68:	3718      	adds	r7, #24
 8004f6a:	46bd      	mov	sp, r7
 8004f6c:	bd80      	pop	{r7, pc}

08004f6e <HAL_NVIC_EnableIRQ>:
  *         This parameter can be an enumerator of IRQn_Type enumeration
  *         (For the complete STM32 Devices IRQ Channels list, please refer to the appropriate CMSIS device file (stm32l4xxxx.h))
  * @retval None
  */
void HAL_NVIC_EnableIRQ(IRQn_Type IRQn)
{
 8004f6e:	b580      	push	{r7, lr}
 8004f70:	b082      	sub	sp, #8
 8004f72:	af00      	add	r7, sp, #0
 8004f74:	4603      	mov	r3, r0
 8004f76:	71fb      	strb	r3, [r7, #7]
  /* Check the parameters */
  assert_param(IS_NVIC_DEVICE_IRQ(IRQn));
  
  /* Enable interrupt */
  NVIC_EnableIRQ(IRQn);
 8004f78:	f997 3007 	ldrsb.w	r3, [r7, #7]
 8004f7c:	4618      	mov	r0, r3
 8004f7e:	f7ff ff31 	bl	8004de4 <__NVIC_EnableIRQ>
}
 8004f82:	bf00      	nop
 8004f84:	3708      	adds	r7, #8
 8004f86:	46bd      	mov	sp, r7
 8004f88:	bd80      	pop	{r7, pc}

08004f8a <HAL_SYSTICK_Config>:
  * @param  TicksNumb: Specifies the ticks Number of ticks between two interrupts.
  * @retval status:  - 0  Function succeeded.
  *                  - 1  Function failed.
  */
uint32_t HAL_SYSTICK_Config(uint32_t TicksNumb)
{
 8004f8a:	b580      	push	{r7, lr}
 8004f8c:	b082      	sub	sp, #8
 8004f8e:	af00      	add	r7, sp, #0
 8004f90:	6078      	str	r0, [r7, #4]
   return SysTick_Config(TicksNumb);
 8004f92:	6878      	ldr	r0, [r7, #4]
 8004f94:	f7ff ffa2 	bl	8004edc <SysTick_Config>
 8004f98:	4603      	mov	r3, r0
}
 8004f9a:	4618      	mov	r0, r3
 8004f9c:	3708      	adds	r7, #8
 8004f9e:	46bd      	mov	sp, r7
 8004fa0:	bd80      	pop	{r7, pc}
	...

08004fa4 <HAL_FLASH_Program>:
  *                are stored the data for the row fast program
  *
  * @retval HAL_StatusTypeDef HAL Status
  */
HAL_StatusTypeDef HAL_FLASH_Program(uint32_t TypeProgram, uint32_t Address, uint64_t Data)
{
 8004fa4:	b580      	push	{r7, lr}
 8004fa6:	b086      	sub	sp, #24
 8004fa8:	af00      	add	r7, sp, #0
 8004faa:	60f8      	str	r0, [r7, #12]
 8004fac:	60b9      	str	r1, [r7, #8]
 8004fae:	e9c7 2300 	strd	r2, r3, [r7]
  HAL_StatusTypeDef status;
  uint32_t prog_bit = 0;
 8004fb2:	2300      	movs	r3, #0
 8004fb4:	613b      	str	r3, [r7, #16]

  /* Process Locked */
  __HAL_LOCK(&pFlash);
 8004fb6:	4b2f      	ldr	r3, [pc, #188]	@ (8005074 <HAL_FLASH_Program+0xd0>)
 8004fb8:	781b      	ldrb	r3, [r3, #0]
 8004fba:	2b01      	cmp	r3, #1
 8004fbc:	d101      	bne.n	8004fc2 <HAL_FLASH_Program+0x1e>
 8004fbe:	2302      	movs	r3, #2
 8004fc0:	e053      	b.n	800506a <HAL_FLASH_Program+0xc6>
 8004fc2:	4b2c      	ldr	r3, [pc, #176]	@ (8005074 <HAL_FLASH_Program+0xd0>)
 8004fc4:	2201      	movs	r2, #1
 8004fc6:	701a      	strb	r2, [r3, #0]

  /* Check the parameters */
  assert_param(IS_FLASH_TYPEPROGRAM(TypeProgram));

  /* Wait for last operation to be completed */
  status = FLASH_WaitForLastOperation((uint32_t)FLASH_TIMEOUT_VALUE);
 8004fc8:	f24c 3050 	movw	r0, #50000	@ 0xc350
 8004fcc:	f000 f888 	bl	80050e0 <FLASH_WaitForLastOperation>
 8004fd0:	4603      	mov	r3, r0
 8004fd2:	75fb      	strb	r3, [r7, #23]

  if(status == HAL_OK)
 8004fd4:	7dfb      	ldrb	r3, [r7, #23]
 8004fd6:	2b00      	cmp	r3, #0
 8004fd8:	d143      	bne.n	8005062 <HAL_FLASH_Program+0xbe>
  {
    pFlash.ErrorCode = HAL_FLASH_ERROR_NONE;
 8004fda:	4b26      	ldr	r3, [pc, #152]	@ (8005074 <HAL_FLASH_Program+0xd0>)
 8004fdc:	2200      	movs	r2, #0
 8004fde:	605a      	str	r2, [r3, #4]

    /* Deactivate the data cache if they are activated to avoid data misbehavior */
    if(READ_BIT(FLASH->ACR, FLASH_ACR_DCEN) != 0U)
 8004fe0:	4b25      	ldr	r3, [pc, #148]	@ (8005078 <HAL_FLASH_Program+0xd4>)
 8004fe2:	681b      	ldr	r3, [r3, #0]
 8004fe4:	f403 6380 	and.w	r3, r3, #1024	@ 0x400
 8004fe8:	2b00      	cmp	r3, #0
 8004fea:	d009      	beq.n	8005000 <HAL_FLASH_Program+0x5c>
    {
      /* Disable data cache  */
      __HAL_FLASH_DATA_CACHE_DISABLE();
 8004fec:	4b22      	ldr	r3, [pc, #136]	@ (8005078 <HAL_FLASH_Program+0xd4>)
 8004fee:	681b      	ldr	r3, [r3, #0]
 8004ff0:	4a21      	ldr	r2, [pc, #132]	@ (8005078 <HAL_FLASH_Program+0xd4>)
 8004ff2:	f423 6380 	bic.w	r3, r3, #1024	@ 0x400
 8004ff6:	6013      	str	r3, [r2, #0]
      pFlash.CacheToReactivate = FLASH_CACHE_DCACHE_ENABLED;
 8004ff8:	4b1e      	ldr	r3, [pc, #120]	@ (8005074 <HAL_FLASH_Program+0xd0>)
 8004ffa:	2202      	movs	r2, #2
 8004ffc:	771a      	strb	r2, [r3, #28]
 8004ffe:	e002      	b.n	8005006 <HAL_FLASH_Program+0x62>
    }
    else
    {
      pFlash.CacheToReactivate = FLASH_CACHE_DISABLED;
 8005000:	4b1c      	ldr	r3, [pc, #112]	@ (8005074 <HAL_FLASH_Program+0xd0>)
 8005002:	2200      	movs	r2, #0
 8005004:	771a      	strb	r2, [r3, #28]
    }

    if(TypeProgram == FLASH_TYPEPROGRAM_DOUBLEWORD)
 8005006:	68fb      	ldr	r3, [r7, #12]
 8005008:	2b00      	cmp	r3, #0
 800500a:	d107      	bne.n	800501c <HAL_FLASH_Program+0x78>
    {
      /* Program double-word (64-bit) at a specified address */
      FLASH_Program_DoubleWord(Address, Data);
 800500c:	e9d7 2300 	ldrd	r2, r3, [r7]
 8005010:	68b8      	ldr	r0, [r7, #8]
 8005012:	f000 f8bb 	bl	800518c <FLASH_Program_DoubleWord>
      prog_bit = FLASH_CR_PG;
 8005016:	2301      	movs	r3, #1
 8005018:	613b      	str	r3, [r7, #16]
 800501a:	e010      	b.n	800503e <HAL_FLASH_Program+0x9a>
    }
    else if((TypeProgram == FLASH_TYPEPROGRAM_FAST) || (TypeProgram == FLASH_TYPEPROGRAM_FAST_AND_LAST))
 800501c:	68fb      	ldr	r3, [r7, #12]
 800501e:	2b01      	cmp	r3, #1
 8005020:	d002      	beq.n	8005028 <HAL_FLASH_Program+0x84>
 8005022:	68fb      	ldr	r3, [r7, #12]
 8005024:	2b02      	cmp	r3, #2
 8005026:	d10a      	bne.n	800503e <HAL_FLASH_Program+0x9a>
    {
      /* Fast program a 32 row double-word (64-bit) at a specified address */
      FLASH_Program_Fast(Address, (uint32_t)Data);
 8005028:	683b      	ldr	r3, [r7, #0]
 800502a:	4619      	mov	r1, r3
 800502c:	68b8      	ldr	r0, [r7, #8]
 800502e:	f000 f8d3 	bl	80051d8 <FLASH_Program_Fast>

      /* If it is the last row, the bit will be cleared at the end of the operation */
      if(TypeProgram == FLASH_TYPEPROGRAM_FAST_AND_LAST)
 8005032:	68fb      	ldr	r3, [r7, #12]
 8005034:	2b02      	cmp	r3, #2
 8005036:	d102      	bne.n	800503e <HAL_FLASH_Program+0x9a>
      {
        prog_bit = FLASH_CR_FSTPG;
 8005038:	f44f 2380 	mov.w	r3, #262144	@ 0x40000
 800503c:	613b      	str	r3, [r7, #16]
    {
      /* Nothing to do */
    }

    /* Wait for last operation to be completed */
    status = FLASH_WaitForLastOperation((uint32_t)FLASH_TIMEOUT_VALUE);
 800503e:	f24c 3050 	movw	r0, #50000	@ 0xc350
 8005042:	f000 f84d 	bl	80050e0 <FLASH_WaitForLastOperation>
 8005046:	4603      	mov	r3, r0
 8005048:	75fb      	strb	r3, [r7, #23]

    /* If the program operation is completed, disable the PG or FSTPG Bit */
    if (prog_bit != 0U)
 800504a:	693b      	ldr	r3, [r7, #16]
 800504c:	2b00      	cmp	r3, #0
 800504e:	d006      	beq.n	800505e <HAL_FLASH_Program+0xba>
    {
      CLEAR_BIT(FLASH->CR, prog_bit);
 8005050:	4b09      	ldr	r3, [pc, #36]	@ (8005078 <HAL_FLASH_Program+0xd4>)
 8005052:	695a      	ldr	r2, [r3, #20]
 8005054:	693b      	ldr	r3, [r7, #16]
 8005056:	43db      	mvns	r3, r3
 8005058:	4907      	ldr	r1, [pc, #28]	@ (8005078 <HAL_FLASH_Program+0xd4>)
 800505a:	4013      	ands	r3, r2
 800505c:	614b      	str	r3, [r1, #20]
    }

    /* Flush the caches to be sure of the data consistency */
    FLASH_FlushCaches();
 800505e:	f000 f9cd 	bl	80053fc <FLASH_FlushCaches>
  }

  /* Process Unlocked */
  __HAL_UNLOCK(&pFlash);
 8005062:	4b04      	ldr	r3, [pc, #16]	@ (8005074 <HAL_FLASH_Program+0xd0>)
 8005064:	2200      	movs	r2, #0
 8005066:	701a      	strb	r2, [r3, #0]

  return status;
 8005068:	7dfb      	ldrb	r3, [r7, #23]
}
 800506a:	4618      	mov	r0, r3
 800506c:	3718      	adds	r7, #24
 800506e:	46bd      	mov	sp, r7
 8005070:	bd80      	pop	{r7, pc}
 8005072:	bf00      	nop
 8005074:	2000000c 	.word	0x2000000c
 8005078:	40022000 	.word	0x40022000

0800507c <HAL_FLASH_Unlock>:
/**
  * @brief  Unlock the FLASH control register access.
  * @retval HAL Status
  */
HAL_StatusTypeDef HAL_FLASH_Unlock(void)
{
 800507c:	b480      	push	{r7}
 800507e:	b083      	sub	sp, #12
 8005080:	af00      	add	r7, sp, #0
  HAL_StatusTypeDef status = HAL_OK;
 8005082:	2300      	movs	r3, #0
 8005084:	71fb      	strb	r3, [r7, #7]

  if(READ_BIT(FLASH->CR, FLASH_CR_LOCK) != 0U)
 8005086:	4b0b      	ldr	r3, [pc, #44]	@ (80050b4 <HAL_FLASH_Unlock+0x38>)
 8005088:	695b      	ldr	r3, [r3, #20]
 800508a:	2b00      	cmp	r3, #0
 800508c:	da0b      	bge.n	80050a6 <HAL_FLASH_Unlock+0x2a>
  {
    /* Authorize the FLASH Registers access */
    WRITE_REG(FLASH->KEYR, FLASH_KEY1);
 800508e:	4b09      	ldr	r3, [pc, #36]	@ (80050b4 <HAL_FLASH_Unlock+0x38>)
 8005090:	4a09      	ldr	r2, [pc, #36]	@ (80050b8 <HAL_FLASH_Unlock+0x3c>)
 8005092:	609a      	str	r2, [r3, #8]
    WRITE_REG(FLASH->KEYR, FLASH_KEY2);
 8005094:	4b07      	ldr	r3, [pc, #28]	@ (80050b4 <HAL_FLASH_Unlock+0x38>)
 8005096:	4a09      	ldr	r2, [pc, #36]	@ (80050bc <HAL_FLASH_Unlock+0x40>)
 8005098:	609a      	str	r2, [r3, #8]

    /* Verify Flash is unlocked */
    if(READ_BIT(FLASH->CR, FLASH_CR_LOCK) != 0U)
 800509a:	4b06      	ldr	r3, [pc, #24]	@ (80050b4 <HAL_FLASH_Unlock+0x38>)
 800509c:	695b      	ldr	r3, [r3, #20]
 800509e:	2b00      	cmp	r3, #0
 80050a0:	da01      	bge.n	80050a6 <HAL_FLASH_Unlock+0x2a>
    {
      status = HAL_ERROR;
 80050a2:	2301      	movs	r3, #1
 80050a4:	71fb      	strb	r3, [r7, #7]
    }
  }

  return status;
 80050a6:	79fb      	ldrb	r3, [r7, #7]
}
 80050a8:	4618      	mov	r0, r3
 80050aa:	370c      	adds	r7, #12
 80050ac:	46bd      	mov	sp, r7
 80050ae:	f85d 7b04 	ldr.w	r7, [sp], #4
 80050b2:	4770      	bx	lr
 80050b4:	40022000 	.word	0x40022000
 80050b8:	45670123 	.word	0x45670123
 80050bc:	cdef89ab 	.word	0xcdef89ab

080050c0 <HAL_FLASH_Lock>:
/**
  * @brief  Lock the FLASH control register access.
  * @retval HAL Status
  */
HAL_StatusTypeDef HAL_FLASH_Lock(void)
{
 80050c0:	b480      	push	{r7}
 80050c2:	af00      	add	r7, sp, #0
  /* Set the LOCK Bit to lock the FLASH Registers access */
  SET_BIT(FLASH->CR, FLASH_CR_LOCK);
 80050c4:	4b05      	ldr	r3, [pc, #20]	@ (80050dc <HAL_FLASH_Lock+0x1c>)
 80050c6:	695b      	ldr	r3, [r3, #20]
 80050c8:	4a04      	ldr	r2, [pc, #16]	@ (80050dc <HAL_FLASH_Lock+0x1c>)
 80050ca:	f043 4300 	orr.w	r3, r3, #2147483648	@ 0x80000000
 80050ce:	6153      	str	r3, [r2, #20]

  return HAL_OK;
 80050d0:	2300      	movs	r3, #0
}
 80050d2:	4618      	mov	r0, r3
 80050d4:	46bd      	mov	sp, r7
 80050d6:	f85d 7b04 	ldr.w	r7, [sp], #4
 80050da:	4770      	bx	lr
 80050dc:	40022000 	.word	0x40022000

080050e0 <FLASH_WaitForLastOperation>:
  * @brief  Wait for a FLASH operation to complete.
  * @param  Timeout maximum flash operation timeout
  * @retval HAL_StatusTypeDef HAL Status
  */
HAL_StatusTypeDef FLASH_WaitForLastOperation(uint32_t Timeout)
{
 80050e0:	b580      	push	{r7, lr}
 80050e2:	b084      	sub	sp, #16
 80050e4:	af00      	add	r7, sp, #0
 80050e6:	6078      	str	r0, [r7, #4]
  /* Wait for the FLASH operation to complete by polling on BUSY flag to be reset.
     Even if the FLASH operation fails, the BUSY flag will be reset and an error
     flag will be set */

  uint32_t tickstart = HAL_GetTick();
 80050e8:	f7fe ff70 	bl	8003fcc <HAL_GetTick>
 80050ec:	60f8      	str	r0, [r7, #12]
  uint32_t error;

  while(__HAL_FLASH_GET_FLAG(FLASH_FLAG_BSY))
 80050ee:	e00d      	b.n	800510c <FLASH_WaitForLastOperation+0x2c>
  {
    if(Timeout != HAL_MAX_DELAY)
 80050f0:	687b      	ldr	r3, [r7, #4]
 80050f2:	f1b3 3fff 	cmp.w	r3, #4294967295
 80050f6:	d009      	beq.n	800510c <FLASH_WaitForLastOperation+0x2c>
    {
      if((HAL_GetTick() - tickstart) >= Timeout)
 80050f8:	f7fe ff68 	bl	8003fcc <HAL_GetTick>
 80050fc:	4602      	mov	r2, r0
 80050fe:	68fb      	ldr	r3, [r7, #12]
 8005100:	1ad3      	subs	r3, r2, r3
 8005102:	687a      	ldr	r2, [r7, #4]
 8005104:	429a      	cmp	r2, r3
 8005106:	d801      	bhi.n	800510c <FLASH_WaitForLastOperation+0x2c>
      {
        return HAL_TIMEOUT;
 8005108:	2303      	movs	r3, #3
 800510a:	e035      	b.n	8005178 <FLASH_WaitForLastOperation+0x98>
  while(__HAL_FLASH_GET_FLAG(FLASH_FLAG_BSY))
 800510c:	4b1c      	ldr	r3, [pc, #112]	@ (8005180 <FLASH_WaitForLastOperation+0xa0>)
 800510e:	691b      	ldr	r3, [r3, #16]
 8005110:	f403 3380 	and.w	r3, r3, #65536	@ 0x10000
 8005114:	2b00      	cmp	r3, #0
 8005116:	d1eb      	bne.n	80050f0 <FLASH_WaitForLastOperation+0x10>
      }
    }
  }

  error = (FLASH->SR & FLASH_FLAG_SR_ERRORS);
 8005118:	4b19      	ldr	r3, [pc, #100]	@ (8005180 <FLASH_WaitForLastOperation+0xa0>)
 800511a:	691a      	ldr	r2, [r3, #16]
 800511c:	4b19      	ldr	r3, [pc, #100]	@ (8005184 <FLASH_WaitForLastOperation+0xa4>)
 800511e:	4013      	ands	r3, r2
 8005120:	60bb      	str	r3, [r7, #8]

  if(error != 0u)
 8005122:	68bb      	ldr	r3, [r7, #8]
 8005124:	2b00      	cmp	r3, #0
 8005126:	d01d      	beq.n	8005164 <FLASH_WaitForLastOperation+0x84>
  {
    /*Save the error code*/
    pFlash.ErrorCode |= error;
 8005128:	4b17      	ldr	r3, [pc, #92]	@ (8005188 <FLASH_WaitForLastOperation+0xa8>)
 800512a:	685a      	ldr	r2, [r3, #4]
 800512c:	68bb      	ldr	r3, [r7, #8]
 800512e:	4313      	orrs	r3, r2
 8005130:	4a15      	ldr	r2, [pc, #84]	@ (8005188 <FLASH_WaitForLastOperation+0xa8>)
 8005132:	6053      	str	r3, [r2, #4]

    /* Clear error programming flags */
    __HAL_FLASH_CLEAR_FLAG(error);
 8005134:	68bb      	ldr	r3, [r7, #8]
 8005136:	f1b3 4f80 	cmp.w	r3, #1073741824	@ 0x40000000
 800513a:	d307      	bcc.n	800514c <FLASH_WaitForLastOperation+0x6c>
 800513c:	4b10      	ldr	r3, [pc, #64]	@ (8005180 <FLASH_WaitForLastOperation+0xa0>)
 800513e:	699a      	ldr	r2, [r3, #24]
 8005140:	68bb      	ldr	r3, [r7, #8]
 8005142:	f003 4340 	and.w	r3, r3, #3221225472	@ 0xc0000000
 8005146:	490e      	ldr	r1, [pc, #56]	@ (8005180 <FLASH_WaitForLastOperation+0xa0>)
 8005148:	4313      	orrs	r3, r2
 800514a:	618b      	str	r3, [r1, #24]
 800514c:	68bb      	ldr	r3, [r7, #8]
 800514e:	f023 4340 	bic.w	r3, r3, #3221225472	@ 0xc0000000
 8005152:	2b00      	cmp	r3, #0
 8005154:	d004      	beq.n	8005160 <FLASH_WaitForLastOperation+0x80>
 8005156:	4a0a      	ldr	r2, [pc, #40]	@ (8005180 <FLASH_WaitForLastOperation+0xa0>)
 8005158:	68bb      	ldr	r3, [r7, #8]
 800515a:	f023 4340 	bic.w	r3, r3, #3221225472	@ 0xc0000000
 800515e:	6113      	str	r3, [r2, #16]

    return HAL_ERROR;
 8005160:	2301      	movs	r3, #1
 8005162:	e009      	b.n	8005178 <FLASH_WaitForLastOperation+0x98>
  }

  /* Check FLASH End of Operation flag  */
  if (__HAL_FLASH_GET_FLAG(FLASH_FLAG_EOP))
 8005164:	4b06      	ldr	r3, [pc, #24]	@ (8005180 <FLASH_WaitForLastOperation+0xa0>)
 8005166:	691b      	ldr	r3, [r3, #16]
 8005168:	f003 0301 	and.w	r3, r3, #1
 800516c:	2b00      	cmp	r3, #0
 800516e:	d002      	beq.n	8005176 <FLASH_WaitForLastOperation+0x96>
  {
    /* Clear FLASH End of Operation pending bit */
    __HAL_FLASH_CLEAR_FLAG(FLASH_FLAG_EOP);
 8005170:	4b03      	ldr	r3, [pc, #12]	@ (8005180 <FLASH_WaitForLastOperation+0xa0>)
 8005172:	2201      	movs	r2, #1
 8005174:	611a      	str	r2, [r3, #16]
  }

  /* If there is an error flag set */
  return HAL_OK;
 8005176:	2300      	movs	r3, #0
}
 8005178:	4618      	mov	r0, r3
 800517a:	3710      	adds	r7, #16
 800517c:	46bd      	mov	sp, r7
 800517e:	bd80      	pop	{r7, pc}
 8005180:	40022000 	.word	0x40022000
 8005184:	0002c3fa 	.word	0x0002c3fa
 8005188:	2000000c 	.word	0x2000000c

0800518c <FLASH_Program_DoubleWord>:
  * @param  Address specifies the address to be programmed.
  * @param  Data specifies the data to be programmed.
  * @retval None
  */
static void FLASH_Program_DoubleWord(uint32_t Address, uint64_t Data)
{
 800518c:	b480      	push	{r7}
 800518e:	b085      	sub	sp, #20
 8005190:	af00      	add	r7, sp, #0
 8005192:	60f8      	str	r0, [r7, #12]
 8005194:	e9c7 2300 	strd	r2, r3, [r7]
  /* Check the parameters */
  assert_param(IS_FLASH_PROGRAM_ADDRESS(Address));

  /* Set PG bit */
  SET_BIT(FLASH->CR, FLASH_CR_PG);
 8005198:	4b0e      	ldr	r3, [pc, #56]	@ (80051d4 <FLASH_Program_DoubleWord+0x48>)
 800519a:	695b      	ldr	r3, [r3, #20]
 800519c:	4a0d      	ldr	r2, [pc, #52]	@ (80051d4 <FLASH_Program_DoubleWord+0x48>)
 800519e:	f043 0301 	orr.w	r3, r3, #1
 80051a2:	6153      	str	r3, [r2, #20]

  /* Program first word */
  *(__IO uint32_t*)Address = (uint32_t)Data;
 80051a4:	68fb      	ldr	r3, [r7, #12]
 80051a6:	683a      	ldr	r2, [r7, #0]
 80051a8:	601a      	str	r2, [r3, #0]
           so that all instructions following the ISB are fetched from cache or memory,
           after the instruction has been completed.
 */
__STATIC_FORCEINLINE void __ISB(void)
{
  __ASM volatile ("isb 0xF":::"memory");
 80051aa:	f3bf 8f6f 	isb	sy
}
 80051ae:	bf00      	nop
  /* Barrier to ensure programming is performed in 2 steps, in right order
    (independently of compiler optimization behavior) */
  __ISB();

  /* Program second word */
  *(__IO uint32_t*)(Address+4U) = (uint32_t)(Data >> 32);
 80051b0:	e9d7 0100 	ldrd	r0, r1, [r7]
 80051b4:	f04f 0200 	mov.w	r2, #0
 80051b8:	f04f 0300 	mov.w	r3, #0
 80051bc:	000a      	movs	r2, r1
 80051be:	2300      	movs	r3, #0
 80051c0:	68f9      	ldr	r1, [r7, #12]
 80051c2:	3104      	adds	r1, #4
 80051c4:	4613      	mov	r3, r2
 80051c6:	600b      	str	r3, [r1, #0]
}
 80051c8:	bf00      	nop
 80051ca:	3714      	adds	r7, #20
 80051cc:	46bd      	mov	sp, r7
 80051ce:	f85d 7b04 	ldr.w	r7, [sp], #4
 80051d2:	4770      	bx	lr
 80051d4:	40022000 	.word	0x40022000

080051d8 <FLASH_Program_Fast>:
  * @param  Address specifies the address to be programmed.
  * @param  DataAddress specifies the address where the data are stored.
  * @retval None
  */
static void FLASH_Program_Fast(uint32_t Address, uint32_t DataAddress)
{
 80051d8:	b480      	push	{r7}
 80051da:	b089      	sub	sp, #36	@ 0x24
 80051dc:	af00      	add	r7, sp, #0
 80051de:	6078      	str	r0, [r7, #4]
 80051e0:	6039      	str	r1, [r7, #0]
  uint32_t primask_bit;
  uint8_t row_index = (2*FLASH_NB_DOUBLE_WORDS_IN_ROW);
 80051e2:	2340      	movs	r3, #64	@ 0x40
 80051e4:	77fb      	strb	r3, [r7, #31]
  __IO uint32_t *dest_addr = (__IO uint32_t*)Address;
 80051e6:	687b      	ldr	r3, [r7, #4]
 80051e8:	61bb      	str	r3, [r7, #24]
  __IO uint32_t *src_addr = (__IO uint32_t*)DataAddress;
 80051ea:	683b      	ldr	r3, [r7, #0]
 80051ec:	617b      	str	r3, [r7, #20]

  /* Check the parameters */
  assert_param(IS_FLASH_MAIN_MEM_ADDRESS(Address));

  /* Set FSTPG bit */
  SET_BIT(FLASH->CR, FLASH_CR_FSTPG);
 80051ee:	4b14      	ldr	r3, [pc, #80]	@ (8005240 <FLASH_Program_Fast+0x68>)
 80051f0:	695b      	ldr	r3, [r3, #20]
 80051f2:	4a13      	ldr	r2, [pc, #76]	@ (8005240 <FLASH_Program_Fast+0x68>)
 80051f4:	f443 2380 	orr.w	r3, r3, #262144	@ 0x40000
 80051f8:	6153      	str	r3, [r2, #20]
  __ASM volatile ("MRS %0, primask" : "=r" (result) :: "memory");
 80051fa:	f3ef 8310 	mrs	r3, PRIMASK
 80051fe:	60fb      	str	r3, [r7, #12]
  return(result);
 8005200:	68fb      	ldr	r3, [r7, #12]

  /* Disable interrupts to avoid any interruption during the loop */
  primask_bit = __get_PRIMASK();
 8005202:	613b      	str	r3, [r7, #16]
  __ASM volatile ("cpsid i" : : : "memory");
 8005204:	b672      	cpsid	i
}
 8005206:	bf00      	nop
  __disable_irq();

  /* Program the double word of the row */
  do
  {
    *dest_addr = *src_addr;
 8005208:	697b      	ldr	r3, [r7, #20]
 800520a:	681a      	ldr	r2, [r3, #0]
 800520c:	69bb      	ldr	r3, [r7, #24]
 800520e:	601a      	str	r2, [r3, #0]
    dest_addr++;
 8005210:	69bb      	ldr	r3, [r7, #24]
 8005212:	3304      	adds	r3, #4
 8005214:	61bb      	str	r3, [r7, #24]
    src_addr++;
 8005216:	697b      	ldr	r3, [r7, #20]
 8005218:	3304      	adds	r3, #4
 800521a:	617b      	str	r3, [r7, #20]
    row_index--;
 800521c:	7ffb      	ldrb	r3, [r7, #31]
 800521e:	3b01      	subs	r3, #1
 8005220:	77fb      	strb	r3, [r7, #31]
  } while (row_index != 0U);
 8005222:	7ffb      	ldrb	r3, [r7, #31]
 8005224:	2b00      	cmp	r3, #0
 8005226:	d1ef      	bne.n	8005208 <FLASH_Program_Fast+0x30>
 8005228:	693b      	ldr	r3, [r7, #16]
 800522a:	60bb      	str	r3, [r7, #8]
  __ASM volatile ("MSR primask, %0" : : "r" (priMask) : "memory");
 800522c:	68bb      	ldr	r3, [r7, #8]
 800522e:	f383 8810 	msr	PRIMASK, r3
}
 8005232:	bf00      	nop

  /* Re-enable the interrupts */
  __set_PRIMASK(primask_bit);
}
 8005234:	bf00      	nop
 8005236:	3724      	adds	r7, #36	@ 0x24
 8005238:	46bd      	mov	sp, r7
 800523a:	f85d 7b04 	ldr.w	r7, [sp], #4
 800523e:	4770      	bx	lr
 8005240:	40022000 	.word	0x40022000

08005244 <HAL_FLASHEx_Erase>:
  *         the pages have been correctly erased)
  *
  * @retval HAL Status
  */
HAL_StatusTypeDef HAL_FLASHEx_Erase(FLASH_EraseInitTypeDef *pEraseInit, uint32_t *PageError)
{
 8005244:	b580      	push	{r7, lr}
 8005246:	b084      	sub	sp, #16
 8005248:	af00      	add	r7, sp, #0
 800524a:	6078      	str	r0, [r7, #4]
 800524c:	6039      	str	r1, [r7, #0]
  HAL_StatusTypeDef status;
  uint32_t page_index;

  /* Process Locked */
  __HAL_LOCK(&pFlash);
 800524e:	4b48      	ldr	r3, [pc, #288]	@ (8005370 <HAL_FLASHEx_Erase+0x12c>)
 8005250:	781b      	ldrb	r3, [r3, #0]
 8005252:	2b01      	cmp	r3, #1
 8005254:	d101      	bne.n	800525a <HAL_FLASHEx_Erase+0x16>
 8005256:	2302      	movs	r3, #2
 8005258:	e085      	b.n	8005366 <HAL_FLASHEx_Erase+0x122>
 800525a:	4b45      	ldr	r3, [pc, #276]	@ (8005370 <HAL_FLASHEx_Erase+0x12c>)
 800525c:	2201      	movs	r2, #1
 800525e:	701a      	strb	r2, [r3, #0]

  /* Check the parameters */
  assert_param(IS_FLASH_TYPEERASE(pEraseInit->TypeErase));

  /* Wait for last operation to be completed */
  status = FLASH_WaitForLastOperation((uint32_t)FLASH_TIMEOUT_VALUE);
 8005260:	f24c 3050 	movw	r0, #50000	@ 0xc350
 8005264:	f7ff ff3c 	bl	80050e0 <FLASH_WaitForLastOperation>
 8005268:	4603      	mov	r3, r0
 800526a:	73fb      	strb	r3, [r7, #15]

  if (status == HAL_OK)
 800526c:	7bfb      	ldrb	r3, [r7, #15]
 800526e:	2b00      	cmp	r3, #0
 8005270:	d175      	bne.n	800535e <HAL_FLASHEx_Erase+0x11a>
  {
    pFlash.ErrorCode = HAL_FLASH_ERROR_NONE;
 8005272:	4b3f      	ldr	r3, [pc, #252]	@ (8005370 <HAL_FLASHEx_Erase+0x12c>)
 8005274:	2200      	movs	r2, #0
 8005276:	605a      	str	r2, [r3, #4]

    /* Deactivate the cache if they are activated to avoid data misbehavior */
    if(READ_BIT(FLASH->ACR, FLASH_ACR_ICEN) != 0U)
 8005278:	4b3e      	ldr	r3, [pc, #248]	@ (8005374 <HAL_FLASHEx_Erase+0x130>)
 800527a:	681b      	ldr	r3, [r3, #0]
 800527c:	f403 7300 	and.w	r3, r3, #512	@ 0x200
 8005280:	2b00      	cmp	r3, #0
 8005282:	d013      	beq.n	80052ac <HAL_FLASHEx_Erase+0x68>
    {
      if(READ_BIT(FLASH->ACR, FLASH_ACR_DCEN) != 0U)
 8005284:	4b3b      	ldr	r3, [pc, #236]	@ (8005374 <HAL_FLASHEx_Erase+0x130>)
 8005286:	681b      	ldr	r3, [r3, #0]
 8005288:	f403 6380 	and.w	r3, r3, #1024	@ 0x400
 800528c:	2b00      	cmp	r3, #0
 800528e:	d009      	beq.n	80052a4 <HAL_FLASHEx_Erase+0x60>
      {
        /* Disable data cache  */
        __HAL_FLASH_DATA_CACHE_DISABLE();
 8005290:	4b38      	ldr	r3, [pc, #224]	@ (8005374 <HAL_FLASHEx_Erase+0x130>)
 8005292:	681b      	ldr	r3, [r3, #0]
 8005294:	4a37      	ldr	r2, [pc, #220]	@ (8005374 <HAL_FLASHEx_Erase+0x130>)
 8005296:	f423 6380 	bic.w	r3, r3, #1024	@ 0x400
 800529a:	6013      	str	r3, [r2, #0]
        pFlash.CacheToReactivate = FLASH_CACHE_ICACHE_DCACHE_ENABLED;
 800529c:	4b34      	ldr	r3, [pc, #208]	@ (8005370 <HAL_FLASHEx_Erase+0x12c>)
 800529e:	2203      	movs	r2, #3
 80052a0:	771a      	strb	r2, [r3, #28]
 80052a2:	e016      	b.n	80052d2 <HAL_FLASHEx_Erase+0x8e>
      }
      else
      {
        pFlash.CacheToReactivate = FLASH_CACHE_ICACHE_ENABLED;
 80052a4:	4b32      	ldr	r3, [pc, #200]	@ (8005370 <HAL_FLASHEx_Erase+0x12c>)
 80052a6:	2201      	movs	r2, #1
 80052a8:	771a      	strb	r2, [r3, #28]
 80052aa:	e012      	b.n	80052d2 <HAL_FLASHEx_Erase+0x8e>
      }
    }
    else if(READ_BIT(FLASH->ACR, FLASH_ACR_DCEN) != 0U)
 80052ac:	4b31      	ldr	r3, [pc, #196]	@ (8005374 <HAL_FLASHEx_Erase+0x130>)
 80052ae:	681b      	ldr	r3, [r3, #0]
 80052b0:	f403 6380 	and.w	r3, r3, #1024	@ 0x400
 80052b4:	2b00      	cmp	r3, #0
 80052b6:	d009      	beq.n	80052cc <HAL_FLASHEx_Erase+0x88>
    {
      /* Disable data cache  */
      __HAL_FLASH_DATA_CACHE_DISABLE();
 80052b8:	4b2e      	ldr	r3, [pc, #184]	@ (8005374 <HAL_FLASHEx_Erase+0x130>)
 80052ba:	681b      	ldr	r3, [r3, #0]
 80052bc:	4a2d      	ldr	r2, [pc, #180]	@ (8005374 <HAL_FLASHEx_Erase+0x130>)
 80052be:	f423 6380 	bic.w	r3, r3, #1024	@ 0x400
 80052c2:	6013      	str	r3, [r2, #0]
      pFlash.CacheToReactivate = FLASH_CACHE_DCACHE_ENABLED;
 80052c4:	4b2a      	ldr	r3, [pc, #168]	@ (8005370 <HAL_FLASHEx_Erase+0x12c>)
 80052c6:	2202      	movs	r2, #2
 80052c8:	771a      	strb	r2, [r3, #28]
 80052ca:	e002      	b.n	80052d2 <HAL_FLASHEx_Erase+0x8e>
    }
    else
    {
      pFlash.CacheToReactivate = FLASH_CACHE_DISABLED;
 80052cc:	4b28      	ldr	r3, [pc, #160]	@ (8005370 <HAL_FLASHEx_Erase+0x12c>)
 80052ce:	2200      	movs	r2, #0
 80052d0:	771a      	strb	r2, [r3, #28]
    }

    if (pEraseInit->TypeErase == FLASH_TYPEERASE_MASSERASE)
 80052d2:	687b      	ldr	r3, [r7, #4]
 80052d4:	681b      	ldr	r3, [r3, #0]
 80052d6:	2b01      	cmp	r3, #1
 80052d8:	d111      	bne.n	80052fe <HAL_FLASHEx_Erase+0xba>
    {
      /* Mass erase to be done */
      FLASH_MassErase(pEraseInit->Banks);
 80052da:	687b      	ldr	r3, [r7, #4]
 80052dc:	685b      	ldr	r3, [r3, #4]
 80052de:	4618      	mov	r0, r3
 80052e0:	f000 f84a 	bl	8005378 <FLASH_MassErase>

      /* Wait for last operation to be completed */
      status = FLASH_WaitForLastOperation((uint32_t)FLASH_TIMEOUT_VALUE);
 80052e4:	f24c 3050 	movw	r0, #50000	@ 0xc350
 80052e8:	f7ff fefa 	bl	80050e0 <FLASH_WaitForLastOperation>
 80052ec:	4603      	mov	r3, r0
 80052ee:	73fb      	strb	r3, [r7, #15]
    defined (STM32L4R5xx) || defined (STM32L4R7xx) || defined (STM32L4R9xx) || defined (STM32L4S5xx) || defined (STM32L4S7xx) || defined (STM32L4S9xx)
      /* If the erase operation is completed, disable the MER1 and MER2 Bits */
      CLEAR_BIT(FLASH->CR, (FLASH_CR_MER1 | FLASH_CR_MER2));
#else
      /* If the erase operation is completed, disable the MER1 Bit */
      CLEAR_BIT(FLASH->CR, (FLASH_CR_MER1));
 80052f0:	4b20      	ldr	r3, [pc, #128]	@ (8005374 <HAL_FLASHEx_Erase+0x130>)
 80052f2:	695b      	ldr	r3, [r3, #20]
 80052f4:	4a1f      	ldr	r2, [pc, #124]	@ (8005374 <HAL_FLASHEx_Erase+0x130>)
 80052f6:	f023 0304 	bic.w	r3, r3, #4
 80052fa:	6153      	str	r3, [r2, #20]
 80052fc:	e02d      	b.n	800535a <HAL_FLASHEx_Erase+0x116>
#endif
    }
    else
    {
      /*Initialization of PageError variable*/
      *PageError = 0xFFFFFFFFU;
 80052fe:	683b      	ldr	r3, [r7, #0]
 8005300:	f04f 32ff 	mov.w	r2, #4294967295
 8005304:	601a      	str	r2, [r3, #0]

      for(page_index = pEraseInit->Page; page_index < (pEraseInit->Page + pEraseInit->NbPages); page_index++)
 8005306:	687b      	ldr	r3, [r7, #4]
 8005308:	689b      	ldr	r3, [r3, #8]
 800530a:	60bb      	str	r3, [r7, #8]
 800530c:	e01d      	b.n	800534a <HAL_FLASHEx_Erase+0x106>
      {
        FLASH_PageErase(page_index, pEraseInit->Banks);
 800530e:	687b      	ldr	r3, [r7, #4]
 8005310:	685b      	ldr	r3, [r3, #4]
 8005312:	4619      	mov	r1, r3
 8005314:	68b8      	ldr	r0, [r7, #8]
 8005316:	f000 f84d 	bl	80053b4 <FLASH_PageErase>

        /* Wait for last operation to be completed */
        status = FLASH_WaitForLastOperation((uint32_t)FLASH_TIMEOUT_VALUE);
 800531a:	f24c 3050 	movw	r0, #50000	@ 0xc350
 800531e:	f7ff fedf 	bl	80050e0 <FLASH_WaitForLastOperation>
 8005322:	4603      	mov	r3, r0
 8005324:	73fb      	strb	r3, [r7, #15]

        /* If the erase operation is completed, disable the PER Bit */
        CLEAR_BIT(FLASH->CR, (FLASH_CR_PER | FLASH_CR_PNB));
 8005326:	4b13      	ldr	r3, [pc, #76]	@ (8005374 <HAL_FLASHEx_Erase+0x130>)
 8005328:	695b      	ldr	r3, [r3, #20]
 800532a:	4a12      	ldr	r2, [pc, #72]	@ (8005374 <HAL_FLASHEx_Erase+0x130>)
 800532c:	f423 737e 	bic.w	r3, r3, #1016	@ 0x3f8
 8005330:	f023 0302 	bic.w	r3, r3, #2
 8005334:	6153      	str	r3, [r2, #20]

        if (status != HAL_OK)
 8005336:	7bfb      	ldrb	r3, [r7, #15]
 8005338:	2b00      	cmp	r3, #0
 800533a:	d003      	beq.n	8005344 <HAL_FLASHEx_Erase+0x100>
        {
          /* In case of error, stop erase procedure and return the faulty address */
          *PageError = page_index;
 800533c:	683b      	ldr	r3, [r7, #0]
 800533e:	68ba      	ldr	r2, [r7, #8]
 8005340:	601a      	str	r2, [r3, #0]
          break;
 8005342:	e00a      	b.n	800535a <HAL_FLASHEx_Erase+0x116>
      for(page_index = pEraseInit->Page; page_index < (pEraseInit->Page + pEraseInit->NbPages); page_index++)
 8005344:	68bb      	ldr	r3, [r7, #8]
 8005346:	3301      	adds	r3, #1
 8005348:	60bb      	str	r3, [r7, #8]
 800534a:	687b      	ldr	r3, [r7, #4]
 800534c:	689a      	ldr	r2, [r3, #8]
 800534e:	687b      	ldr	r3, [r7, #4]
 8005350:	68db      	ldr	r3, [r3, #12]
 8005352:	4413      	add	r3, r2
 8005354:	68ba      	ldr	r2, [r7, #8]
 8005356:	429a      	cmp	r2, r3
 8005358:	d3d9      	bcc.n	800530e <HAL_FLASHEx_Erase+0xca>
        }
      }
    }

    /* Flush the caches to be sure of the data consistency */
    FLASH_FlushCaches();
 800535a:	f000 f84f 	bl	80053fc <FLASH_FlushCaches>
  }

  /* Process Unlocked */
  __HAL_UNLOCK(&pFlash);
 800535e:	4b04      	ldr	r3, [pc, #16]	@ (8005370 <HAL_FLASHEx_Erase+0x12c>)
 8005360:	2200      	movs	r2, #0
 8005362:	701a      	strb	r2, [r3, #0]

  return status;
 8005364:	7bfb      	ldrb	r3, [r7, #15]
}
 8005366:	4618      	mov	r0, r3
 8005368:	3710      	adds	r7, #16
 800536a:	46bd      	mov	sp, r7
 800536c:	bd80      	pop	{r7, pc}
 800536e:	bf00      	nop
 8005370:	2000000c 	.word	0x2000000c
 8005374:	40022000 	.word	0x40022000

08005378 <FLASH_MassErase>:
  *            @arg FLASH_BANK_2: Bank2 to be erased
  *            @arg FLASH_BANK_BOTH: Bank1 and Bank2 to be erased
  * @retval None
  */
static void FLASH_MassErase(uint32_t Banks)
{
 8005378:	b480      	push	{r7}
 800537a:	b083      	sub	sp, #12
 800537c:	af00      	add	r7, sp, #0
 800537e:	6078      	str	r0, [r7, #4]
  {
    /* Check the parameters */
    assert_param(IS_FLASH_BANK(Banks));

    /* Set the Mass Erase Bit for the bank 1 if requested */
    if((Banks & FLASH_BANK_1) != 0U)
 8005380:	687b      	ldr	r3, [r7, #4]
 8005382:	f003 0301 	and.w	r3, r3, #1
 8005386:	2b00      	cmp	r3, #0
 8005388:	d005      	beq.n	8005396 <FLASH_MassErase+0x1e>
    {
      SET_BIT(FLASH->CR, FLASH_CR_MER1);
 800538a:	4b09      	ldr	r3, [pc, #36]	@ (80053b0 <FLASH_MassErase+0x38>)
 800538c:	695b      	ldr	r3, [r3, #20]
 800538e:	4a08      	ldr	r2, [pc, #32]	@ (80053b0 <FLASH_MassErase+0x38>)
 8005390:	f043 0304 	orr.w	r3, r3, #4
 8005394:	6153      	str	r3, [r2, #20]
    SET_BIT(FLASH->CR, (FLASH_CR_MER1 | FLASH_CR_MER2));
  }
#endif

  /* Proceed to erase all sectors */
  SET_BIT(FLASH->CR, FLASH_CR_STRT);
 8005396:	4b06      	ldr	r3, [pc, #24]	@ (80053b0 <FLASH_MassErase+0x38>)
 8005398:	695b      	ldr	r3, [r3, #20]
 800539a:	4a05      	ldr	r2, [pc, #20]	@ (80053b0 <FLASH_MassErase+0x38>)
 800539c:	f443 3380 	orr.w	r3, r3, #65536	@ 0x10000
 80053a0:	6153      	str	r3, [r2, #20]
}
 80053a2:	bf00      	nop
 80053a4:	370c      	adds	r7, #12
 80053a6:	46bd      	mov	sp, r7
 80053a8:	f85d 7b04 	ldr.w	r7, [sp], #4
 80053ac:	4770      	bx	lr
 80053ae:	bf00      	nop
 80053b0:	40022000 	.word	0x40022000

080053b4 <FLASH_PageErase>:
  *            @arg FLASH_BANK_1: Page in bank 1 to be erased
  *            @arg FLASH_BANK_2: Page in bank 2 to be erased
  * @retval None
  */
void FLASH_PageErase(uint32_t Page, uint32_t Banks)
{
 80053b4:	b480      	push	{r7}
 80053b6:	b083      	sub	sp, #12
 80053b8:	af00      	add	r7, sp, #0
 80053ba:	6078      	str	r0, [r7, #4]
 80053bc:	6039      	str	r1, [r7, #0]
  /* Prevent unused argument(s) compilation warning */
  UNUSED(Banks);
#endif

  /* Proceed to erase the page */
  MODIFY_REG(FLASH->CR, FLASH_CR_PNB, ((Page & 0xFFU) << FLASH_CR_PNB_Pos));
 80053be:	4b0e      	ldr	r3, [pc, #56]	@ (80053f8 <FLASH_PageErase+0x44>)
 80053c0:	695b      	ldr	r3, [r3, #20]
 80053c2:	f423 727e 	bic.w	r2, r3, #1016	@ 0x3f8
 80053c6:	687b      	ldr	r3, [r7, #4]
 80053c8:	00db      	lsls	r3, r3, #3
 80053ca:	f403 63ff 	and.w	r3, r3, #2040	@ 0x7f8
 80053ce:	490a      	ldr	r1, [pc, #40]	@ (80053f8 <FLASH_PageErase+0x44>)
 80053d0:	4313      	orrs	r3, r2
 80053d2:	614b      	str	r3, [r1, #20]
  SET_BIT(FLASH->CR, FLASH_CR_PER);
 80053d4:	4b08      	ldr	r3, [pc, #32]	@ (80053f8 <FLASH_PageErase+0x44>)
 80053d6:	695b      	ldr	r3, [r3, #20]
 80053d8:	4a07      	ldr	r2, [pc, #28]	@ (80053f8 <FLASH_PageErase+0x44>)
 80053da:	f043 0302 	orr.w	r3, r3, #2
 80053de:	6153      	str	r3, [r2, #20]
  SET_BIT(FLASH->CR, FLASH_CR_STRT);
 80053e0:	4b05      	ldr	r3, [pc, #20]	@ (80053f8 <FLASH_PageErase+0x44>)
 80053e2:	695b      	ldr	r3, [r3, #20]
 80053e4:	4a04      	ldr	r2, [pc, #16]	@ (80053f8 <FLASH_PageErase+0x44>)
 80053e6:	f443 3380 	orr.w	r3, r3, #65536	@ 0x10000
 80053ea:	6153      	str	r3, [r2, #20]
}
 80053ec:	bf00      	nop
 80053ee:	370c      	adds	r7, #12
 80053f0:	46bd      	mov	sp, r7
 80053f2:	f85d 7b04 	ldr.w	r7, [sp], #4
 80053f6:	4770      	bx	lr
 80053f8:	40022000 	.word	0x40022000

080053fc <FLASH_FlushCaches>:
/**
  * @brief  Flush the instruction and data caches.
  * @retval None
  */
void FLASH_FlushCaches(void)
{
 80053fc:	b480      	push	{r7}
 80053fe:	b083      	sub	sp, #12
 8005400:	af00      	add	r7, sp, #0
  FLASH_CacheTypeDef cache = pFlash.CacheToReactivate;
 8005402:	4b21      	ldr	r3, [pc, #132]	@ (8005488 <FLASH_FlushCaches+0x8c>)
 8005404:	7f1b      	ldrb	r3, [r3, #28]
 8005406:	71fb      	strb	r3, [r7, #7]

  /* Flush instruction cache  */
  if((cache == FLASH_CACHE_ICACHE_ENABLED) ||
 8005408:	79fb      	ldrb	r3, [r7, #7]
 800540a:	2b01      	cmp	r3, #1
 800540c:	d002      	beq.n	8005414 <FLASH_FlushCaches+0x18>
 800540e:	79fb      	ldrb	r3, [r7, #7]
 8005410:	2b03      	cmp	r3, #3
 8005412:	d117      	bne.n	8005444 <FLASH_FlushCaches+0x48>
     (cache == FLASH_CACHE_ICACHE_DCACHE_ENABLED))
  {
    /* Disable instruction cache */
    __HAL_FLASH_INSTRUCTION_CACHE_DISABLE();
 8005414:	4b1d      	ldr	r3, [pc, #116]	@ (800548c <FLASH_FlushCaches+0x90>)
 8005416:	681b      	ldr	r3, [r3, #0]
 8005418:	4a1c      	ldr	r2, [pc, #112]	@ (800548c <FLASH_FlushCaches+0x90>)
 800541a:	f423 7300 	bic.w	r3, r3, #512	@ 0x200
 800541e:	6013      	str	r3, [r2, #0]
    /* Reset instruction cache */
    __HAL_FLASH_INSTRUCTION_CACHE_RESET();
 8005420:	4b1a      	ldr	r3, [pc, #104]	@ (800548c <FLASH_FlushCaches+0x90>)
 8005422:	681b      	ldr	r3, [r3, #0]
 8005424:	4a19      	ldr	r2, [pc, #100]	@ (800548c <FLASH_FlushCaches+0x90>)
 8005426:	f443 6300 	orr.w	r3, r3, #2048	@ 0x800
 800542a:	6013      	str	r3, [r2, #0]
 800542c:	4b17      	ldr	r3, [pc, #92]	@ (800548c <FLASH_FlushCaches+0x90>)
 800542e:	681b      	ldr	r3, [r3, #0]
 8005430:	4a16      	ldr	r2, [pc, #88]	@ (800548c <FLASH_FlushCaches+0x90>)
 8005432:	f423 6300 	bic.w	r3, r3, #2048	@ 0x800
 8005436:	6013      	str	r3, [r2, #0]
    /* Enable instruction cache */
    __HAL_FLASH_INSTRUCTION_CACHE_ENABLE();
 8005438:	4b14      	ldr	r3, [pc, #80]	@ (800548c <FLASH_FlushCaches+0x90>)
 800543a:	681b      	ldr	r3, [r3, #0]
 800543c:	4a13      	ldr	r2, [pc, #76]	@ (800548c <FLASH_FlushCaches+0x90>)
 800543e:	f443 7300 	orr.w	r3, r3, #512	@ 0x200
 8005442:	6013      	str	r3, [r2, #0]
  }

  /* Flush data cache */
  if((cache == FLASH_CACHE_DCACHE_ENABLED) ||
 8005444:	79fb      	ldrb	r3, [r7, #7]
 8005446:	2b02      	cmp	r3, #2
 8005448:	d002      	beq.n	8005450 <FLASH_FlushCaches+0x54>
 800544a:	79fb      	ldrb	r3, [r7, #7]
 800544c:	2b03      	cmp	r3, #3
 800544e:	d111      	bne.n	8005474 <FLASH_FlushCaches+0x78>
     (cache == FLASH_CACHE_ICACHE_DCACHE_ENABLED))
  {
    /* Reset data cache */
    __HAL_FLASH_DATA_CACHE_RESET();
 8005450:	4b0e      	ldr	r3, [pc, #56]	@ (800548c <FLASH_FlushCaches+0x90>)
 8005452:	681b      	ldr	r3, [r3, #0]
 8005454:	4a0d      	ldr	r2, [pc, #52]	@ (800548c <FLASH_FlushCaches+0x90>)
 8005456:	f443 5380 	orr.w	r3, r3, #4096	@ 0x1000
 800545a:	6013      	str	r3, [r2, #0]
 800545c:	4b0b      	ldr	r3, [pc, #44]	@ (800548c <FLASH_FlushCaches+0x90>)
 800545e:	681b      	ldr	r3, [r3, #0]
 8005460:	4a0a      	ldr	r2, [pc, #40]	@ (800548c <FLASH_FlushCaches+0x90>)
 8005462:	f423 5380 	bic.w	r3, r3, #4096	@ 0x1000
 8005466:	6013      	str	r3, [r2, #0]
    /* Enable data cache */
    __HAL_FLASH_DATA_CACHE_ENABLE();
 8005468:	4b08      	ldr	r3, [pc, #32]	@ (800548c <FLASH_FlushCaches+0x90>)
 800546a:	681b      	ldr	r3, [r3, #0]
 800546c:	4a07      	ldr	r2, [pc, #28]	@ (800548c <FLASH_FlushCaches+0x90>)
 800546e:	f443 6380 	orr.w	r3, r3, #1024	@ 0x400
 8005472:	6013      	str	r3, [r2, #0]
  }

  /* Reset internal variable */
  pFlash.CacheToReactivate = FLASH_CACHE_DISABLED;
 8005474:	4b04      	ldr	r3, [pc, #16]	@ (8005488 <FLASH_FlushCaches+0x8c>)
 8005476:	2200      	movs	r2, #0
 8005478:	771a      	strb	r2, [r3, #28]
}
 800547a:	bf00      	nop
 800547c:	370c      	adds	r7, #12
 800547e:	46bd      	mov	sp, r7
 8005480:	f85d 7b04 	ldr.w	r7, [sp], #4
 8005484:	4770      	bx	lr
 8005486:	bf00      	nop
 8005488:	2000000c 	.word	0x2000000c
 800548c:	40022000 	.word	0x40022000

08005490 <HAL_GPIO_Init>:
  * @param  GPIO_Init pointer to a GPIO_InitTypeDef structure that contains
  *         the configuration information for the specified GPIO peripheral.
  * @retval None
  */
void HAL_GPIO_Init(GPIO_TypeDef  *GPIOx, GPIO_InitTypeDef *GPIO_Init)
{
 8005490:	b480      	push	{r7}
 8005492:	b087      	sub	sp, #28
 8005494:	af00      	add	r7, sp, #0
 8005496:	6078      	str	r0, [r7, #4]
 8005498:	6039      	str	r1, [r7, #0]
  uint32_t position = 0x00u;
 800549a:	2300      	movs	r3, #0
 800549c:	617b      	str	r3, [r7, #20]
  assert_param(IS_GPIO_ALL_INSTANCE(GPIOx));
  assert_param(IS_GPIO_PIN(GPIO_Init->Pin));
  assert_param(IS_GPIO_MODE(GPIO_Init->Mode));

  /* Configure the port pins */
  while (((GPIO_Init->Pin) >> position) != 0x00u)
 800549e:	e154      	b.n	800574a <HAL_GPIO_Init+0x2ba>
  {
    /* Get current io position */
    iocurrent = (GPIO_Init->Pin) & (1uL << position);
 80054a0:	683b      	ldr	r3, [r7, #0]
 80054a2:	681a      	ldr	r2, [r3, #0]
 80054a4:	2101      	movs	r1, #1
 80054a6:	697b      	ldr	r3, [r7, #20]
 80054a8:	fa01 f303 	lsl.w	r3, r1, r3
 80054ac:	4013      	ands	r3, r2
 80054ae:	60fb      	str	r3, [r7, #12]

    if (iocurrent != 0x00u)
 80054b0:	68fb      	ldr	r3, [r7, #12]
 80054b2:	2b00      	cmp	r3, #0
 80054b4:	f000 8146 	beq.w	8005744 <HAL_GPIO_Init+0x2b4>
    {
      /*--------------------- GPIO Mode Configuration ------------------------*/
      /* In case of Output or Alternate function mode selection */
      if (((GPIO_Init->Mode & GPIO_MODE) == MODE_OUTPUT) || ((GPIO_Init->Mode & GPIO_MODE) == MODE_AF))
 80054b8:	683b      	ldr	r3, [r7, #0]
 80054ba:	685b      	ldr	r3, [r3, #4]
 80054bc:	f003 0303 	and.w	r3, r3, #3
 80054c0:	2b01      	cmp	r3, #1
 80054c2:	d005      	beq.n	80054d0 <HAL_GPIO_Init+0x40>
 80054c4:	683b      	ldr	r3, [r7, #0]
 80054c6:	685b      	ldr	r3, [r3, #4]
 80054c8:	f003 0303 	and.w	r3, r3, #3
 80054cc:	2b02      	cmp	r3, #2
 80054ce:	d130      	bne.n	8005532 <HAL_GPIO_Init+0xa2>
      {
        /* Check the Speed parameter */
        assert_param(IS_GPIO_SPEED(GPIO_Init->Speed));

        /* Configure the IO Speed */
        temp = GPIOx->OSPEEDR;
 80054d0:	687b      	ldr	r3, [r7, #4]
 80054d2:	689b      	ldr	r3, [r3, #8]
 80054d4:	613b      	str	r3, [r7, #16]
        temp &= ~(GPIO_OSPEEDR_OSPEED0 << (position * 2u));
 80054d6:	697b      	ldr	r3, [r7, #20]
 80054d8:	005b      	lsls	r3, r3, #1
 80054da:	2203      	movs	r2, #3
 80054dc:	fa02 f303 	lsl.w	r3, r2, r3
 80054e0:	43db      	mvns	r3, r3
 80054e2:	693a      	ldr	r2, [r7, #16]
 80054e4:	4013      	ands	r3, r2
 80054e6:	613b      	str	r3, [r7, #16]
        temp |= (GPIO_Init->Speed << (position * 2u));
 80054e8:	683b      	ldr	r3, [r7, #0]
 80054ea:	68da      	ldr	r2, [r3, #12]
 80054ec:	697b      	ldr	r3, [r7, #20]
 80054ee:	005b      	lsls	r3, r3, #1
 80054f0:	fa02 f303 	lsl.w	r3, r2, r3
 80054f4:	693a      	ldr	r2, [r7, #16]
 80054f6:	4313      	orrs	r3, r2
 80054f8:	613b      	str	r3, [r7, #16]
        GPIOx->OSPEEDR = temp;
 80054fa:	687b      	ldr	r3, [r7, #4]
 80054fc:	693a      	ldr	r2, [r7, #16]
 80054fe:	609a      	str	r2, [r3, #8]

        /* Configure the IO Output Type */
        temp = GPIOx->OTYPER;
 8005500:	687b      	ldr	r3, [r7, #4]
 8005502:	685b      	ldr	r3, [r3, #4]
 8005504:	613b      	str	r3, [r7, #16]
        temp &= ~(GPIO_OTYPER_OT0 << position) ;
 8005506:	2201      	movs	r2, #1
 8005508:	697b      	ldr	r3, [r7, #20]
 800550a:	fa02 f303 	lsl.w	r3, r2, r3
 800550e:	43db      	mvns	r3, r3
 8005510:	693a      	ldr	r2, [r7, #16]
 8005512:	4013      	ands	r3, r2
 8005514:	613b      	str	r3, [r7, #16]
        temp |= (((GPIO_Init->Mode & OUTPUT_TYPE) >> OUTPUT_TYPE_Pos) << position);
 8005516:	683b      	ldr	r3, [r7, #0]
 8005518:	685b      	ldr	r3, [r3, #4]
 800551a:	091b      	lsrs	r3, r3, #4
 800551c:	f003 0201 	and.w	r2, r3, #1
 8005520:	697b      	ldr	r3, [r7, #20]
 8005522:	fa02 f303 	lsl.w	r3, r2, r3
 8005526:	693a      	ldr	r2, [r7, #16]
 8005528:	4313      	orrs	r3, r2
 800552a:	613b      	str	r3, [r7, #16]
        GPIOx->OTYPER = temp;
 800552c:	687b      	ldr	r3, [r7, #4]
 800552e:	693a      	ldr	r2, [r7, #16]
 8005530:	605a      	str	r2, [r3, #4]
      }

#endif /* STM32L471xx || STM32L475xx || STM32L476xx || STM32L485xx || STM32L486xx */

      /* Activate the Pull-up or Pull down resistor for the current IO */
      if ((GPIO_Init->Mode & GPIO_MODE) != MODE_ANALOG)
 8005532:	683b      	ldr	r3, [r7, #0]
 8005534:	685b      	ldr	r3, [r3, #4]
 8005536:	f003 0303 	and.w	r3, r3, #3
 800553a:	2b03      	cmp	r3, #3
 800553c:	d017      	beq.n	800556e <HAL_GPIO_Init+0xde>
      {
        /* Check the Pull parameter */
        assert_param(IS_GPIO_PULL(GPIO_Init->Pull));

        temp = GPIOx->PUPDR;
 800553e:	687b      	ldr	r3, [r7, #4]
 8005540:	68db      	ldr	r3, [r3, #12]
 8005542:	613b      	str	r3, [r7, #16]
        temp &= ~(GPIO_PUPDR_PUPD0 << (position * 2U));
 8005544:	697b      	ldr	r3, [r7, #20]
 8005546:	005b      	lsls	r3, r3, #1
 8005548:	2203      	movs	r2, #3
 800554a:	fa02 f303 	lsl.w	r3, r2, r3
 800554e:	43db      	mvns	r3, r3
 8005550:	693a      	ldr	r2, [r7, #16]
 8005552:	4013      	ands	r3, r2
 8005554:	613b      	str	r3, [r7, #16]
        temp |= ((GPIO_Init->Pull) << (position * 2U));
 8005556:	683b      	ldr	r3, [r7, #0]
 8005558:	689a      	ldr	r2, [r3, #8]
 800555a:	697b      	ldr	r3, [r7, #20]
 800555c:	005b      	lsls	r3, r3, #1
 800555e:	fa02 f303 	lsl.w	r3, r2, r3
 8005562:	693a      	ldr	r2, [r7, #16]
 8005564:	4313      	orrs	r3, r2
 8005566:	613b      	str	r3, [r7, #16]
        GPIOx->PUPDR = temp;
 8005568:	687b      	ldr	r3, [r7, #4]
 800556a:	693a      	ldr	r2, [r7, #16]
 800556c:	60da      	str	r2, [r3, #12]
      }

      /* In case of Alternate function mode selection */
      if ((GPIO_Init->Mode & GPIO_MODE) == MODE_AF)
 800556e:	683b      	ldr	r3, [r7, #0]
 8005570:	685b      	ldr	r3, [r3, #4]
 8005572:	f003 0303 	and.w	r3, r3, #3
 8005576:	2b02      	cmp	r3, #2
 8005578:	d123      	bne.n	80055c2 <HAL_GPIO_Init+0x132>
        /* Check the Alternate function parameters */
        assert_param(IS_GPIO_AF_INSTANCE(GPIOx));
        assert_param(IS_GPIO_AF(GPIO_Init->Alternate));

        /* Configure Alternate function mapped with the current IO */
        temp = GPIOx->AFR[position >> 3u];
 800557a:	697b      	ldr	r3, [r7, #20]
 800557c:	08da      	lsrs	r2, r3, #3
 800557e:	687b      	ldr	r3, [r7, #4]
 8005580:	3208      	adds	r2, #8
 8005582:	f853 3022 	ldr.w	r3, [r3, r2, lsl #2]
 8005586:	613b      	str	r3, [r7, #16]
        temp &= ~(0xFu << ((position & 0x07u) * 4u));
 8005588:	697b      	ldr	r3, [r7, #20]
 800558a:	f003 0307 	and.w	r3, r3, #7
 800558e:	009b      	lsls	r3, r3, #2
 8005590:	220f      	movs	r2, #15
 8005592:	fa02 f303 	lsl.w	r3, r2, r3
 8005596:	43db      	mvns	r3, r3
 8005598:	693a      	ldr	r2, [r7, #16]
 800559a:	4013      	ands	r3, r2
 800559c:	613b      	str	r3, [r7, #16]
        temp |= ((GPIO_Init->Alternate) << ((position & 0x07u) * 4u));
 800559e:	683b      	ldr	r3, [r7, #0]
 80055a0:	691a      	ldr	r2, [r3, #16]
 80055a2:	697b      	ldr	r3, [r7, #20]
 80055a4:	f003 0307 	and.w	r3, r3, #7
 80055a8:	009b      	lsls	r3, r3, #2
 80055aa:	fa02 f303 	lsl.w	r3, r2, r3
 80055ae:	693a      	ldr	r2, [r7, #16]
 80055b0:	4313      	orrs	r3, r2
 80055b2:	613b      	str	r3, [r7, #16]
        GPIOx->AFR[position >> 3u] = temp;
 80055b4:	697b      	ldr	r3, [r7, #20]
 80055b6:	08da      	lsrs	r2, r3, #3
 80055b8:	687b      	ldr	r3, [r7, #4]
 80055ba:	3208      	adds	r2, #8
 80055bc:	6939      	ldr	r1, [r7, #16]
 80055be:	f843 1022 	str.w	r1, [r3, r2, lsl #2]
      }

      /* Configure IO Direction mode (Input, Output, Alternate or Analog) */
      temp = GPIOx->MODER;
 80055c2:	687b      	ldr	r3, [r7, #4]
 80055c4:	681b      	ldr	r3, [r3, #0]
 80055c6:	613b      	str	r3, [r7, #16]
      temp &= ~(GPIO_MODER_MODE0 << (position * 2u));
 80055c8:	697b      	ldr	r3, [r7, #20]
 80055ca:	005b      	lsls	r3, r3, #1
 80055cc:	2203      	movs	r2, #3
 80055ce:	fa02 f303 	lsl.w	r3, r2, r3
 80055d2:	43db      	mvns	r3, r3
 80055d4:	693a      	ldr	r2, [r7, #16]
 80055d6:	4013      	ands	r3, r2
 80055d8:	613b      	str	r3, [r7, #16]
      temp |= ((GPIO_Init->Mode & GPIO_MODE) << (position * 2u));
 80055da:	683b      	ldr	r3, [r7, #0]
 80055dc:	685b      	ldr	r3, [r3, #4]
 80055de:	f003 0203 	and.w	r2, r3, #3
 80055e2:	697b      	ldr	r3, [r7, #20]
 80055e4:	005b      	lsls	r3, r3, #1
 80055e6:	fa02 f303 	lsl.w	r3, r2, r3
 80055ea:	693a      	ldr	r2, [r7, #16]
 80055ec:	4313      	orrs	r3, r2
 80055ee:	613b      	str	r3, [r7, #16]
      GPIOx->MODER = temp;
 80055f0:	687b      	ldr	r3, [r7, #4]
 80055f2:	693a      	ldr	r2, [r7, #16]
 80055f4:	601a      	str	r2, [r3, #0]

      /*--------------------- EXTI Mode Configuration ------------------------*/
      /* Configure the External Interrupt or event for the current IO */
      if ((GPIO_Init->Mode & EXTI_MODE) != 0x00u)
 80055f6:	683b      	ldr	r3, [r7, #0]
 80055f8:	685b      	ldr	r3, [r3, #4]
 80055fa:	f403 3340 	and.w	r3, r3, #196608	@ 0x30000
 80055fe:	2b00      	cmp	r3, #0
 8005600:	f000 80a0 	beq.w	8005744 <HAL_GPIO_Init+0x2b4>
      {
        /* Enable SYSCFG Clock */
        __HAL_RCC_SYSCFG_CLK_ENABLE();
 8005604:	4b58      	ldr	r3, [pc, #352]	@ (8005768 <HAL_GPIO_Init+0x2d8>)
 8005606:	6e1b      	ldr	r3, [r3, #96]	@ 0x60
 8005608:	4a57      	ldr	r2, [pc, #348]	@ (8005768 <HAL_GPIO_Init+0x2d8>)
 800560a:	f043 0301 	orr.w	r3, r3, #1
 800560e:	6613      	str	r3, [r2, #96]	@ 0x60
 8005610:	4b55      	ldr	r3, [pc, #340]	@ (8005768 <HAL_GPIO_Init+0x2d8>)
 8005612:	6e1b      	ldr	r3, [r3, #96]	@ 0x60
 8005614:	f003 0301 	and.w	r3, r3, #1
 8005618:	60bb      	str	r3, [r7, #8]
 800561a:	68bb      	ldr	r3, [r7, #8]

        temp = SYSCFG->EXTICR[position >> 2u];
 800561c:	4a53      	ldr	r2, [pc, #332]	@ (800576c <HAL_GPIO_Init+0x2dc>)
 800561e:	697b      	ldr	r3, [r7, #20]
 8005620:	089b      	lsrs	r3, r3, #2
 8005622:	3302      	adds	r3, #2
 8005624:	f852 3023 	ldr.w	r3, [r2, r3, lsl #2]
 8005628:	613b      	str	r3, [r7, #16]
        temp &= ~(0x0FuL << (4u * (position & 0x03u)));
 800562a:	697b      	ldr	r3, [r7, #20]
 800562c:	f003 0303 	and.w	r3, r3, #3
 8005630:	009b      	lsls	r3, r3, #2
 8005632:	220f      	movs	r2, #15
 8005634:	fa02 f303 	lsl.w	r3, r2, r3
 8005638:	43db      	mvns	r3, r3
 800563a:	693a      	ldr	r2, [r7, #16]
 800563c:	4013      	ands	r3, r2
 800563e:	613b      	str	r3, [r7, #16]
        temp |= (GPIO_GET_INDEX(GPIOx) << (4u * (position & 0x03u)));
 8005640:	687b      	ldr	r3, [r7, #4]
 8005642:	f1b3 4f90 	cmp.w	r3, #1207959552	@ 0x48000000
 8005646:	d019      	beq.n	800567c <HAL_GPIO_Init+0x1ec>
 8005648:	687b      	ldr	r3, [r7, #4]
 800564a:	4a49      	ldr	r2, [pc, #292]	@ (8005770 <HAL_GPIO_Init+0x2e0>)
 800564c:	4293      	cmp	r3, r2
 800564e:	d013      	beq.n	8005678 <HAL_GPIO_Init+0x1e8>
 8005650:	687b      	ldr	r3, [r7, #4]
 8005652:	4a48      	ldr	r2, [pc, #288]	@ (8005774 <HAL_GPIO_Init+0x2e4>)
 8005654:	4293      	cmp	r3, r2
 8005656:	d00d      	beq.n	8005674 <HAL_GPIO_Init+0x1e4>
 8005658:	687b      	ldr	r3, [r7, #4]
 800565a:	4a47      	ldr	r2, [pc, #284]	@ (8005778 <HAL_GPIO_Init+0x2e8>)
 800565c:	4293      	cmp	r3, r2
 800565e:	d007      	beq.n	8005670 <HAL_GPIO_Init+0x1e0>
 8005660:	687b      	ldr	r3, [r7, #4]
 8005662:	4a46      	ldr	r2, [pc, #280]	@ (800577c <HAL_GPIO_Init+0x2ec>)
 8005664:	4293      	cmp	r3, r2
 8005666:	d101      	bne.n	800566c <HAL_GPIO_Init+0x1dc>
 8005668:	2304      	movs	r3, #4
 800566a:	e008      	b.n	800567e <HAL_GPIO_Init+0x1ee>
 800566c:	2307      	movs	r3, #7
 800566e:	e006      	b.n	800567e <HAL_GPIO_Init+0x1ee>
 8005670:	2303      	movs	r3, #3
 8005672:	e004      	b.n	800567e <HAL_GPIO_Init+0x1ee>
 8005674:	2302      	movs	r3, #2
 8005676:	e002      	b.n	800567e <HAL_GPIO_Init+0x1ee>
 8005678:	2301      	movs	r3, #1
 800567a:	e000      	b.n	800567e <HAL_GPIO_Init+0x1ee>
 800567c:	2300      	movs	r3, #0
 800567e:	697a      	ldr	r2, [r7, #20]
 8005680:	f002 0203 	and.w	r2, r2, #3
 8005684:	0092      	lsls	r2, r2, #2
 8005686:	4093      	lsls	r3, r2
 8005688:	693a      	ldr	r2, [r7, #16]
 800568a:	4313      	orrs	r3, r2
 800568c:	613b      	str	r3, [r7, #16]
        SYSCFG->EXTICR[position >> 2u] = temp;
 800568e:	4937      	ldr	r1, [pc, #220]	@ (800576c <HAL_GPIO_Init+0x2dc>)
 8005690:	697b      	ldr	r3, [r7, #20]
 8005692:	089b      	lsrs	r3, r3, #2
 8005694:	3302      	adds	r3, #2
 8005696:	693a      	ldr	r2, [r7, #16]
 8005698:	f841 2023 	str.w	r2, [r1, r3, lsl #2]

        /* Clear Rising Falling edge configuration */
        temp = EXTI->RTSR1;
 800569c:	4b38      	ldr	r3, [pc, #224]	@ (8005780 <HAL_GPIO_Init+0x2f0>)
 800569e:	689b      	ldr	r3, [r3, #8]
 80056a0:	613b      	str	r3, [r7, #16]
        temp &= ~(iocurrent);
 80056a2:	68fb      	ldr	r3, [r7, #12]
 80056a4:	43db      	mvns	r3, r3
 80056a6:	693a      	ldr	r2, [r7, #16]
 80056a8:	4013      	ands	r3, r2
 80056aa:	613b      	str	r3, [r7, #16]
        if ((GPIO_Init->Mode & TRIGGER_RISING) != 0x00u)
 80056ac:	683b      	ldr	r3, [r7, #0]
 80056ae:	685b      	ldr	r3, [r3, #4]
 80056b0:	f403 1380 	and.w	r3, r3, #1048576	@ 0x100000
 80056b4:	2b00      	cmp	r3, #0
 80056b6:	d003      	beq.n	80056c0 <HAL_GPIO_Init+0x230>
        {
          temp |= iocurrent;
 80056b8:	693a      	ldr	r2, [r7, #16]
 80056ba:	68fb      	ldr	r3, [r7, #12]
 80056bc:	4313      	orrs	r3, r2
 80056be:	613b      	str	r3, [r7, #16]
        }
        EXTI->RTSR1 = temp;
 80056c0:	4a2f      	ldr	r2, [pc, #188]	@ (8005780 <HAL_GPIO_Init+0x2f0>)
 80056c2:	693b      	ldr	r3, [r7, #16]
 80056c4:	6093      	str	r3, [r2, #8]

        temp = EXTI->FTSR1;
 80056c6:	4b2e      	ldr	r3, [pc, #184]	@ (8005780 <HAL_GPIO_Init+0x2f0>)
 80056c8:	68db      	ldr	r3, [r3, #12]
 80056ca:	613b      	str	r3, [r7, #16]
        temp &= ~(iocurrent);
 80056cc:	68fb      	ldr	r3, [r7, #12]
 80056ce:	43db      	mvns	r3, r3
 80056d0:	693a      	ldr	r2, [r7, #16]
 80056d2:	4013      	ands	r3, r2
 80056d4:	613b      	str	r3, [r7, #16]
        if ((GPIO_Init->Mode & TRIGGER_FALLING) != 0x00u)
 80056d6:	683b      	ldr	r3, [r7, #0]
 80056d8:	685b      	ldr	r3, [r3, #4]
 80056da:	f403 1300 	and.w	r3, r3, #2097152	@ 0x200000
 80056de:	2b00      	cmp	r3, #0
 80056e0:	d003      	beq.n	80056ea <HAL_GPIO_Init+0x25a>
        {
          temp |= iocurrent;
 80056e2:	693a      	ldr	r2, [r7, #16]
 80056e4:	68fb      	ldr	r3, [r7, #12]
 80056e6:	4313      	orrs	r3, r2
 80056e8:	613b      	str	r3, [r7, #16]
        }
        EXTI->FTSR1 = temp;
 80056ea:	4a25      	ldr	r2, [pc, #148]	@ (8005780 <HAL_GPIO_Init+0x2f0>)
 80056ec:	693b      	ldr	r3, [r7, #16]
 80056ee:	60d3      	str	r3, [r2, #12]

        /* Clear EXTI line configuration */
        temp = EXTI->EMR1;
 80056f0:	4b23      	ldr	r3, [pc, #140]	@ (8005780 <HAL_GPIO_Init+0x2f0>)
 80056f2:	685b      	ldr	r3, [r3, #4]
 80056f4:	613b      	str	r3, [r7, #16]
        temp &= ~(iocurrent);
 80056f6:	68fb      	ldr	r3, [r7, #12]
 80056f8:	43db      	mvns	r3, r3
 80056fa:	693a      	ldr	r2, [r7, #16]
 80056fc:	4013      	ands	r3, r2
 80056fe:	613b      	str	r3, [r7, #16]
        if ((GPIO_Init->Mode & EXTI_EVT) != 0x00u)
 8005700:	683b      	ldr	r3, [r7, #0]
 8005702:	685b      	ldr	r3, [r3, #4]
 8005704:	f403 3300 	and.w	r3, r3, #131072	@ 0x20000
 8005708:	2b00      	cmp	r3, #0
 800570a:	d003      	beq.n	8005714 <HAL_GPIO_Init+0x284>
        {
          temp |= iocurrent;
 800570c:	693a      	ldr	r2, [r7, #16]
 800570e:	68fb      	ldr	r3, [r7, #12]
 8005710:	4313      	orrs	r3, r2
 8005712:	613b      	str	r3, [r7, #16]
        }
        EXTI->EMR1 = temp;
 8005714:	4a1a      	ldr	r2, [pc, #104]	@ (8005780 <HAL_GPIO_Init+0x2f0>)
 8005716:	693b      	ldr	r3, [r7, #16]
 8005718:	6053      	str	r3, [r2, #4]

        temp = EXTI->IMR1;
 800571a:	4b19      	ldr	r3, [pc, #100]	@ (8005780 <HAL_GPIO_Init+0x2f0>)
 800571c:	681b      	ldr	r3, [r3, #0]
 800571e:	613b      	str	r3, [r7, #16]
        temp &= ~(iocurrent);
 8005720:	68fb      	ldr	r3, [r7, #12]
 8005722:	43db      	mvns	r3, r3
 8005724:	693a      	ldr	r2, [r7, #16]
 8005726:	4013      	ands	r3, r2
 8005728:	613b      	str	r3, [r7, #16]
        if ((GPIO_Init->Mode & EXTI_IT) != 0x00u)
 800572a:	683b      	ldr	r3, [r7, #0]
 800572c:	685b      	ldr	r3, [r3, #4]
 800572e:	f403 3380 	and.w	r3, r3, #65536	@ 0x10000
 8005732:	2b00      	cmp	r3, #0
 8005734:	d003      	beq.n	800573e <HAL_GPIO_Init+0x2ae>
        {
          temp |= iocurrent;
 8005736:	693a      	ldr	r2, [r7, #16]
 8005738:	68fb      	ldr	r3, [r7, #12]
 800573a:	4313      	orrs	r3, r2
 800573c:	613b      	str	r3, [r7, #16]
        }
        EXTI->IMR1 = temp;
 800573e:	4a10      	ldr	r2, [pc, #64]	@ (8005780 <HAL_GPIO_Init+0x2f0>)
 8005740:	693b      	ldr	r3, [r7, #16]
 8005742:	6013      	str	r3, [r2, #0]
      }
    }

    position++;
 8005744:	697b      	ldr	r3, [r7, #20]
 8005746:	3301      	adds	r3, #1
 8005748:	617b      	str	r3, [r7, #20]
  while (((GPIO_Init->Pin) >> position) != 0x00u)
 800574a:	683b      	ldr	r3, [r7, #0]
 800574c:	681a      	ldr	r2, [r3, #0]
 800574e:	697b      	ldr	r3, [r7, #20]
 8005750:	fa22 f303 	lsr.w	r3, r2, r3
 8005754:	2b00      	cmp	r3, #0
 8005756:	f47f aea3 	bne.w	80054a0 <HAL_GPIO_Init+0x10>
  }
}
 800575a:	bf00      	nop
 800575c:	bf00      	nop
 800575e:	371c      	adds	r7, #28
 8005760:	46bd      	mov	sp, r7
 8005762:	f85d 7b04 	ldr.w	r7, [sp], #4
 8005766:	4770      	bx	lr
 8005768:	40021000 	.word	0x40021000
 800576c:	40010000 	.word	0x40010000
 8005770:	48000400 	.word	0x48000400
 8005774:	48000800 	.word	0x48000800
 8005778:	48000c00 	.word	0x48000c00
 800577c:	48001000 	.word	0x48001000
 8005780:	40010400 	.word	0x40010400

08005784 <HAL_GPIO_WritePin>:
  *            @arg GPIO_PIN_RESET: to clear the port pin
  *            @arg GPIO_PIN_SET: to set the port pin
  * @retval None
  */
void HAL_GPIO_WritePin(GPIO_TypeDef* GPIOx, uint16_t GPIO_Pin, GPIO_PinState PinState)
{
 8005784:	b480      	push	{r7}
 8005786:	b083      	sub	sp, #12
 8005788:	af00      	add	r7, sp, #0
 800578a:	6078      	str	r0, [r7, #4]
 800578c:	460b      	mov	r3, r1
 800578e:	807b      	strh	r3, [r7, #2]
 8005790:	4613      	mov	r3, r2
 8005792:	707b      	strb	r3, [r7, #1]
  /* Check the parameters */
  assert_param(IS_GPIO_PIN(GPIO_Pin));
  assert_param(IS_GPIO_PIN_ACTION(PinState));

  if(PinState != GPIO_PIN_RESET)
 8005794:	787b      	ldrb	r3, [r7, #1]
 8005796:	2b00      	cmp	r3, #0
 8005798:	d003      	beq.n	80057a2 <HAL_GPIO_WritePin+0x1e>
  {
    GPIOx->BSRR = (uint32_t)GPIO_Pin;
 800579a:	887a      	ldrh	r2, [r7, #2]
 800579c:	687b      	ldr	r3, [r7, #4]
 800579e:	619a      	str	r2, [r3, #24]
  }
  else
  {
    GPIOx->BRR = (uint32_t)GPIO_Pin;
  }
}
 80057a0:	e002      	b.n	80057a8 <HAL_GPIO_WritePin+0x24>
    GPIOx->BRR = (uint32_t)GPIO_Pin;
 80057a2:	887a      	ldrh	r2, [r7, #2]
 80057a4:	687b      	ldr	r3, [r7, #4]
 80057a6:	629a      	str	r2, [r3, #40]	@ 0x28
}
 80057a8:	bf00      	nop
 80057aa:	370c      	adds	r7, #12
 80057ac:	46bd      	mov	sp, r7
 80057ae:	f85d 7b04 	ldr.w	r7, [sp], #4
 80057b2:	4770      	bx	lr

080057b4 <HAL_PWREx_GetVoltageRange>:
  * @brief Return Voltage Scaling Range.
  * @retval VOS bit field (PWR_REGULATOR_VOLTAGE_SCALE1 or PWR_REGULATOR_VOLTAGE_SCALE2
  *         or PWR_REGULATOR_VOLTAGE_SCALE1_BOOST when applicable)
  */
uint32_t HAL_PWREx_GetVoltageRange(void)
{
 80057b4:	b480      	push	{r7}
 80057b6:	af00      	add	r7, sp, #0
    else
    {
      return PWR_REGULATOR_VOLTAGE_SCALE1_BOOST;
    }
#else
  return  (PWR->CR1 & PWR_CR1_VOS);
 80057b8:	4b04      	ldr	r3, [pc, #16]	@ (80057cc <HAL_PWREx_GetVoltageRange+0x18>)
 80057ba:	681b      	ldr	r3, [r3, #0]
 80057bc:	f403 63c0 	and.w	r3, r3, #1536	@ 0x600
#endif
}
 80057c0:	4618      	mov	r0, r3
 80057c2:	46bd      	mov	sp, r7
 80057c4:	f85d 7b04 	ldr.w	r7, [sp], #4
 80057c8:	4770      	bx	lr
 80057ca:	bf00      	nop
 80057cc:	40007000 	.word	0x40007000

080057d0 <HAL_PWREx_ControlVoltageScaling>:
  *        cleared before returning the status. If the flag is not cleared within
  *        50 microseconds, HAL_TIMEOUT status is reported.
  * @retval HAL Status
  */
HAL_StatusTypeDef HAL_PWREx_ControlVoltageScaling(uint32_t VoltageScaling)
{
 80057d0:	b480      	push	{r7}
 80057d2:	b085      	sub	sp, #20
 80057d4:	af00      	add	r7, sp, #0
 80057d6:	6078      	str	r0, [r7, #4]
  }

#else

  /* If Set Range 1 */
  if (VoltageScaling == PWR_REGULATOR_VOLTAGE_SCALE1)
 80057d8:	687b      	ldr	r3, [r7, #4]
 80057da:	f5b3 7f00 	cmp.w	r3, #512	@ 0x200
 80057de:	d130      	bne.n	8005842 <HAL_PWREx_ControlVoltageScaling+0x72>
  {
    if (READ_BIT(PWR->CR1, PWR_CR1_VOS) != PWR_REGULATOR_VOLTAGE_SCALE1)
 80057e0:	4b23      	ldr	r3, [pc, #140]	@ (8005870 <HAL_PWREx_ControlVoltageScaling+0xa0>)
 80057e2:	681b      	ldr	r3, [r3, #0]
 80057e4:	f403 63c0 	and.w	r3, r3, #1536	@ 0x600
 80057e8:	f5b3 7f00 	cmp.w	r3, #512	@ 0x200
 80057ec:	d038      	beq.n	8005860 <HAL_PWREx_ControlVoltageScaling+0x90>
    {
      /* Set Range 1 */
      MODIFY_REG(PWR->CR1, PWR_CR1_VOS, PWR_REGULATOR_VOLTAGE_SCALE1);
 80057ee:	4b20      	ldr	r3, [pc, #128]	@ (8005870 <HAL_PWREx_ControlVoltageScaling+0xa0>)
 80057f0:	681b      	ldr	r3, [r3, #0]
 80057f2:	f423 63c0 	bic.w	r3, r3, #1536	@ 0x600
 80057f6:	4a1e      	ldr	r2, [pc, #120]	@ (8005870 <HAL_PWREx_ControlVoltageScaling+0xa0>)
 80057f8:	f443 7300 	orr.w	r3, r3, #512	@ 0x200
 80057fc:	6013      	str	r3, [r2, #0]

      /* Wait until VOSF is cleared */
      wait_loop_index = ((PWR_FLAG_SETTING_DELAY_US * SystemCoreClock) / 1000000U) + 1U;
 80057fe:	4b1d      	ldr	r3, [pc, #116]	@ (8005874 <HAL_PWREx_ControlVoltageScaling+0xa4>)
 8005800:	681b      	ldr	r3, [r3, #0]
 8005802:	2232      	movs	r2, #50	@ 0x32
 8005804:	fb02 f303 	mul.w	r3, r2, r3
 8005808:	4a1b      	ldr	r2, [pc, #108]	@ (8005878 <HAL_PWREx_ControlVoltageScaling+0xa8>)
 800580a:	fba2 2303 	umull	r2, r3, r2, r3
 800580e:	0c9b      	lsrs	r3, r3, #18
 8005810:	3301      	adds	r3, #1
 8005812:	60fb      	str	r3, [r7, #12]
      while ((HAL_IS_BIT_SET(PWR->SR2, PWR_SR2_VOSF)) && (wait_loop_index != 0U))
 8005814:	e002      	b.n	800581c <HAL_PWREx_ControlVoltageScaling+0x4c>
      {
        wait_loop_index--;
 8005816:	68fb      	ldr	r3, [r7, #12]
 8005818:	3b01      	subs	r3, #1
 800581a:	60fb      	str	r3, [r7, #12]
      while ((HAL_IS_BIT_SET(PWR->SR2, PWR_SR2_VOSF)) && (wait_loop_index != 0U))
 800581c:	4b14      	ldr	r3, [pc, #80]	@ (8005870 <HAL_PWREx_ControlVoltageScaling+0xa0>)
 800581e:	695b      	ldr	r3, [r3, #20]
 8005820:	f403 6380 	and.w	r3, r3, #1024	@ 0x400
 8005824:	f5b3 6f80 	cmp.w	r3, #1024	@ 0x400
 8005828:	d102      	bne.n	8005830 <HAL_PWREx_ControlVoltageScaling+0x60>
 800582a:	68fb      	ldr	r3, [r7, #12]
 800582c:	2b00      	cmp	r3, #0
 800582e:	d1f2      	bne.n	8005816 <HAL_PWREx_ControlVoltageScaling+0x46>
      }
      if (HAL_IS_BIT_SET(PWR->SR2, PWR_SR2_VOSF))
 8005830:	4b0f      	ldr	r3, [pc, #60]	@ (8005870 <HAL_PWREx_ControlVoltageScaling+0xa0>)
 8005832:	695b      	ldr	r3, [r3, #20]
 8005834:	f403 6380 	and.w	r3, r3, #1024	@ 0x400
 8005838:	f5b3 6f80 	cmp.w	r3, #1024	@ 0x400
 800583c:	d110      	bne.n	8005860 <HAL_PWREx_ControlVoltageScaling+0x90>
      {
        return HAL_TIMEOUT;
 800583e:	2303      	movs	r3, #3
 8005840:	e00f      	b.n	8005862 <HAL_PWREx_ControlVoltageScaling+0x92>
      }
    }
  }
  else
  {
    if (READ_BIT(PWR->CR1, PWR_CR1_VOS) != PWR_REGULATOR_VOLTAGE_SCALE2)
 8005842:	4b0b      	ldr	r3, [pc, #44]	@ (8005870 <HAL_PWREx_ControlVoltageScaling+0xa0>)
 8005844:	681b      	ldr	r3, [r3, #0]
 8005846:	f403 63c0 	and.w	r3, r3, #1536	@ 0x600
 800584a:	f5b3 6f80 	cmp.w	r3, #1024	@ 0x400
 800584e:	d007      	beq.n	8005860 <HAL_PWREx_ControlVoltageScaling+0x90>
    {
      /* Set Range 2 */
      MODIFY_REG(PWR->CR1, PWR_CR1_VOS, PWR_REGULATOR_VOLTAGE_SCALE2);
 8005850:	4b07      	ldr	r3, [pc, #28]	@ (8005870 <HAL_PWREx_ControlVoltageScaling+0xa0>)
 8005852:	681b      	ldr	r3, [r3, #0]
 8005854:	f423 63c0 	bic.w	r3, r3, #1536	@ 0x600
 8005858:	4a05      	ldr	r2, [pc, #20]	@ (8005870 <HAL_PWREx_ControlVoltageScaling+0xa0>)
 800585a:	f443 6380 	orr.w	r3, r3, #1024	@ 0x400
 800585e:	6013      	str	r3, [r2, #0]
      /* No need to wait for VOSF to be cleared for this transition */
    }
  }
#endif

  return HAL_OK;
 8005860:	2300      	movs	r3, #0
}
 8005862:	4618      	mov	r0, r3
 8005864:	3714      	adds	r7, #20
 8005866:	46bd      	mov	sp, r7
 8005868:	f85d 7b04 	ldr.w	r7, [sp], #4
 800586c:	4770      	bx	lr
 800586e:	bf00      	nop
 8005870:	40007000 	.word	0x40007000
 8005874:	20000000 	.word	0x20000000
 8005878:	431bde83 	.word	0x431bde83

0800587c <HAL_RCC_DeInit>:
  *            - Peripheral clock sources
  *            - LSI, LSE and RTC clocks (Backup domain)
  * @retval HAL status
  */
HAL_StatusTypeDef HAL_RCC_DeInit(void)
{
 800587c:	b580      	push	{r7, lr}
 800587e:	b082      	sub	sp, #8
 8005880:	af00      	add	r7, sp, #0
  uint32_t tickstart;

  /* Reset to default System clock */
  /* Set MSION bit */
  SET_BIT(RCC->CR, RCC_CR_MSION);
 8005882:	4b45      	ldr	r3, [pc, #276]	@ (8005998 <HAL_RCC_DeInit+0x11c>)
 8005884:	681b      	ldr	r3, [r3, #0]
 8005886:	4a44      	ldr	r2, [pc, #272]	@ (8005998 <HAL_RCC_DeInit+0x11c>)
 8005888:	f043 0301 	orr.w	r3, r3, #1
 800588c:	6013      	str	r3, [r2, #0]

  /* Insure MSIRDY bit is set before writing default MSIRANGE value */
  /* Get start tick */
  tickstart = HAL_GetTick();
 800588e:	f7fe fb9d 	bl	8003fcc <HAL_GetTick>
 8005892:	6078      	str	r0, [r7, #4]

  /* Wait till MSI is ready */
  while(READ_BIT(RCC->CR, RCC_CR_MSIRDY) == 0U)
 8005894:	e008      	b.n	80058a8 <HAL_RCC_DeInit+0x2c>
  {
    if((HAL_GetTick() - tickstart) > MSI_TIMEOUT_VALUE)
 8005896:	f7fe fb99 	bl	8003fcc <HAL_GetTick>
 800589a:	4602      	mov	r2, r0
 800589c:	687b      	ldr	r3, [r7, #4]
 800589e:	1ad3      	subs	r3, r2, r3
 80058a0:	2b02      	cmp	r3, #2
 80058a2:	d901      	bls.n	80058a8 <HAL_RCC_DeInit+0x2c>
    {
      return HAL_TIMEOUT;
 80058a4:	2303      	movs	r3, #3
 80058a6:	e073      	b.n	8005990 <HAL_RCC_DeInit+0x114>
  while(READ_BIT(RCC->CR, RCC_CR_MSIRDY) == 0U)
 80058a8:	4b3b      	ldr	r3, [pc, #236]	@ (8005998 <HAL_RCC_DeInit+0x11c>)
 80058aa:	681b      	ldr	r3, [r3, #0]
 80058ac:	f003 0302 	and.w	r3, r3, #2
 80058b0:	2b00      	cmp	r3, #0
 80058b2:	d0f0      	beq.n	8005896 <HAL_RCC_DeInit+0x1a>
    }
  }

  /* Set MSIRANGE default value */
  MODIFY_REG(RCC->CR, RCC_CR_MSIRANGE, RCC_MSIRANGE_6);
 80058b4:	4b38      	ldr	r3, [pc, #224]	@ (8005998 <HAL_RCC_DeInit+0x11c>)
 80058b6:	681b      	ldr	r3, [r3, #0]
 80058b8:	f023 03f0 	bic.w	r3, r3, #240	@ 0xf0
 80058bc:	4a36      	ldr	r2, [pc, #216]	@ (8005998 <HAL_RCC_DeInit+0x11c>)
 80058be:	f043 0360 	orr.w	r3, r3, #96	@ 0x60
 80058c2:	6013      	str	r3, [r2, #0]

  /* Reset CFGR register (MSI is selected as system clock source) */
  CLEAR_REG(RCC->CFGR);
 80058c4:	4b34      	ldr	r3, [pc, #208]	@ (8005998 <HAL_RCC_DeInit+0x11c>)
 80058c6:	2200      	movs	r2, #0
 80058c8:	609a      	str	r2, [r3, #8]

  /* Update the SystemCoreClock global variable for MSI as system clock source */
  SystemCoreClock = MSI_VALUE;
 80058ca:	4b34      	ldr	r3, [pc, #208]	@ (800599c <HAL_RCC_DeInit+0x120>)
 80058cc:	4a34      	ldr	r2, [pc, #208]	@ (80059a0 <HAL_RCC_DeInit+0x124>)
 80058ce:	601a      	str	r2, [r3, #0]

  /* Configure the source of time base considering new system clock settings  */
  if(HAL_InitTick(uwTickPrio) != HAL_OK)
 80058d0:	4b34      	ldr	r3, [pc, #208]	@ (80059a4 <HAL_RCC_DeInit+0x128>)
 80058d2:	681b      	ldr	r3, [r3, #0]
 80058d4:	4618      	mov	r0, r3
 80058d6:	f7fe fb29 	bl	8003f2c <HAL_InitTick>
 80058da:	4603      	mov	r3, r0
 80058dc:	2b00      	cmp	r3, #0
 80058de:	d001      	beq.n	80058e4 <HAL_RCC_DeInit+0x68>
  {
    return HAL_ERROR;
 80058e0:	2301      	movs	r3, #1
 80058e2:	e055      	b.n	8005990 <HAL_RCC_DeInit+0x114>
  }

  /* Insure MSI selected as system clock source */
  /* Get start tick */
  tickstart = HAL_GetTick();
 80058e4:	f7fe fb72 	bl	8003fcc <HAL_GetTick>
 80058e8:	6078      	str	r0, [r7, #4]

  /* Wait till system clock source is ready */
  while(READ_BIT(RCC->CFGR, RCC_CFGR_SWS) != RCC_CFGR_SWS_MSI)
 80058ea:	e00a      	b.n	8005902 <HAL_RCC_DeInit+0x86>
  {
    if((HAL_GetTick() - tickstart) > CLOCKSWITCH_TIMEOUT_VALUE)
 80058ec:	f7fe fb6e 	bl	8003fcc <HAL_GetTick>
 80058f0:	4602      	mov	r2, r0
 80058f2:	687b      	ldr	r3, [r7, #4]
 80058f4:	1ad3      	subs	r3, r2, r3
 80058f6:	f241 3288 	movw	r2, #5000	@ 0x1388
 80058fa:	4293      	cmp	r3, r2
 80058fc:	d901      	bls.n	8005902 <HAL_RCC_DeInit+0x86>
    {
      return HAL_TIMEOUT;
 80058fe:	2303      	movs	r3, #3
 8005900:	e046      	b.n	8005990 <HAL_RCC_DeInit+0x114>
  while(READ_BIT(RCC->CFGR, RCC_CFGR_SWS) != RCC_CFGR_SWS_MSI)
 8005902:	4b25      	ldr	r3, [pc, #148]	@ (8005998 <HAL_RCC_DeInit+0x11c>)
 8005904:	689b      	ldr	r3, [r3, #8]
 8005906:	f003 030c 	and.w	r3, r3, #12
 800590a:	2b00      	cmp	r3, #0
 800590c:	d1ee      	bne.n	80058ec <HAL_RCC_DeInit+0x70>

  CLEAR_BIT(RCC->CR, RCC_CR_HSEON | RCC_CR_HSION | RCC_CR_HSIKERON| RCC_CR_HSIASFS | RCC_CR_PLLON | RCC_CR_PLLSAI1ON | RCC_CR_PLLSAI2ON);

#elif defined(RCC_PLLSAI1_SUPPORT)

  CLEAR_BIT(RCC->CR, RCC_CR_HSEON | RCC_CR_HSION | RCC_CR_HSIKERON| RCC_CR_HSIASFS | RCC_CR_PLLON | RCC_CR_PLLSAI1ON);
 800590e:	4b22      	ldr	r3, [pc, #136]	@ (8005998 <HAL_RCC_DeInit+0x11c>)
 8005910:	681a      	ldr	r2, [r3, #0]
 8005912:	4921      	ldr	r1, [pc, #132]	@ (8005998 <HAL_RCC_DeInit+0x11c>)
 8005914:	4b24      	ldr	r3, [pc, #144]	@ (80059a8 <HAL_RCC_DeInit+0x12c>)
 8005916:	4013      	ands	r3, r2
 8005918:	600b      	str	r3, [r1, #0]

#endif /* RCC_PLLSAI2_SUPPORT */

  /* Insure PLLRDY, PLLSAI1RDY and PLLSAI2RDY (if present) are reset */
  /* Get start tick */
  tickstart = HAL_GetTick();
 800591a:	f7fe fb57 	bl	8003fcc <HAL_GetTick>
 800591e:	6078      	str	r0, [r7, #4]

  while(READ_BIT(RCC->CR, RCC_CR_PLLRDY | RCC_CR_PLLSAI1RDY | RCC_CR_PLLSAI2RDY) != 0U)

#elif defined(RCC_PLLSAI1_SUPPORT)

  while(READ_BIT(RCC->CR, RCC_CR_PLLRDY | RCC_CR_PLLSAI1RDY) != 0U)
 8005920:	e008      	b.n	8005934 <HAL_RCC_DeInit+0xb8>

  while(READ_BIT(RCC->CR, RCC_CR_PLLRDY) != 0U)

#endif
  {
    if((HAL_GetTick() - tickstart) > PLL_TIMEOUT_VALUE)
 8005922:	f7fe fb53 	bl	8003fcc <HAL_GetTick>
 8005926:	4602      	mov	r2, r0
 8005928:	687b      	ldr	r3, [r7, #4]
 800592a:	1ad3      	subs	r3, r2, r3
 800592c:	2b02      	cmp	r3, #2
 800592e:	d901      	bls.n	8005934 <HAL_RCC_DeInit+0xb8>
    {
      return HAL_TIMEOUT;
 8005930:	2303      	movs	r3, #3
 8005932:	e02d      	b.n	8005990 <HAL_RCC_DeInit+0x114>
  while(READ_BIT(RCC->CR, RCC_CR_PLLRDY | RCC_CR_PLLSAI1RDY) != 0U)
 8005934:	4b18      	ldr	r3, [pc, #96]	@ (8005998 <HAL_RCC_DeInit+0x11c>)
 8005936:	681b      	ldr	r3, [r3, #0]
 8005938:	f003 6320 	and.w	r3, r3, #167772160	@ 0xa000000
 800593c:	2b00      	cmp	r3, #0
 800593e:	d1f0      	bne.n	8005922 <HAL_RCC_DeInit+0xa6>
    }
  }

  /* Reset PLLCFGR register */
  CLEAR_REG(RCC->PLLCFGR);
 8005940:	4b15      	ldr	r3, [pc, #84]	@ (8005998 <HAL_RCC_DeInit+0x11c>)
 8005942:	2200      	movs	r2, #0
 8005944:	60da      	str	r2, [r3, #12]
  SET_BIT(RCC->PLLCFGR, RCC_PLLCFGR_PLLN_4 );
 8005946:	4b14      	ldr	r3, [pc, #80]	@ (8005998 <HAL_RCC_DeInit+0x11c>)
 8005948:	68db      	ldr	r3, [r3, #12]
 800594a:	4a13      	ldr	r2, [pc, #76]	@ (8005998 <HAL_RCC_DeInit+0x11c>)
 800594c:	f443 5380 	orr.w	r3, r3, #4096	@ 0x1000
 8005950:	60d3      	str	r3, [r2, #12]

#if defined(RCC_PLLSAI1_SUPPORT)

  /* Reset PLLSAI1CFGR register */
  CLEAR_REG(RCC->PLLSAI1CFGR);
 8005952:	4b11      	ldr	r3, [pc, #68]	@ (8005998 <HAL_RCC_DeInit+0x11c>)
 8005954:	2200      	movs	r2, #0
 8005956:	611a      	str	r2, [r3, #16]
  SET_BIT(RCC->PLLSAI1CFGR,  RCC_PLLSAI1CFGR_PLLSAI1N_4 );
 8005958:	4b0f      	ldr	r3, [pc, #60]	@ (8005998 <HAL_RCC_DeInit+0x11c>)
 800595a:	691b      	ldr	r3, [r3, #16]
 800595c:	4a0e      	ldr	r2, [pc, #56]	@ (8005998 <HAL_RCC_DeInit+0x11c>)
 800595e:	f443 5380 	orr.w	r3, r3, #4096	@ 0x1000
 8005962:	6113      	str	r3, [r2, #16]
  SET_BIT(RCC->PLLSAI2CFGR,  RCC_PLLSAI2CFGR_PLLSAI2N_4 );

#endif /* RCC_PLLSAI2_SUPPORT */

  /* Reset HSEBYP bit */
  CLEAR_BIT(RCC->CR, RCC_CR_HSEBYP);
 8005964:	4b0c      	ldr	r3, [pc, #48]	@ (8005998 <HAL_RCC_DeInit+0x11c>)
 8005966:	681b      	ldr	r3, [r3, #0]
 8005968:	4a0b      	ldr	r2, [pc, #44]	@ (8005998 <HAL_RCC_DeInit+0x11c>)
 800596a:	f423 2380 	bic.w	r3, r3, #262144	@ 0x40000
 800596e:	6013      	str	r3, [r2, #0]

  /* Disable all interrupts */
  CLEAR_REG(RCC->CIER);
 8005970:	4b09      	ldr	r3, [pc, #36]	@ (8005998 <HAL_RCC_DeInit+0x11c>)
 8005972:	2200      	movs	r2, #0
 8005974:	619a      	str	r2, [r3, #24]

  /* Clear all interrupt flags */
  WRITE_REG(RCC->CICR, 0xFFFFFFFFU);
 8005976:	4b08      	ldr	r3, [pc, #32]	@ (8005998 <HAL_RCC_DeInit+0x11c>)
 8005978:	f04f 32ff 	mov.w	r2, #4294967295
 800597c:	621a      	str	r2, [r3, #32]

  /* Clear all reset flags */
  SET_BIT(RCC->CSR, RCC_CSR_RMVF);
 800597e:	4b06      	ldr	r3, [pc, #24]	@ (8005998 <HAL_RCC_DeInit+0x11c>)
 8005980:	f8d3 3094 	ldr.w	r3, [r3, #148]	@ 0x94
 8005984:	4a04      	ldr	r2, [pc, #16]	@ (8005998 <HAL_RCC_DeInit+0x11c>)
 8005986:	f443 0300 	orr.w	r3, r3, #8388608	@ 0x800000
 800598a:	f8c2 3094 	str.w	r3, [r2, #148]	@ 0x94

  return HAL_OK;
 800598e:	2300      	movs	r3, #0
}
 8005990:	4618      	mov	r0, r3
 8005992:	3708      	adds	r7, #8
 8005994:	46bd      	mov	sp, r7
 8005996:	bd80      	pop	{r7, pc}
 8005998:	40021000 	.word	0x40021000
 800599c:	20000000 	.word	0x20000000
 80059a0:	003d0900 	.word	0x003d0900
 80059a4:	20000004 	.word	0x20000004
 80059a8:	fafef4ff 	.word	0xfafef4ff

080059ac <HAL_RCC_OscConfig>:
  * @note   If HSE failed to start, HSE should be disabled before recalling
            HAL_RCC_OscConfig().
  * @retval HAL status
  */
HAL_StatusTypeDef HAL_RCC_OscConfig(RCC_OscInitTypeDef  *RCC_OscInitStruct)
{
 80059ac:	b580      	push	{r7, lr}
 80059ae:	b088      	sub	sp, #32
 80059b0:	af00      	add	r7, sp, #0
 80059b2:	6078      	str	r0, [r7, #4]
  uint32_t tickstart;
  HAL_StatusTypeDef status;
  uint32_t sysclk_source, pll_config;

  /* Check Null pointer */
  if(RCC_OscInitStruct == NULL)
 80059b4:	687b      	ldr	r3, [r7, #4]
 80059b6:	2b00      	cmp	r3, #0
 80059b8:	d102      	bne.n	80059c0 <HAL_RCC_OscConfig+0x14>
  {
    return HAL_ERROR;
 80059ba:	2301      	movs	r3, #1
 80059bc:	f000 bc02 	b.w	80061c4 <HAL_RCC_OscConfig+0x818>
  }

  /* Check the parameters */
  assert_param(IS_RCC_OSCILLATORTYPE(RCC_OscInitStruct->OscillatorType));

  sysclk_source = __HAL_RCC_GET_SYSCLK_SOURCE();
 80059c0:	4b96      	ldr	r3, [pc, #600]	@ (8005c1c <HAL_RCC_OscConfig+0x270>)
 80059c2:	689b      	ldr	r3, [r3, #8]
 80059c4:	f003 030c 	and.w	r3, r3, #12
 80059c8:	61bb      	str	r3, [r7, #24]
  pll_config = __HAL_RCC_GET_PLL_OSCSOURCE();
 80059ca:	4b94      	ldr	r3, [pc, #592]	@ (8005c1c <HAL_RCC_OscConfig+0x270>)
 80059cc:	68db      	ldr	r3, [r3, #12]
 80059ce:	f003 0303 	and.w	r3, r3, #3
 80059d2:	617b      	str	r3, [r7, #20]

  /*----------------------------- MSI Configuration --------------------------*/
  if(((RCC_OscInitStruct->OscillatorType) & RCC_OSCILLATORTYPE_MSI) == RCC_OSCILLATORTYPE_MSI)
 80059d4:	687b      	ldr	r3, [r7, #4]
 80059d6:	681b      	ldr	r3, [r3, #0]
 80059d8:	f003 0310 	and.w	r3, r3, #16
 80059dc:	2b00      	cmp	r3, #0
 80059de:	f000 80e4 	beq.w	8005baa <HAL_RCC_OscConfig+0x1fe>
    assert_param(IS_RCC_MSI(RCC_OscInitStruct->MSIState));
    assert_param(IS_RCC_MSICALIBRATION_VALUE(RCC_OscInitStruct->MSICalibrationValue));
    assert_param(IS_RCC_MSI_CLOCK_RANGE(RCC_OscInitStruct->MSIClockRange));

    /* Check if MSI is used as system clock or as PLL source when PLL is selected as system clock */
    if((sysclk_source == RCC_CFGR_SWS_MSI) ||
 80059e2:	69bb      	ldr	r3, [r7, #24]
 80059e4:	2b00      	cmp	r3, #0
 80059e6:	d007      	beq.n	80059f8 <HAL_RCC_OscConfig+0x4c>
 80059e8:	69bb      	ldr	r3, [r7, #24]
 80059ea:	2b0c      	cmp	r3, #12
 80059ec:	f040 808b 	bne.w	8005b06 <HAL_RCC_OscConfig+0x15a>
       ((sysclk_source == RCC_CFGR_SWS_PLL) && (pll_config == RCC_PLLSOURCE_MSI)))
 80059f0:	697b      	ldr	r3, [r7, #20]
 80059f2:	2b01      	cmp	r3, #1
 80059f4:	f040 8087 	bne.w	8005b06 <HAL_RCC_OscConfig+0x15a>
    {
      if((READ_BIT(RCC->CR, RCC_CR_MSIRDY) != 0U) && (RCC_OscInitStruct->MSIState == RCC_MSI_OFF))
 80059f8:	4b88      	ldr	r3, [pc, #544]	@ (8005c1c <HAL_RCC_OscConfig+0x270>)
 80059fa:	681b      	ldr	r3, [r3, #0]
 80059fc:	f003 0302 	and.w	r3, r3, #2
 8005a00:	2b00      	cmp	r3, #0
 8005a02:	d005      	beq.n	8005a10 <HAL_RCC_OscConfig+0x64>
 8005a04:	687b      	ldr	r3, [r7, #4]
 8005a06:	699b      	ldr	r3, [r3, #24]
 8005a08:	2b00      	cmp	r3, #0
 8005a0a:	d101      	bne.n	8005a10 <HAL_RCC_OscConfig+0x64>
      {
        return HAL_ERROR;
 8005a0c:	2301      	movs	r3, #1
 8005a0e:	e3d9      	b.n	80061c4 <HAL_RCC_OscConfig+0x818>
      else
      {
        /* To correctly read data from FLASH memory, the number of wait states (LATENCY)
           must be correctly programmed according to the frequency of the CPU clock
           (HCLK) and the supply voltage of the device. */
        if(RCC_OscInitStruct->MSIClockRange > __HAL_RCC_GET_MSI_RANGE())
 8005a10:	687b      	ldr	r3, [r7, #4]
 8005a12:	6a1a      	ldr	r2, [r3, #32]
 8005a14:	4b81      	ldr	r3, [pc, #516]	@ (8005c1c <HAL_RCC_OscConfig+0x270>)
 8005a16:	681b      	ldr	r3, [r3, #0]
 8005a18:	f003 0308 	and.w	r3, r3, #8
 8005a1c:	2b00      	cmp	r3, #0
 8005a1e:	d004      	beq.n	8005a2a <HAL_RCC_OscConfig+0x7e>
 8005a20:	4b7e      	ldr	r3, [pc, #504]	@ (8005c1c <HAL_RCC_OscConfig+0x270>)
 8005a22:	681b      	ldr	r3, [r3, #0]
 8005a24:	f003 03f0 	and.w	r3, r3, #240	@ 0xf0
 8005a28:	e005      	b.n	8005a36 <HAL_RCC_OscConfig+0x8a>
 8005a2a:	4b7c      	ldr	r3, [pc, #496]	@ (8005c1c <HAL_RCC_OscConfig+0x270>)
 8005a2c:	f8d3 3094 	ldr.w	r3, [r3, #148]	@ 0x94
 8005a30:	091b      	lsrs	r3, r3, #4
 8005a32:	f003 03f0 	and.w	r3, r3, #240	@ 0xf0
 8005a36:	4293      	cmp	r3, r2
 8005a38:	d223      	bcs.n	8005a82 <HAL_RCC_OscConfig+0xd6>
        {
          /* First increase number of wait states update if necessary */
          if(RCC_SetFlashLatencyFromMSIRange(RCC_OscInitStruct->MSIClockRange) != HAL_OK)
 8005a3a:	687b      	ldr	r3, [r7, #4]
 8005a3c:	6a1b      	ldr	r3, [r3, #32]
 8005a3e:	4618      	mov	r0, r3
 8005a40:	f000 fd8c 	bl	800655c <RCC_SetFlashLatencyFromMSIRange>
 8005a44:	4603      	mov	r3, r0
 8005a46:	2b00      	cmp	r3, #0
 8005a48:	d001      	beq.n	8005a4e <HAL_RCC_OscConfig+0xa2>
          {
            return HAL_ERROR;
 8005a4a:	2301      	movs	r3, #1
 8005a4c:	e3ba      	b.n	80061c4 <HAL_RCC_OscConfig+0x818>
          }

          /* Selects the Multiple Speed oscillator (MSI) clock range .*/
          __HAL_RCC_MSI_RANGE_CONFIG(RCC_OscInitStruct->MSIClockRange);
 8005a4e:	4b73      	ldr	r3, [pc, #460]	@ (8005c1c <HAL_RCC_OscConfig+0x270>)
 8005a50:	681b      	ldr	r3, [r3, #0]
 8005a52:	4a72      	ldr	r2, [pc, #456]	@ (8005c1c <HAL_RCC_OscConfig+0x270>)
 8005a54:	f043 0308 	orr.w	r3, r3, #8
 8005a58:	6013      	str	r3, [r2, #0]
 8005a5a:	4b70      	ldr	r3, [pc, #448]	@ (8005c1c <HAL_RCC_OscConfig+0x270>)
 8005a5c:	681b      	ldr	r3, [r3, #0]
 8005a5e:	f023 02f0 	bic.w	r2, r3, #240	@ 0xf0
 8005a62:	687b      	ldr	r3, [r7, #4]
 8005a64:	6a1b      	ldr	r3, [r3, #32]
 8005a66:	496d      	ldr	r1, [pc, #436]	@ (8005c1c <HAL_RCC_OscConfig+0x270>)
 8005a68:	4313      	orrs	r3, r2
 8005a6a:	600b      	str	r3, [r1, #0]
          /* Adjusts the Multiple Speed oscillator (MSI) calibration value.*/
          __HAL_RCC_MSI_CALIBRATIONVALUE_ADJUST(RCC_OscInitStruct->MSICalibrationValue);
 8005a6c:	4b6b      	ldr	r3, [pc, #428]	@ (8005c1c <HAL_RCC_OscConfig+0x270>)
 8005a6e:	685b      	ldr	r3, [r3, #4]
 8005a70:	f423 427f 	bic.w	r2, r3, #65280	@ 0xff00
 8005a74:	687b      	ldr	r3, [r7, #4]
 8005a76:	69db      	ldr	r3, [r3, #28]
 8005a78:	021b      	lsls	r3, r3, #8
 8005a7a:	4968      	ldr	r1, [pc, #416]	@ (8005c1c <HAL_RCC_OscConfig+0x270>)
 8005a7c:	4313      	orrs	r3, r2
 8005a7e:	604b      	str	r3, [r1, #4]
 8005a80:	e025      	b.n	8005ace <HAL_RCC_OscConfig+0x122>
        }
        else
        {
          /* Else, keep current flash latency while decreasing applies */
          /* Selects the Multiple Speed oscillator (MSI) clock range .*/
          __HAL_RCC_MSI_RANGE_CONFIG(RCC_OscInitStruct->MSIClockRange);
 8005a82:	4b66      	ldr	r3, [pc, #408]	@ (8005c1c <HAL_RCC_OscConfig+0x270>)
 8005a84:	681b      	ldr	r3, [r3, #0]
 8005a86:	4a65      	ldr	r2, [pc, #404]	@ (8005c1c <HAL_RCC_OscConfig+0x270>)
 8005a88:	f043 0308 	orr.w	r3, r3, #8
 8005a8c:	6013      	str	r3, [r2, #0]
 8005a8e:	4b63      	ldr	r3, [pc, #396]	@ (8005c1c <HAL_RCC_OscConfig+0x270>)
 8005a90:	681b      	ldr	r3, [r3, #0]
 8005a92:	f023 02f0 	bic.w	r2, r3, #240	@ 0xf0
 8005a96:	687b      	ldr	r3, [r7, #4]
 8005a98:	6a1b      	ldr	r3, [r3, #32]
 8005a9a:	4960      	ldr	r1, [pc, #384]	@ (8005c1c <HAL_RCC_OscConfig+0x270>)
 8005a9c:	4313      	orrs	r3, r2
 8005a9e:	600b      	str	r3, [r1, #0]
          /* Adjusts the Multiple Speed oscillator (MSI) calibration value.*/
          __HAL_RCC_MSI_CALIBRATIONVALUE_ADJUST(RCC_OscInitStruct->MSICalibrationValue);
 8005aa0:	4b5e      	ldr	r3, [pc, #376]	@ (8005c1c <HAL_RCC_OscConfig+0x270>)
 8005aa2:	685b      	ldr	r3, [r3, #4]
 8005aa4:	f423 427f 	bic.w	r2, r3, #65280	@ 0xff00
 8005aa8:	687b      	ldr	r3, [r7, #4]
 8005aaa:	69db      	ldr	r3, [r3, #28]
 8005aac:	021b      	lsls	r3, r3, #8
 8005aae:	495b      	ldr	r1, [pc, #364]	@ (8005c1c <HAL_RCC_OscConfig+0x270>)
 8005ab0:	4313      	orrs	r3, r2
 8005ab2:	604b      	str	r3, [r1, #4]

          /* Decrease number of wait states update if necessary */
          /* Only possible when MSI is the System clock source  */
          if(sysclk_source == RCC_CFGR_SWS_MSI)
 8005ab4:	69bb      	ldr	r3, [r7, #24]
 8005ab6:	2b00      	cmp	r3, #0
 8005ab8:	d109      	bne.n	8005ace <HAL_RCC_OscConfig+0x122>
          {
            if(RCC_SetFlashLatencyFromMSIRange(RCC_OscInitStruct->MSIClockRange) != HAL_OK)
 8005aba:	687b      	ldr	r3, [r7, #4]
 8005abc:	6a1b      	ldr	r3, [r3, #32]
 8005abe:	4618      	mov	r0, r3
 8005ac0:	f000 fd4c 	bl	800655c <RCC_SetFlashLatencyFromMSIRange>
 8005ac4:	4603      	mov	r3, r0
 8005ac6:	2b00      	cmp	r3, #0
 8005ac8:	d001      	beq.n	8005ace <HAL_RCC_OscConfig+0x122>
            {
              return HAL_ERROR;
 8005aca:	2301      	movs	r3, #1
 8005acc:	e37a      	b.n	80061c4 <HAL_RCC_OscConfig+0x818>
            }
          }
        }

        /* Update the SystemCoreClock global variable */
        SystemCoreClock = HAL_RCC_GetSysClockFreq() >> (AHBPrescTable[READ_BIT(RCC->CFGR, RCC_CFGR_HPRE) >> RCC_CFGR_HPRE_Pos] & 0x1FU);
 8005ace:	f000 fc81 	bl	80063d4 <HAL_RCC_GetSysClockFreq>
 8005ad2:	4602      	mov	r2, r0
 8005ad4:	4b51      	ldr	r3, [pc, #324]	@ (8005c1c <HAL_RCC_OscConfig+0x270>)
 8005ad6:	689b      	ldr	r3, [r3, #8]
 8005ad8:	091b      	lsrs	r3, r3, #4
 8005ada:	f003 030f 	and.w	r3, r3, #15
 8005ade:	4950      	ldr	r1, [pc, #320]	@ (8005c20 <HAL_RCC_OscConfig+0x274>)
 8005ae0:	5ccb      	ldrb	r3, [r1, r3]
 8005ae2:	f003 031f 	and.w	r3, r3, #31
 8005ae6:	fa22 f303 	lsr.w	r3, r2, r3
 8005aea:	4a4e      	ldr	r2, [pc, #312]	@ (8005c24 <HAL_RCC_OscConfig+0x278>)
 8005aec:	6013      	str	r3, [r2, #0]

        /* Configure the source of time base considering new system clocks settings*/
        status = HAL_InitTick(uwTickPrio);
 8005aee:	4b4e      	ldr	r3, [pc, #312]	@ (8005c28 <HAL_RCC_OscConfig+0x27c>)
 8005af0:	681b      	ldr	r3, [r3, #0]
 8005af2:	4618      	mov	r0, r3
 8005af4:	f7fe fa1a 	bl	8003f2c <HAL_InitTick>
 8005af8:	4603      	mov	r3, r0
 8005afa:	73fb      	strb	r3, [r7, #15]
        if(status != HAL_OK)
 8005afc:	7bfb      	ldrb	r3, [r7, #15]
 8005afe:	2b00      	cmp	r3, #0
 8005b00:	d052      	beq.n	8005ba8 <HAL_RCC_OscConfig+0x1fc>
        {
          return status;
 8005b02:	7bfb      	ldrb	r3, [r7, #15]
 8005b04:	e35e      	b.n	80061c4 <HAL_RCC_OscConfig+0x818>
      }
    }
    else
    {
      /* Check the MSI State */
      if(RCC_OscInitStruct->MSIState != RCC_MSI_OFF)
 8005b06:	687b      	ldr	r3, [r7, #4]
 8005b08:	699b      	ldr	r3, [r3, #24]
 8005b0a:	2b00      	cmp	r3, #0
 8005b0c:	d032      	beq.n	8005b74 <HAL_RCC_OscConfig+0x1c8>
      {
        /* Enable the Internal High Speed oscillator (MSI). */
        __HAL_RCC_MSI_ENABLE();
 8005b0e:	4b43      	ldr	r3, [pc, #268]	@ (8005c1c <HAL_RCC_OscConfig+0x270>)
 8005b10:	681b      	ldr	r3, [r3, #0]
 8005b12:	4a42      	ldr	r2, [pc, #264]	@ (8005c1c <HAL_RCC_OscConfig+0x270>)
 8005b14:	f043 0301 	orr.w	r3, r3, #1
 8005b18:	6013      	str	r3, [r2, #0]

        /* Get timeout */
        tickstart = HAL_GetTick();
 8005b1a:	f7fe fa57 	bl	8003fcc <HAL_GetTick>
 8005b1e:	6138      	str	r0, [r7, #16]

        /* Wait till MSI is ready */
        while(READ_BIT(RCC->CR, RCC_CR_MSIRDY) == 0U)
 8005b20:	e008      	b.n	8005b34 <HAL_RCC_OscConfig+0x188>
        {
          if((HAL_GetTick() - tickstart) > MSI_TIMEOUT_VALUE)
 8005b22:	f7fe fa53 	bl	8003fcc <HAL_GetTick>
 8005b26:	4602      	mov	r2, r0
 8005b28:	693b      	ldr	r3, [r7, #16]
 8005b2a:	1ad3      	subs	r3, r2, r3
 8005b2c:	2b02      	cmp	r3, #2
 8005b2e:	d901      	bls.n	8005b34 <HAL_RCC_OscConfig+0x188>
          {
            return HAL_TIMEOUT;
 8005b30:	2303      	movs	r3, #3
 8005b32:	e347      	b.n	80061c4 <HAL_RCC_OscConfig+0x818>
        while(READ_BIT(RCC->CR, RCC_CR_MSIRDY) == 0U)
 8005b34:	4b39      	ldr	r3, [pc, #228]	@ (8005c1c <HAL_RCC_OscConfig+0x270>)
 8005b36:	681b      	ldr	r3, [r3, #0]
 8005b38:	f003 0302 	and.w	r3, r3, #2
 8005b3c:	2b00      	cmp	r3, #0
 8005b3e:	d0f0      	beq.n	8005b22 <HAL_RCC_OscConfig+0x176>
          }
        }
         /* Selects the Multiple Speed oscillator (MSI) clock range .*/
        __HAL_RCC_MSI_RANGE_CONFIG(RCC_OscInitStruct->MSIClockRange);
 8005b40:	4b36      	ldr	r3, [pc, #216]	@ (8005c1c <HAL_RCC_OscConfig+0x270>)
 8005b42:	681b      	ldr	r3, [r3, #0]
 8005b44:	4a35      	ldr	r2, [pc, #212]	@ (8005c1c <HAL_RCC_OscConfig+0x270>)
 8005b46:	f043 0308 	orr.w	r3, r3, #8
 8005b4a:	6013      	str	r3, [r2, #0]
 8005b4c:	4b33      	ldr	r3, [pc, #204]	@ (8005c1c <HAL_RCC_OscConfig+0x270>)
 8005b4e:	681b      	ldr	r3, [r3, #0]
 8005b50:	f023 02f0 	bic.w	r2, r3, #240	@ 0xf0
 8005b54:	687b      	ldr	r3, [r7, #4]
 8005b56:	6a1b      	ldr	r3, [r3, #32]
 8005b58:	4930      	ldr	r1, [pc, #192]	@ (8005c1c <HAL_RCC_OscConfig+0x270>)
 8005b5a:	4313      	orrs	r3, r2
 8005b5c:	600b      	str	r3, [r1, #0]
         /* Adjusts the Multiple Speed oscillator (MSI) calibration value.*/
        __HAL_RCC_MSI_CALIBRATIONVALUE_ADJUST(RCC_OscInitStruct->MSICalibrationValue);
 8005b5e:	4b2f      	ldr	r3, [pc, #188]	@ (8005c1c <HAL_RCC_OscConfig+0x270>)
 8005b60:	685b      	ldr	r3, [r3, #4]
 8005b62:	f423 427f 	bic.w	r2, r3, #65280	@ 0xff00
 8005b66:	687b      	ldr	r3, [r7, #4]
 8005b68:	69db      	ldr	r3, [r3, #28]
 8005b6a:	021b      	lsls	r3, r3, #8
 8005b6c:	492b      	ldr	r1, [pc, #172]	@ (8005c1c <HAL_RCC_OscConfig+0x270>)
 8005b6e:	4313      	orrs	r3, r2
 8005b70:	604b      	str	r3, [r1, #4]
 8005b72:	e01a      	b.n	8005baa <HAL_RCC_OscConfig+0x1fe>

      }
      else
      {
        /* Disable the Internal High Speed oscillator (MSI). */
        __HAL_RCC_MSI_DISABLE();
 8005b74:	4b29      	ldr	r3, [pc, #164]	@ (8005c1c <HAL_RCC_OscConfig+0x270>)
 8005b76:	681b      	ldr	r3, [r3, #0]
 8005b78:	4a28      	ldr	r2, [pc, #160]	@ (8005c1c <HAL_RCC_OscConfig+0x270>)
 8005b7a:	f023 0301 	bic.w	r3, r3, #1
 8005b7e:	6013      	str	r3, [r2, #0]

        /* Get timeout */
        tickstart = HAL_GetTick();
 8005b80:	f7fe fa24 	bl	8003fcc <HAL_GetTick>
 8005b84:	6138      	str	r0, [r7, #16]

        /* Wait till MSI is ready */
        while(READ_BIT(RCC->CR, RCC_CR_MSIRDY) != 0U)
 8005b86:	e008      	b.n	8005b9a <HAL_RCC_OscConfig+0x1ee>
        {
          if((HAL_GetTick() - tickstart) > MSI_TIMEOUT_VALUE)
 8005b88:	f7fe fa20 	bl	8003fcc <HAL_GetTick>
 8005b8c:	4602      	mov	r2, r0
 8005b8e:	693b      	ldr	r3, [r7, #16]
 8005b90:	1ad3      	subs	r3, r2, r3
 8005b92:	2b02      	cmp	r3, #2
 8005b94:	d901      	bls.n	8005b9a <HAL_RCC_OscConfig+0x1ee>
          {
            return HAL_TIMEOUT;
 8005b96:	2303      	movs	r3, #3
 8005b98:	e314      	b.n	80061c4 <HAL_RCC_OscConfig+0x818>
        while(READ_BIT(RCC->CR, RCC_CR_MSIRDY) != 0U)
 8005b9a:	4b20      	ldr	r3, [pc, #128]	@ (8005c1c <HAL_RCC_OscConfig+0x270>)
 8005b9c:	681b      	ldr	r3, [r3, #0]
 8005b9e:	f003 0302 	and.w	r3, r3, #2
 8005ba2:	2b00      	cmp	r3, #0
 8005ba4:	d1f0      	bne.n	8005b88 <HAL_RCC_OscConfig+0x1dc>
 8005ba6:	e000      	b.n	8005baa <HAL_RCC_OscConfig+0x1fe>
      if((READ_BIT(RCC->CR, RCC_CR_MSIRDY) != 0U) && (RCC_OscInitStruct->MSIState == RCC_MSI_OFF))
 8005ba8:	bf00      	nop
        }
      }
    }
  }
  /*------------------------------- HSE Configuration ------------------------*/
  if(((RCC_OscInitStruct->OscillatorType) & RCC_OSCILLATORTYPE_HSE) == RCC_OSCILLATORTYPE_HSE)
 8005baa:	687b      	ldr	r3, [r7, #4]
 8005bac:	681b      	ldr	r3, [r3, #0]
 8005bae:	f003 0301 	and.w	r3, r3, #1
 8005bb2:	2b00      	cmp	r3, #0
 8005bb4:	d073      	beq.n	8005c9e <HAL_RCC_OscConfig+0x2f2>
  {
    /* Check the parameters */
    assert_param(IS_RCC_HSE(RCC_OscInitStruct->HSEState));

    /* When the HSE is used as system clock or clock source for PLL in these cases it is not allowed to be disabled */
    if((sysclk_source == RCC_CFGR_SWS_HSE) ||
 8005bb6:	69bb      	ldr	r3, [r7, #24]
 8005bb8:	2b08      	cmp	r3, #8
 8005bba:	d005      	beq.n	8005bc8 <HAL_RCC_OscConfig+0x21c>
 8005bbc:	69bb      	ldr	r3, [r7, #24]
 8005bbe:	2b0c      	cmp	r3, #12
 8005bc0:	d10e      	bne.n	8005be0 <HAL_RCC_OscConfig+0x234>
       ((sysclk_source == RCC_CFGR_SWS_PLL) && (pll_config == RCC_PLLSOURCE_HSE)))
 8005bc2:	697b      	ldr	r3, [r7, #20]
 8005bc4:	2b03      	cmp	r3, #3
 8005bc6:	d10b      	bne.n	8005be0 <HAL_RCC_OscConfig+0x234>
    {
      if((READ_BIT(RCC->CR, RCC_CR_HSERDY) != 0U) && (RCC_OscInitStruct->HSEState == RCC_HSE_OFF))
 8005bc8:	4b14      	ldr	r3, [pc, #80]	@ (8005c1c <HAL_RCC_OscConfig+0x270>)
 8005bca:	681b      	ldr	r3, [r3, #0]
 8005bcc:	f403 3300 	and.w	r3, r3, #131072	@ 0x20000
 8005bd0:	2b00      	cmp	r3, #0
 8005bd2:	d063      	beq.n	8005c9c <HAL_RCC_OscConfig+0x2f0>
 8005bd4:	687b      	ldr	r3, [r7, #4]
 8005bd6:	685b      	ldr	r3, [r3, #4]
 8005bd8:	2b00      	cmp	r3, #0
 8005bda:	d15f      	bne.n	8005c9c <HAL_RCC_OscConfig+0x2f0>
      {
        return HAL_ERROR;
 8005bdc:	2301      	movs	r3, #1
 8005bde:	e2f1      	b.n	80061c4 <HAL_RCC_OscConfig+0x818>
      }
    }
    else
    {
      /* Set the new HSE configuration ---------------------------------------*/
      __HAL_RCC_HSE_CONFIG(RCC_OscInitStruct->HSEState);
 8005be0:	687b      	ldr	r3, [r7, #4]
 8005be2:	685b      	ldr	r3, [r3, #4]
 8005be4:	f5b3 3f80 	cmp.w	r3, #65536	@ 0x10000
 8005be8:	d106      	bne.n	8005bf8 <HAL_RCC_OscConfig+0x24c>
 8005bea:	4b0c      	ldr	r3, [pc, #48]	@ (8005c1c <HAL_RCC_OscConfig+0x270>)
 8005bec:	681b      	ldr	r3, [r3, #0]
 8005bee:	4a0b      	ldr	r2, [pc, #44]	@ (8005c1c <HAL_RCC_OscConfig+0x270>)
 8005bf0:	f443 3380 	orr.w	r3, r3, #65536	@ 0x10000
 8005bf4:	6013      	str	r3, [r2, #0]
 8005bf6:	e025      	b.n	8005c44 <HAL_RCC_OscConfig+0x298>
 8005bf8:	687b      	ldr	r3, [r7, #4]
 8005bfa:	685b      	ldr	r3, [r3, #4]
 8005bfc:	f5b3 2fa0 	cmp.w	r3, #327680	@ 0x50000
 8005c00:	d114      	bne.n	8005c2c <HAL_RCC_OscConfig+0x280>
 8005c02:	4b06      	ldr	r3, [pc, #24]	@ (8005c1c <HAL_RCC_OscConfig+0x270>)
 8005c04:	681b      	ldr	r3, [r3, #0]
 8005c06:	4a05      	ldr	r2, [pc, #20]	@ (8005c1c <HAL_RCC_OscConfig+0x270>)
 8005c08:	f443 2380 	orr.w	r3, r3, #262144	@ 0x40000
 8005c0c:	6013      	str	r3, [r2, #0]
 8005c0e:	4b03      	ldr	r3, [pc, #12]	@ (8005c1c <HAL_RCC_OscConfig+0x270>)
 8005c10:	681b      	ldr	r3, [r3, #0]
 8005c12:	4a02      	ldr	r2, [pc, #8]	@ (8005c1c <HAL_RCC_OscConfig+0x270>)
 8005c14:	f443 3380 	orr.w	r3, r3, #65536	@ 0x10000
 8005c18:	6013      	str	r3, [r2, #0]
 8005c1a:	e013      	b.n	8005c44 <HAL_RCC_OscConfig+0x298>
 8005c1c:	40021000 	.word	0x40021000
 8005c20:	08008608 	.word	0x08008608
 8005c24:	20000000 	.word	0x20000000
 8005c28:	20000004 	.word	0x20000004
 8005c2c:	4ba0      	ldr	r3, [pc, #640]	@ (8005eb0 <HAL_RCC_OscConfig+0x504>)
 8005c2e:	681b      	ldr	r3, [r3, #0]
 8005c30:	4a9f      	ldr	r2, [pc, #636]	@ (8005eb0 <HAL_RCC_OscConfig+0x504>)
 8005c32:	f423 3380 	bic.w	r3, r3, #65536	@ 0x10000
 8005c36:	6013      	str	r3, [r2, #0]
 8005c38:	4b9d      	ldr	r3, [pc, #628]	@ (8005eb0 <HAL_RCC_OscConfig+0x504>)
 8005c3a:	681b      	ldr	r3, [r3, #0]
 8005c3c:	4a9c      	ldr	r2, [pc, #624]	@ (8005eb0 <HAL_RCC_OscConfig+0x504>)
 8005c3e:	f423 2380 	bic.w	r3, r3, #262144	@ 0x40000
 8005c42:	6013      	str	r3, [r2, #0]

      /* Check the HSE State */
      if(RCC_OscInitStruct->HSEState != RCC_HSE_OFF)
 8005c44:	687b      	ldr	r3, [r7, #4]
 8005c46:	685b      	ldr	r3, [r3, #4]
 8005c48:	2b00      	cmp	r3, #0
 8005c4a:	d013      	beq.n	8005c74 <HAL_RCC_OscConfig+0x2c8>
      {
        /* Get Start Tick*/
        tickstart = HAL_GetTick();
 8005c4c:	f7fe f9be 	bl	8003fcc <HAL_GetTick>
 8005c50:	6138      	str	r0, [r7, #16]

        /* Wait till HSE is ready */
        while(READ_BIT(RCC->CR, RCC_CR_HSERDY) == 0U)
 8005c52:	e008      	b.n	8005c66 <HAL_RCC_OscConfig+0x2ba>
        {
          if((HAL_GetTick() - tickstart) > HSE_TIMEOUT_VALUE)
 8005c54:	f7fe f9ba 	bl	8003fcc <HAL_GetTick>
 8005c58:	4602      	mov	r2, r0
 8005c5a:	693b      	ldr	r3, [r7, #16]
 8005c5c:	1ad3      	subs	r3, r2, r3
 8005c5e:	2b64      	cmp	r3, #100	@ 0x64
 8005c60:	d901      	bls.n	8005c66 <HAL_RCC_OscConfig+0x2ba>
          {
            return HAL_TIMEOUT;
 8005c62:	2303      	movs	r3, #3
 8005c64:	e2ae      	b.n	80061c4 <HAL_RCC_OscConfig+0x818>
        while(READ_BIT(RCC->CR, RCC_CR_HSERDY) == 0U)
 8005c66:	4b92      	ldr	r3, [pc, #584]	@ (8005eb0 <HAL_RCC_OscConfig+0x504>)
 8005c68:	681b      	ldr	r3, [r3, #0]
 8005c6a:	f403 3300 	and.w	r3, r3, #131072	@ 0x20000
 8005c6e:	2b00      	cmp	r3, #0
 8005c70:	d0f0      	beq.n	8005c54 <HAL_RCC_OscConfig+0x2a8>
 8005c72:	e014      	b.n	8005c9e <HAL_RCC_OscConfig+0x2f2>
        }
      }
      else
      {
        /* Get Start Tick*/
        tickstart = HAL_GetTick();
 8005c74:	f7fe f9aa 	bl	8003fcc <HAL_GetTick>
 8005c78:	6138      	str	r0, [r7, #16]

        /* Wait till HSE is disabled */
        while(READ_BIT(RCC->CR, RCC_CR_HSERDY) != 0U)
 8005c7a:	e008      	b.n	8005c8e <HAL_RCC_OscConfig+0x2e2>
        {
          if((HAL_GetTick() - tickstart) > HSE_TIMEOUT_VALUE)
 8005c7c:	f7fe f9a6 	bl	8003fcc <HAL_GetTick>
 8005c80:	4602      	mov	r2, r0
 8005c82:	693b      	ldr	r3, [r7, #16]
 8005c84:	1ad3      	subs	r3, r2, r3
 8005c86:	2b64      	cmp	r3, #100	@ 0x64
 8005c88:	d901      	bls.n	8005c8e <HAL_RCC_OscConfig+0x2e2>
          {
            return HAL_TIMEOUT;
 8005c8a:	2303      	movs	r3, #3
 8005c8c:	e29a      	b.n	80061c4 <HAL_RCC_OscConfig+0x818>
        while(READ_BIT(RCC->CR, RCC_CR_HSERDY) != 0U)
 8005c8e:	4b88      	ldr	r3, [pc, #544]	@ (8005eb0 <HAL_RCC_OscConfig+0x504>)
 8005c90:	681b      	ldr	r3, [r3, #0]
 8005c92:	f403 3300 	and.w	r3, r3, #131072	@ 0x20000
 8005c96:	2b00      	cmp	r3, #0
 8005c98:	d1f0      	bne.n	8005c7c <HAL_RCC_OscConfig+0x2d0>
 8005c9a:	e000      	b.n	8005c9e <HAL_RCC_OscConfig+0x2f2>
      if((READ_BIT(RCC->CR, RCC_CR_HSERDY) != 0U) && (RCC_OscInitStruct->HSEState == RCC_HSE_OFF))
 8005c9c:	bf00      	nop
        }
      }
    }
  }
  /*----------------------------- HSI Configuration --------------------------*/
  if(((RCC_OscInitStruct->OscillatorType) & RCC_OSCILLATORTYPE_HSI) == RCC_OSCILLATORTYPE_HSI)
 8005c9e:	687b      	ldr	r3, [r7, #4]
 8005ca0:	681b      	ldr	r3, [r3, #0]
 8005ca2:	f003 0302 	and.w	r3, r3, #2
 8005ca6:	2b00      	cmp	r3, #0
 8005ca8:	d060      	beq.n	8005d6c <HAL_RCC_OscConfig+0x3c0>
    /* Check the parameters */
    assert_param(IS_RCC_HSI(RCC_OscInitStruct->HSIState));
    assert_param(IS_RCC_HSI_CALIBRATION_VALUE(RCC_OscInitStruct->HSICalibrationValue));

    /* Check if HSI is used as system clock or as PLL source when PLL is selected as system clock */
    if((sysclk_source == RCC_CFGR_SWS_HSI) ||
 8005caa:	69bb      	ldr	r3, [r7, #24]
 8005cac:	2b04      	cmp	r3, #4
 8005cae:	d005      	beq.n	8005cbc <HAL_RCC_OscConfig+0x310>
 8005cb0:	69bb      	ldr	r3, [r7, #24]
 8005cb2:	2b0c      	cmp	r3, #12
 8005cb4:	d119      	bne.n	8005cea <HAL_RCC_OscConfig+0x33e>
       ((sysclk_source == RCC_CFGR_SWS_PLL) && (pll_config == RCC_PLLSOURCE_HSI)))
 8005cb6:	697b      	ldr	r3, [r7, #20]
 8005cb8:	2b02      	cmp	r3, #2
 8005cba:	d116      	bne.n	8005cea <HAL_RCC_OscConfig+0x33e>
    {
      /* When HSI is used as system clock it will not be disabled */
      if((READ_BIT(RCC->CR, RCC_CR_HSIRDY) != 0U) && (RCC_OscInitStruct->HSIState == RCC_HSI_OFF))
 8005cbc:	4b7c      	ldr	r3, [pc, #496]	@ (8005eb0 <HAL_RCC_OscConfig+0x504>)
 8005cbe:	681b      	ldr	r3, [r3, #0]
 8005cc0:	f403 6380 	and.w	r3, r3, #1024	@ 0x400
 8005cc4:	2b00      	cmp	r3, #0
 8005cc6:	d005      	beq.n	8005cd4 <HAL_RCC_OscConfig+0x328>
 8005cc8:	687b      	ldr	r3, [r7, #4]
 8005cca:	68db      	ldr	r3, [r3, #12]
 8005ccc:	2b00      	cmp	r3, #0
 8005cce:	d101      	bne.n	8005cd4 <HAL_RCC_OscConfig+0x328>
      {
        return HAL_ERROR;
 8005cd0:	2301      	movs	r3, #1
 8005cd2:	e277      	b.n	80061c4 <HAL_RCC_OscConfig+0x818>
      }
      /* Otherwise, just the calibration is allowed */
      else
      {
        /* Adjusts the Internal High Speed oscillator (HSI) calibration value.*/
        __HAL_RCC_HSI_CALIBRATIONVALUE_ADJUST(RCC_OscInitStruct->HSICalibrationValue);
 8005cd4:	4b76      	ldr	r3, [pc, #472]	@ (8005eb0 <HAL_RCC_OscConfig+0x504>)
 8005cd6:	685b      	ldr	r3, [r3, #4]
 8005cd8:	f023 52f8 	bic.w	r2, r3, #520093696	@ 0x1f000000
 8005cdc:	687b      	ldr	r3, [r7, #4]
 8005cde:	691b      	ldr	r3, [r3, #16]
 8005ce0:	061b      	lsls	r3, r3, #24
 8005ce2:	4973      	ldr	r1, [pc, #460]	@ (8005eb0 <HAL_RCC_OscConfig+0x504>)
 8005ce4:	4313      	orrs	r3, r2
 8005ce6:	604b      	str	r3, [r1, #4]
      if((READ_BIT(RCC->CR, RCC_CR_HSIRDY) != 0U) && (RCC_OscInitStruct->HSIState == RCC_HSI_OFF))
 8005ce8:	e040      	b.n	8005d6c <HAL_RCC_OscConfig+0x3c0>
      }
    }
    else
    {
      /* Check the HSI State */
      if(RCC_OscInitStruct->HSIState != RCC_HSI_OFF)
 8005cea:	687b      	ldr	r3, [r7, #4]
 8005cec:	68db      	ldr	r3, [r3, #12]
 8005cee:	2b00      	cmp	r3, #0
 8005cf0:	d023      	beq.n	8005d3a <HAL_RCC_OscConfig+0x38e>
      {
        /* Enable the Internal High Speed oscillator (HSI). */
        __HAL_RCC_HSI_ENABLE();
 8005cf2:	4b6f      	ldr	r3, [pc, #444]	@ (8005eb0 <HAL_RCC_OscConfig+0x504>)
 8005cf4:	681b      	ldr	r3, [r3, #0]
 8005cf6:	4a6e      	ldr	r2, [pc, #440]	@ (8005eb0 <HAL_RCC_OscConfig+0x504>)
 8005cf8:	f443 7380 	orr.w	r3, r3, #256	@ 0x100
 8005cfc:	6013      	str	r3, [r2, #0]

        /* Get Start Tick*/
        tickstart = HAL_GetTick();
 8005cfe:	f7fe f965 	bl	8003fcc <HAL_GetTick>
 8005d02:	6138      	str	r0, [r7, #16]

        /* Wait till HSI is ready */
        while(READ_BIT(RCC->CR, RCC_CR_HSIRDY) == 0U)
 8005d04:	e008      	b.n	8005d18 <HAL_RCC_OscConfig+0x36c>
        {
          if((HAL_GetTick() - tickstart) > HSI_TIMEOUT_VALUE)
 8005d06:	f7fe f961 	bl	8003fcc <HAL_GetTick>
 8005d0a:	4602      	mov	r2, r0
 8005d0c:	693b      	ldr	r3, [r7, #16]
 8005d0e:	1ad3      	subs	r3, r2, r3
 8005d10:	2b02      	cmp	r3, #2
 8005d12:	d901      	bls.n	8005d18 <HAL_RCC_OscConfig+0x36c>
          {
            return HAL_TIMEOUT;
 8005d14:	2303      	movs	r3, #3
 8005d16:	e255      	b.n	80061c4 <HAL_RCC_OscConfig+0x818>
        while(READ_BIT(RCC->CR, RCC_CR_HSIRDY) == 0U)
 8005d18:	4b65      	ldr	r3, [pc, #404]	@ (8005eb0 <HAL_RCC_OscConfig+0x504>)
 8005d1a:	681b      	ldr	r3, [r3, #0]
 8005d1c:	f403 6380 	and.w	r3, r3, #1024	@ 0x400
 8005d20:	2b00      	cmp	r3, #0
 8005d22:	d0f0      	beq.n	8005d06 <HAL_RCC_OscConfig+0x35a>
          }
        }

        /* Adjusts the Internal High Speed oscillator (HSI) calibration value.*/
        __HAL_RCC_HSI_CALIBRATIONVALUE_ADJUST(RCC_OscInitStruct->HSICalibrationValue);
 8005d24:	4b62      	ldr	r3, [pc, #392]	@ (8005eb0 <HAL_RCC_OscConfig+0x504>)
 8005d26:	685b      	ldr	r3, [r3, #4]
 8005d28:	f023 52f8 	bic.w	r2, r3, #520093696	@ 0x1f000000
 8005d2c:	687b      	ldr	r3, [r7, #4]
 8005d2e:	691b      	ldr	r3, [r3, #16]
 8005d30:	061b      	lsls	r3, r3, #24
 8005d32:	495f      	ldr	r1, [pc, #380]	@ (8005eb0 <HAL_RCC_OscConfig+0x504>)
 8005d34:	4313      	orrs	r3, r2
 8005d36:	604b      	str	r3, [r1, #4]
 8005d38:	e018      	b.n	8005d6c <HAL_RCC_OscConfig+0x3c0>
      }
      else
      {
        /* Disable the Internal High Speed oscillator (HSI). */
        __HAL_RCC_HSI_DISABLE();
 8005d3a:	4b5d      	ldr	r3, [pc, #372]	@ (8005eb0 <HAL_RCC_OscConfig+0x504>)
 8005d3c:	681b      	ldr	r3, [r3, #0]
 8005d3e:	4a5c      	ldr	r2, [pc, #368]	@ (8005eb0 <HAL_RCC_OscConfig+0x504>)
 8005d40:	f423 7380 	bic.w	r3, r3, #256	@ 0x100
 8005d44:	6013      	str	r3, [r2, #0]

        /* Get Start Tick*/
        tickstart = HAL_GetTick();
 8005d46:	f7fe f941 	bl	8003fcc <HAL_GetTick>
 8005d4a:	6138      	str	r0, [r7, #16]

        /* Wait till HSI is disabled */
        while(READ_BIT(RCC->CR, RCC_CR_HSIRDY) != 0U)
 8005d4c:	e008      	b.n	8005d60 <HAL_RCC_OscConfig+0x3b4>
        {
          if((HAL_GetTick() - tickstart) > HSI_TIMEOUT_VALUE)
 8005d4e:	f7fe f93d 	bl	8003fcc <HAL_GetTick>
 8005d52:	4602      	mov	r2, r0
 8005d54:	693b      	ldr	r3, [r7, #16]
 8005d56:	1ad3      	subs	r3, r2, r3
 8005d58:	2b02      	cmp	r3, #2
 8005d5a:	d901      	bls.n	8005d60 <HAL_RCC_OscConfig+0x3b4>
          {
            return HAL_TIMEOUT;
 8005d5c:	2303      	movs	r3, #3
 8005d5e:	e231      	b.n	80061c4 <HAL_RCC_OscConfig+0x818>
        while(READ_BIT(RCC->CR, RCC_CR_HSIRDY) != 0U)
 8005d60:	4b53      	ldr	r3, [pc, #332]	@ (8005eb0 <HAL_RCC_OscConfig+0x504>)
 8005d62:	681b      	ldr	r3, [r3, #0]
 8005d64:	f403 6380 	and.w	r3, r3, #1024	@ 0x400
 8005d68:	2b00      	cmp	r3, #0
 8005d6a:	d1f0      	bne.n	8005d4e <HAL_RCC_OscConfig+0x3a2>
        }
      }
    }
  }
  /*------------------------------ LSI Configuration -------------------------*/
  if(((RCC_OscInitStruct->OscillatorType) & RCC_OSCILLATORTYPE_LSI) == RCC_OSCILLATORTYPE_LSI)
 8005d6c:	687b      	ldr	r3, [r7, #4]
 8005d6e:	681b      	ldr	r3, [r3, #0]
 8005d70:	f003 0308 	and.w	r3, r3, #8
 8005d74:	2b00      	cmp	r3, #0
 8005d76:	d03c      	beq.n	8005df2 <HAL_RCC_OscConfig+0x446>
  {
    /* Check the parameters */
    assert_param(IS_RCC_LSI(RCC_OscInitStruct->LSIState));

    /* Check the LSI State */
    if(RCC_OscInitStruct->LSIState != RCC_LSI_OFF)
 8005d78:	687b      	ldr	r3, [r7, #4]
 8005d7a:	695b      	ldr	r3, [r3, #20]
 8005d7c:	2b00      	cmp	r3, #0
 8005d7e:	d01c      	beq.n	8005dba <HAL_RCC_OscConfig+0x40e>
        MODIFY_REG(RCC->CSR, RCC_CSR_LSIPREDIV, RCC_OscInitStruct->LSIDiv);
      }
#endif /* RCC_CSR_LSIPREDIV */

      /* Enable the Internal Low Speed oscillator (LSI). */
      __HAL_RCC_LSI_ENABLE();
 8005d80:	4b4b      	ldr	r3, [pc, #300]	@ (8005eb0 <HAL_RCC_OscConfig+0x504>)
 8005d82:	f8d3 3094 	ldr.w	r3, [r3, #148]	@ 0x94
 8005d86:	4a4a      	ldr	r2, [pc, #296]	@ (8005eb0 <HAL_RCC_OscConfig+0x504>)
 8005d88:	f043 0301 	orr.w	r3, r3, #1
 8005d8c:	f8c2 3094 	str.w	r3, [r2, #148]	@ 0x94

      /* Get Start Tick*/
      tickstart = HAL_GetTick();
 8005d90:	f7fe f91c 	bl	8003fcc <HAL_GetTick>
 8005d94:	6138      	str	r0, [r7, #16]

      /* Wait till LSI is ready */
      while(READ_BIT(RCC->CSR, RCC_CSR_LSIRDY) == 0U)
 8005d96:	e008      	b.n	8005daa <HAL_RCC_OscConfig+0x3fe>
      {
        if((HAL_GetTick() - tickstart) > LSI_TIMEOUT_VALUE)
 8005d98:	f7fe f918 	bl	8003fcc <HAL_GetTick>
 8005d9c:	4602      	mov	r2, r0
 8005d9e:	693b      	ldr	r3, [r7, #16]
 8005da0:	1ad3      	subs	r3, r2, r3
 8005da2:	2b02      	cmp	r3, #2
 8005da4:	d901      	bls.n	8005daa <HAL_RCC_OscConfig+0x3fe>
        {
          return HAL_TIMEOUT;
 8005da6:	2303      	movs	r3, #3
 8005da8:	e20c      	b.n	80061c4 <HAL_RCC_OscConfig+0x818>
      while(READ_BIT(RCC->CSR, RCC_CSR_LSIRDY) == 0U)
 8005daa:	4b41      	ldr	r3, [pc, #260]	@ (8005eb0 <HAL_RCC_OscConfig+0x504>)
 8005dac:	f8d3 3094 	ldr.w	r3, [r3, #148]	@ 0x94
 8005db0:	f003 0302 	and.w	r3, r3, #2
 8005db4:	2b00      	cmp	r3, #0
 8005db6:	d0ef      	beq.n	8005d98 <HAL_RCC_OscConfig+0x3ec>
 8005db8:	e01b      	b.n	8005df2 <HAL_RCC_OscConfig+0x446>
      }
    }
    else
    {
      /* Disable the Internal Low Speed oscillator (LSI). */
      __HAL_RCC_LSI_DISABLE();
 8005dba:	4b3d      	ldr	r3, [pc, #244]	@ (8005eb0 <HAL_RCC_OscConfig+0x504>)
 8005dbc:	f8d3 3094 	ldr.w	r3, [r3, #148]	@ 0x94
 8005dc0:	4a3b      	ldr	r2, [pc, #236]	@ (8005eb0 <HAL_RCC_OscConfig+0x504>)
 8005dc2:	f023 0301 	bic.w	r3, r3, #1
 8005dc6:	f8c2 3094 	str.w	r3, [r2, #148]	@ 0x94

      /* Get Start Tick*/
      tickstart = HAL_GetTick();
 8005dca:	f7fe f8ff 	bl	8003fcc <HAL_GetTick>
 8005dce:	6138      	str	r0, [r7, #16]

      /* Wait till LSI is disabled */
      while(READ_BIT(RCC->CSR, RCC_CSR_LSIRDY) != 0U)
 8005dd0:	e008      	b.n	8005de4 <HAL_RCC_OscConfig+0x438>
      {
        if((HAL_GetTick() - tickstart) > LSI_TIMEOUT_VALUE)
 8005dd2:	f7fe f8fb 	bl	8003fcc <HAL_GetTick>
 8005dd6:	4602      	mov	r2, r0
 8005dd8:	693b      	ldr	r3, [r7, #16]
 8005dda:	1ad3      	subs	r3, r2, r3
 8005ddc:	2b02      	cmp	r3, #2
 8005dde:	d901      	bls.n	8005de4 <HAL_RCC_OscConfig+0x438>
        {
          return HAL_TIMEOUT;
 8005de0:	2303      	movs	r3, #3
 8005de2:	e1ef      	b.n	80061c4 <HAL_RCC_OscConfig+0x818>
      while(READ_BIT(RCC->CSR, RCC_CSR_LSIRDY) != 0U)
 8005de4:	4b32      	ldr	r3, [pc, #200]	@ (8005eb0 <HAL_RCC_OscConfig+0x504>)
 8005de6:	f8d3 3094 	ldr.w	r3, [r3, #148]	@ 0x94
 8005dea:	f003 0302 	and.w	r3, r3, #2
 8005dee:	2b00      	cmp	r3, #0
 8005df0:	d1ef      	bne.n	8005dd2 <HAL_RCC_OscConfig+0x426>
        }
      }
    }
  }
  /*------------------------------ LSE Configuration -------------------------*/
  if(((RCC_OscInitStruct->OscillatorType) & RCC_OSCILLATORTYPE_LSE) == RCC_OSCILLATORTYPE_LSE)
 8005df2:	687b      	ldr	r3, [r7, #4]
 8005df4:	681b      	ldr	r3, [r3, #0]
 8005df6:	f003 0304 	and.w	r3, r3, #4
 8005dfa:	2b00      	cmp	r3, #0
 8005dfc:	f000 80a6 	beq.w	8005f4c <HAL_RCC_OscConfig+0x5a0>
  {
    FlagStatus       pwrclkchanged = RESET;
 8005e00:	2300      	movs	r3, #0
 8005e02:	77fb      	strb	r3, [r7, #31]
    /* Check the parameters */
    assert_param(IS_RCC_LSE(RCC_OscInitStruct->LSEState));

    /* Update LSE configuration in Backup Domain control register    */
    /* Requires to enable write access to Backup Domain of necessary */
    if(HAL_IS_BIT_CLR(RCC->APB1ENR1, RCC_APB1ENR1_PWREN))
 8005e04:	4b2a      	ldr	r3, [pc, #168]	@ (8005eb0 <HAL_RCC_OscConfig+0x504>)
 8005e06:	6d9b      	ldr	r3, [r3, #88]	@ 0x58
 8005e08:	f003 5380 	and.w	r3, r3, #268435456	@ 0x10000000
 8005e0c:	2b00      	cmp	r3, #0
 8005e0e:	d10d      	bne.n	8005e2c <HAL_RCC_OscConfig+0x480>
    {
      __HAL_RCC_PWR_CLK_ENABLE();
 8005e10:	4b27      	ldr	r3, [pc, #156]	@ (8005eb0 <HAL_RCC_OscConfig+0x504>)
 8005e12:	6d9b      	ldr	r3, [r3, #88]	@ 0x58
 8005e14:	4a26      	ldr	r2, [pc, #152]	@ (8005eb0 <HAL_RCC_OscConfig+0x504>)
 8005e16:	f043 5380 	orr.w	r3, r3, #268435456	@ 0x10000000
 8005e1a:	6593      	str	r3, [r2, #88]	@ 0x58
 8005e1c:	4b24      	ldr	r3, [pc, #144]	@ (8005eb0 <HAL_RCC_OscConfig+0x504>)
 8005e1e:	6d9b      	ldr	r3, [r3, #88]	@ 0x58
 8005e20:	f003 5380 	and.w	r3, r3, #268435456	@ 0x10000000
 8005e24:	60bb      	str	r3, [r7, #8]
 8005e26:	68bb      	ldr	r3, [r7, #8]
      pwrclkchanged = SET;
 8005e28:	2301      	movs	r3, #1
 8005e2a:	77fb      	strb	r3, [r7, #31]
    }

    if(HAL_IS_BIT_CLR(PWR->CR1, PWR_CR1_DBP))
 8005e2c:	4b21      	ldr	r3, [pc, #132]	@ (8005eb4 <HAL_RCC_OscConfig+0x508>)
 8005e2e:	681b      	ldr	r3, [r3, #0]
 8005e30:	f403 7380 	and.w	r3, r3, #256	@ 0x100
 8005e34:	2b00      	cmp	r3, #0
 8005e36:	d118      	bne.n	8005e6a <HAL_RCC_OscConfig+0x4be>
    {
      /* Enable write access to Backup domain */
      SET_BIT(PWR->CR1, PWR_CR1_DBP);
 8005e38:	4b1e      	ldr	r3, [pc, #120]	@ (8005eb4 <HAL_RCC_OscConfig+0x508>)
 8005e3a:	681b      	ldr	r3, [r3, #0]
 8005e3c:	4a1d      	ldr	r2, [pc, #116]	@ (8005eb4 <HAL_RCC_OscConfig+0x508>)
 8005e3e:	f443 7380 	orr.w	r3, r3, #256	@ 0x100
 8005e42:	6013      	str	r3, [r2, #0]

      /* Wait for Backup domain Write protection disable */
      tickstart = HAL_GetTick();
 8005e44:	f7fe f8c2 	bl	8003fcc <HAL_GetTick>
 8005e48:	6138      	str	r0, [r7, #16]

      while(HAL_IS_BIT_CLR(PWR->CR1, PWR_CR1_DBP))
 8005e4a:	e008      	b.n	8005e5e <HAL_RCC_OscConfig+0x4b2>
      {
        if((HAL_GetTick() - tickstart) > RCC_DBP_TIMEOUT_VALUE)
 8005e4c:	f7fe f8be 	bl	8003fcc <HAL_GetTick>
 8005e50:	4602      	mov	r2, r0
 8005e52:	693b      	ldr	r3, [r7, #16]
 8005e54:	1ad3      	subs	r3, r2, r3
 8005e56:	2b02      	cmp	r3, #2
 8005e58:	d901      	bls.n	8005e5e <HAL_RCC_OscConfig+0x4b2>
        {
          return HAL_TIMEOUT;
 8005e5a:	2303      	movs	r3, #3
 8005e5c:	e1b2      	b.n	80061c4 <HAL_RCC_OscConfig+0x818>
      while(HAL_IS_BIT_CLR(PWR->CR1, PWR_CR1_DBP))
 8005e5e:	4b15      	ldr	r3, [pc, #84]	@ (8005eb4 <HAL_RCC_OscConfig+0x508>)
 8005e60:	681b      	ldr	r3, [r3, #0]
 8005e62:	f403 7380 	and.w	r3, r3, #256	@ 0x100
 8005e66:	2b00      	cmp	r3, #0
 8005e68:	d0f0      	beq.n	8005e4c <HAL_RCC_OscConfig+0x4a0>
    {
      CLEAR_BIT(RCC->BDCR, RCC_BDCR_LSEON);
      CLEAR_BIT(RCC->BDCR, RCC_BDCR_LSEBYP);
    }
#else
    __HAL_RCC_LSE_CONFIG(RCC_OscInitStruct->LSEState);
 8005e6a:	687b      	ldr	r3, [r7, #4]
 8005e6c:	689b      	ldr	r3, [r3, #8]
 8005e6e:	2b01      	cmp	r3, #1
 8005e70:	d108      	bne.n	8005e84 <HAL_RCC_OscConfig+0x4d8>
 8005e72:	4b0f      	ldr	r3, [pc, #60]	@ (8005eb0 <HAL_RCC_OscConfig+0x504>)
 8005e74:	f8d3 3090 	ldr.w	r3, [r3, #144]	@ 0x90
 8005e78:	4a0d      	ldr	r2, [pc, #52]	@ (8005eb0 <HAL_RCC_OscConfig+0x504>)
 8005e7a:	f043 0301 	orr.w	r3, r3, #1
 8005e7e:	f8c2 3090 	str.w	r3, [r2, #144]	@ 0x90
 8005e82:	e029      	b.n	8005ed8 <HAL_RCC_OscConfig+0x52c>
 8005e84:	687b      	ldr	r3, [r7, #4]
 8005e86:	689b      	ldr	r3, [r3, #8]
 8005e88:	2b05      	cmp	r3, #5
 8005e8a:	d115      	bne.n	8005eb8 <HAL_RCC_OscConfig+0x50c>
 8005e8c:	4b08      	ldr	r3, [pc, #32]	@ (8005eb0 <HAL_RCC_OscConfig+0x504>)
 8005e8e:	f8d3 3090 	ldr.w	r3, [r3, #144]	@ 0x90
 8005e92:	4a07      	ldr	r2, [pc, #28]	@ (8005eb0 <HAL_RCC_OscConfig+0x504>)
 8005e94:	f043 0304 	orr.w	r3, r3, #4
 8005e98:	f8c2 3090 	str.w	r3, [r2, #144]	@ 0x90
 8005e9c:	4b04      	ldr	r3, [pc, #16]	@ (8005eb0 <HAL_RCC_OscConfig+0x504>)
 8005e9e:	f8d3 3090 	ldr.w	r3, [r3, #144]	@ 0x90
 8005ea2:	4a03      	ldr	r2, [pc, #12]	@ (8005eb0 <HAL_RCC_OscConfig+0x504>)
 8005ea4:	f043 0301 	orr.w	r3, r3, #1
 8005ea8:	f8c2 3090 	str.w	r3, [r2, #144]	@ 0x90
 8005eac:	e014      	b.n	8005ed8 <HAL_RCC_OscConfig+0x52c>
 8005eae:	bf00      	nop
 8005eb0:	40021000 	.word	0x40021000
 8005eb4:	40007000 	.word	0x40007000
 8005eb8:	4b9a      	ldr	r3, [pc, #616]	@ (8006124 <HAL_RCC_OscConfig+0x778>)
 8005eba:	f8d3 3090 	ldr.w	r3, [r3, #144]	@ 0x90
 8005ebe:	4a99      	ldr	r2, [pc, #612]	@ (8006124 <HAL_RCC_OscConfig+0x778>)
 8005ec0:	f023 0301 	bic.w	r3, r3, #1
 8005ec4:	f8c2 3090 	str.w	r3, [r2, #144]	@ 0x90
 8005ec8:	4b96      	ldr	r3, [pc, #600]	@ (8006124 <HAL_RCC_OscConfig+0x778>)
 8005eca:	f8d3 3090 	ldr.w	r3, [r3, #144]	@ 0x90
 8005ece:	4a95      	ldr	r2, [pc, #596]	@ (8006124 <HAL_RCC_OscConfig+0x778>)
 8005ed0:	f023 0304 	bic.w	r3, r3, #4
 8005ed4:	f8c2 3090 	str.w	r3, [r2, #144]	@ 0x90
#endif /* RCC_BDCR_LSESYSDIS */

    /* Check the LSE State */
    if(RCC_OscInitStruct->LSEState != RCC_LSE_OFF)
 8005ed8:	687b      	ldr	r3, [r7, #4]
 8005eda:	689b      	ldr	r3, [r3, #8]
 8005edc:	2b00      	cmp	r3, #0
 8005ede:	d016      	beq.n	8005f0e <HAL_RCC_OscConfig+0x562>
    {
      /* Get Start Tick*/
      tickstart = HAL_GetTick();
 8005ee0:	f7fe f874 	bl	8003fcc <HAL_GetTick>
 8005ee4:	6138      	str	r0, [r7, #16]

      /* Wait till LSE is ready */
      while(READ_BIT(RCC->BDCR, RCC_BDCR_LSERDY) == 0U)
 8005ee6:	e00a      	b.n	8005efe <HAL_RCC_OscConfig+0x552>
      {
        if((HAL_GetTick() - tickstart) > RCC_LSE_TIMEOUT_VALUE)
 8005ee8:	f7fe f870 	bl	8003fcc <HAL_GetTick>
 8005eec:	4602      	mov	r2, r0
 8005eee:	693b      	ldr	r3, [r7, #16]
 8005ef0:	1ad3      	subs	r3, r2, r3
 8005ef2:	f241 3288 	movw	r2, #5000	@ 0x1388
 8005ef6:	4293      	cmp	r3, r2
 8005ef8:	d901      	bls.n	8005efe <HAL_RCC_OscConfig+0x552>
        {
          return HAL_TIMEOUT;
 8005efa:	2303      	movs	r3, #3
 8005efc:	e162      	b.n	80061c4 <HAL_RCC_OscConfig+0x818>
      while(READ_BIT(RCC->BDCR, RCC_BDCR_LSERDY) == 0U)
 8005efe:	4b89      	ldr	r3, [pc, #548]	@ (8006124 <HAL_RCC_OscConfig+0x778>)
 8005f00:	f8d3 3090 	ldr.w	r3, [r3, #144]	@ 0x90
 8005f04:	f003 0302 	and.w	r3, r3, #2
 8005f08:	2b00      	cmp	r3, #0
 8005f0a:	d0ed      	beq.n	8005ee8 <HAL_RCC_OscConfig+0x53c>
 8005f0c:	e015      	b.n	8005f3a <HAL_RCC_OscConfig+0x58e>
      }
    }
    else
    {
      /* Get Start Tick*/
      tickstart = HAL_GetTick();
 8005f0e:	f7fe f85d 	bl	8003fcc <HAL_GetTick>
 8005f12:	6138      	str	r0, [r7, #16]

      /* Wait till LSE is disabled */
      while(READ_BIT(RCC->BDCR, RCC_BDCR_LSERDY) != 0U)
 8005f14:	e00a      	b.n	8005f2c <HAL_RCC_OscConfig+0x580>
      {
        if((HAL_GetTick() - tickstart) > RCC_LSE_TIMEOUT_VALUE)
 8005f16:	f7fe f859 	bl	8003fcc <HAL_GetTick>
 8005f1a:	4602      	mov	r2, r0
 8005f1c:	693b      	ldr	r3, [r7, #16]
 8005f1e:	1ad3      	subs	r3, r2, r3
 8005f20:	f241 3288 	movw	r2, #5000	@ 0x1388
 8005f24:	4293      	cmp	r3, r2
 8005f26:	d901      	bls.n	8005f2c <HAL_RCC_OscConfig+0x580>
        {
          return HAL_TIMEOUT;
 8005f28:	2303      	movs	r3, #3
 8005f2a:	e14b      	b.n	80061c4 <HAL_RCC_OscConfig+0x818>
      while(READ_BIT(RCC->BDCR, RCC_BDCR_LSERDY) != 0U)
 8005f2c:	4b7d      	ldr	r3, [pc, #500]	@ (8006124 <HAL_RCC_OscConfig+0x778>)
 8005f2e:	f8d3 3090 	ldr.w	r3, [r3, #144]	@ 0x90
 8005f32:	f003 0302 	and.w	r3, r3, #2
 8005f36:	2b00      	cmp	r3, #0
 8005f38:	d1ed      	bne.n	8005f16 <HAL_RCC_OscConfig+0x56a>
      CLEAR_BIT(RCC->BDCR, RCC_BDCR_LSESYSDIS);
#endif /* RCC_BDCR_LSESYSDIS */
    }

    /* Restore clock configuration if changed */
    if(pwrclkchanged == SET)
 8005f3a:	7ffb      	ldrb	r3, [r7, #31]
 8005f3c:	2b01      	cmp	r3, #1
 8005f3e:	d105      	bne.n	8005f4c <HAL_RCC_OscConfig+0x5a0>
    {
      __HAL_RCC_PWR_CLK_DISABLE();
 8005f40:	4b78      	ldr	r3, [pc, #480]	@ (8006124 <HAL_RCC_OscConfig+0x778>)
 8005f42:	6d9b      	ldr	r3, [r3, #88]	@ 0x58
 8005f44:	4a77      	ldr	r2, [pc, #476]	@ (8006124 <HAL_RCC_OscConfig+0x778>)
 8005f46:	f023 5380 	bic.w	r3, r3, #268435456	@ 0x10000000
 8005f4a:	6593      	str	r3, [r2, #88]	@ 0x58
    }
  }
#if defined(RCC_HSI48_SUPPORT)
  /*------------------------------ HSI48 Configuration -----------------------*/
  if(((RCC_OscInitStruct->OscillatorType) & RCC_OSCILLATORTYPE_HSI48) == RCC_OSCILLATORTYPE_HSI48)
 8005f4c:	687b      	ldr	r3, [r7, #4]
 8005f4e:	681b      	ldr	r3, [r3, #0]
 8005f50:	f003 0320 	and.w	r3, r3, #32
 8005f54:	2b00      	cmp	r3, #0
 8005f56:	d03c      	beq.n	8005fd2 <HAL_RCC_OscConfig+0x626>
  {
    /* Check the parameters */
    assert_param(IS_RCC_HSI48(RCC_OscInitStruct->HSI48State));

    /* Check the LSI State */
    if(RCC_OscInitStruct->HSI48State != RCC_HSI48_OFF)
 8005f58:	687b      	ldr	r3, [r7, #4]
 8005f5a:	6a5b      	ldr	r3, [r3, #36]	@ 0x24
 8005f5c:	2b00      	cmp	r3, #0
 8005f5e:	d01c      	beq.n	8005f9a <HAL_RCC_OscConfig+0x5ee>
    {
      /* Enable the Internal Low Speed oscillator (HSI48). */
      __HAL_RCC_HSI48_ENABLE();
 8005f60:	4b70      	ldr	r3, [pc, #448]	@ (8006124 <HAL_RCC_OscConfig+0x778>)
 8005f62:	f8d3 3098 	ldr.w	r3, [r3, #152]	@ 0x98
 8005f66:	4a6f      	ldr	r2, [pc, #444]	@ (8006124 <HAL_RCC_OscConfig+0x778>)
 8005f68:	f043 0301 	orr.w	r3, r3, #1
 8005f6c:	f8c2 3098 	str.w	r3, [r2, #152]	@ 0x98

      /* Get Start Tick*/
      tickstart = HAL_GetTick();
 8005f70:	f7fe f82c 	bl	8003fcc <HAL_GetTick>
 8005f74:	6138      	str	r0, [r7, #16]

      /* Wait till HSI48 is ready */
      while(READ_BIT(RCC->CRRCR, RCC_CRRCR_HSI48RDY) == 0U)
 8005f76:	e008      	b.n	8005f8a <HAL_RCC_OscConfig+0x5de>
      {
        if((HAL_GetTick() - tickstart) > HSI48_TIMEOUT_VALUE)
 8005f78:	f7fe f828 	bl	8003fcc <HAL_GetTick>
 8005f7c:	4602      	mov	r2, r0
 8005f7e:	693b      	ldr	r3, [r7, #16]
 8005f80:	1ad3      	subs	r3, r2, r3
 8005f82:	2b02      	cmp	r3, #2
 8005f84:	d901      	bls.n	8005f8a <HAL_RCC_OscConfig+0x5de>
        {
          return HAL_TIMEOUT;
 8005f86:	2303      	movs	r3, #3
 8005f88:	e11c      	b.n	80061c4 <HAL_RCC_OscConfig+0x818>
      while(READ_BIT(RCC->CRRCR, RCC_CRRCR_HSI48RDY) == 0U)
 8005f8a:	4b66      	ldr	r3, [pc, #408]	@ (8006124 <HAL_RCC_OscConfig+0x778>)
 8005f8c:	f8d3 3098 	ldr.w	r3, [r3, #152]	@ 0x98
 8005f90:	f003 0302 	and.w	r3, r3, #2
 8005f94:	2b00      	cmp	r3, #0
 8005f96:	d0ef      	beq.n	8005f78 <HAL_RCC_OscConfig+0x5cc>
 8005f98:	e01b      	b.n	8005fd2 <HAL_RCC_OscConfig+0x626>
      }
    }
    else
    {
      /* Disable the Internal Low Speed oscillator (HSI48). */
      __HAL_RCC_HSI48_DISABLE();
 8005f9a:	4b62      	ldr	r3, [pc, #392]	@ (8006124 <HAL_RCC_OscConfig+0x778>)
 8005f9c:	f8d3 3098 	ldr.w	r3, [r3, #152]	@ 0x98
 8005fa0:	4a60      	ldr	r2, [pc, #384]	@ (8006124 <HAL_RCC_OscConfig+0x778>)
 8005fa2:	f023 0301 	bic.w	r3, r3, #1
 8005fa6:	f8c2 3098 	str.w	r3, [r2, #152]	@ 0x98

      /* Get Start Tick*/
      tickstart = HAL_GetTick();
 8005faa:	f7fe f80f 	bl	8003fcc <HAL_GetTick>
 8005fae:	6138      	str	r0, [r7, #16]

      /* Wait till HSI48 is disabled */
      while(READ_BIT(RCC->CRRCR, RCC_CRRCR_HSI48RDY) != 0U)
 8005fb0:	e008      	b.n	8005fc4 <HAL_RCC_OscConfig+0x618>
      {
        if((HAL_GetTick() - tickstart) > HSI48_TIMEOUT_VALUE)
 8005fb2:	f7fe f80b 	bl	8003fcc <HAL_GetTick>
 8005fb6:	4602      	mov	r2, r0
 8005fb8:	693b      	ldr	r3, [r7, #16]
 8005fba:	1ad3      	subs	r3, r2, r3
 8005fbc:	2b02      	cmp	r3, #2
 8005fbe:	d901      	bls.n	8005fc4 <HAL_RCC_OscConfig+0x618>
        {
          return HAL_TIMEOUT;
 8005fc0:	2303      	movs	r3, #3
 8005fc2:	e0ff      	b.n	80061c4 <HAL_RCC_OscConfig+0x818>
      while(READ_BIT(RCC->CRRCR, RCC_CRRCR_HSI48RDY) != 0U)
 8005fc4:	4b57      	ldr	r3, [pc, #348]	@ (8006124 <HAL_RCC_OscConfig+0x778>)
 8005fc6:	f8d3 3098 	ldr.w	r3, [r3, #152]	@ 0x98
 8005fca:	f003 0302 	and.w	r3, r3, #2
 8005fce:	2b00      	cmp	r3, #0
 8005fd0:	d1ef      	bne.n	8005fb2 <HAL_RCC_OscConfig+0x606>
#endif /* RCC_HSI48_SUPPORT */
  /*-------------------------------- PLL Configuration -----------------------*/
  /* Check the parameters */
  assert_param(IS_RCC_PLL(RCC_OscInitStruct->PLL.PLLState));

  if(RCC_OscInitStruct->PLL.PLLState != RCC_PLL_NONE)
 8005fd2:	687b      	ldr	r3, [r7, #4]
 8005fd4:	6a9b      	ldr	r3, [r3, #40]	@ 0x28
 8005fd6:	2b00      	cmp	r3, #0
 8005fd8:	f000 80f3 	beq.w	80061c2 <HAL_RCC_OscConfig+0x816>
  {
    /* PLL On ? */
    if(RCC_OscInitStruct->PLL.PLLState == RCC_PLL_ON)
 8005fdc:	687b      	ldr	r3, [r7, #4]
 8005fde:	6a9b      	ldr	r3, [r3, #40]	@ 0x28
 8005fe0:	2b02      	cmp	r3, #2
 8005fe2:	f040 80c9 	bne.w	8006178 <HAL_RCC_OscConfig+0x7cc>
#endif /* RCC_PLLP_SUPPORT */
      assert_param(IS_RCC_PLLQ_VALUE(RCC_OscInitStruct->PLL.PLLQ));
      assert_param(IS_RCC_PLLR_VALUE(RCC_OscInitStruct->PLL.PLLR));

      /* Do nothing if PLL configuration is the unchanged */
      pll_config = RCC->PLLCFGR;
 8005fe6:	4b4f      	ldr	r3, [pc, #316]	@ (8006124 <HAL_RCC_OscConfig+0x778>)
 8005fe8:	68db      	ldr	r3, [r3, #12]
 8005fea:	617b      	str	r3, [r7, #20]
      if((READ_BIT(pll_config, RCC_PLLCFGR_PLLSRC)  != RCC_OscInitStruct->PLL.PLLSource) ||
 8005fec:	697b      	ldr	r3, [r7, #20]
 8005fee:	f003 0203 	and.w	r2, r3, #3
 8005ff2:	687b      	ldr	r3, [r7, #4]
 8005ff4:	6adb      	ldr	r3, [r3, #44]	@ 0x2c
 8005ff6:	429a      	cmp	r2, r3
 8005ff8:	d12c      	bne.n	8006054 <HAL_RCC_OscConfig+0x6a8>
         (READ_BIT(pll_config, RCC_PLLCFGR_PLLM)    != ((RCC_OscInitStruct->PLL.PLLM - 1U) << RCC_PLLCFGR_PLLM_Pos)) ||
 8005ffa:	697b      	ldr	r3, [r7, #20]
 8005ffc:	f003 0270 	and.w	r2, r3, #112	@ 0x70
 8006000:	687b      	ldr	r3, [r7, #4]
 8006002:	6b1b      	ldr	r3, [r3, #48]	@ 0x30
 8006004:	3b01      	subs	r3, #1
 8006006:	011b      	lsls	r3, r3, #4
      if((READ_BIT(pll_config, RCC_PLLCFGR_PLLSRC)  != RCC_OscInitStruct->PLL.PLLSource) ||
 8006008:	429a      	cmp	r2, r3
 800600a:	d123      	bne.n	8006054 <HAL_RCC_OscConfig+0x6a8>
         (READ_BIT(pll_config, RCC_PLLCFGR_PLLN)    != (RCC_OscInitStruct->PLL.PLLN << RCC_PLLCFGR_PLLN_Pos)) ||
 800600c:	697b      	ldr	r3, [r7, #20]
 800600e:	f403 42fe 	and.w	r2, r3, #32512	@ 0x7f00
 8006012:	687b      	ldr	r3, [r7, #4]
 8006014:	6b5b      	ldr	r3, [r3, #52]	@ 0x34
 8006016:	021b      	lsls	r3, r3, #8
         (READ_BIT(pll_config, RCC_PLLCFGR_PLLM)    != ((RCC_OscInitStruct->PLL.PLLM - 1U) << RCC_PLLCFGR_PLLM_Pos)) ||
 8006018:	429a      	cmp	r2, r3
 800601a:	d11b      	bne.n	8006054 <HAL_RCC_OscConfig+0x6a8>
#if defined(RCC_PLLP_SUPPORT)
#if defined(RCC_PLLP_DIV_2_31_SUPPORT)
         (READ_BIT(pll_config, RCC_PLLCFGR_PLLPDIV) != (RCC_OscInitStruct->PLL.PLLP << RCC_PLLCFGR_PLLPDIV_Pos)) ||
 800601c:	697b      	ldr	r3, [r7, #20]
 800601e:	f003 4278 	and.w	r2, r3, #4160749568	@ 0xf8000000
 8006022:	687b      	ldr	r3, [r7, #4]
 8006024:	6b9b      	ldr	r3, [r3, #56]	@ 0x38
 8006026:	06db      	lsls	r3, r3, #27
         (READ_BIT(pll_config, RCC_PLLCFGR_PLLN)    != (RCC_OscInitStruct->PLL.PLLN << RCC_PLLCFGR_PLLN_Pos)) ||
 8006028:	429a      	cmp	r2, r3
 800602a:	d113      	bne.n	8006054 <HAL_RCC_OscConfig+0x6a8>
#else
         (READ_BIT(pll_config, RCC_PLLCFGR_PLLP)    != ((RCC_OscInitStruct->PLL.PLLP == RCC_PLLP_DIV7) ? 0U : 1U)) ||
#endif
#endif
         (READ_BIT(pll_config, RCC_PLLCFGR_PLLQ)    != ((((RCC_OscInitStruct->PLL.PLLQ) >> 1U) - 1U) << RCC_PLLCFGR_PLLQ_Pos)) ||
 800602c:	697b      	ldr	r3, [r7, #20]
 800602e:	f403 02c0 	and.w	r2, r3, #6291456	@ 0x600000
 8006032:	687b      	ldr	r3, [r7, #4]
 8006034:	6bdb      	ldr	r3, [r3, #60]	@ 0x3c
 8006036:	085b      	lsrs	r3, r3, #1
 8006038:	3b01      	subs	r3, #1
 800603a:	055b      	lsls	r3, r3, #21
         (READ_BIT(pll_config, RCC_PLLCFGR_PLLPDIV) != (RCC_OscInitStruct->PLL.PLLP << RCC_PLLCFGR_PLLPDIV_Pos)) ||
 800603c:	429a      	cmp	r2, r3
 800603e:	d109      	bne.n	8006054 <HAL_RCC_OscConfig+0x6a8>
         (READ_BIT(pll_config, RCC_PLLCFGR_PLLR)    != ((((RCC_OscInitStruct->PLL.PLLR) >> 1U) - 1U) << RCC_PLLCFGR_PLLR_Pos)))
 8006040:	697b      	ldr	r3, [r7, #20]
 8006042:	f003 62c0 	and.w	r2, r3, #100663296	@ 0x6000000
 8006046:	687b      	ldr	r3, [r7, #4]
 8006048:	6c1b      	ldr	r3, [r3, #64]	@ 0x40
 800604a:	085b      	lsrs	r3, r3, #1
 800604c:	3b01      	subs	r3, #1
 800604e:	065b      	lsls	r3, r3, #25
         (READ_BIT(pll_config, RCC_PLLCFGR_PLLQ)    != ((((RCC_OscInitStruct->PLL.PLLQ) >> 1U) - 1U) << RCC_PLLCFGR_PLLQ_Pos)) ||
 8006050:	429a      	cmp	r2, r3
 8006052:	d06b      	beq.n	800612c <HAL_RCC_OscConfig+0x780>
      {
        /* Check if the PLL is used as system clock or not */
        if(sysclk_source != RCC_CFGR_SWS_PLL)
 8006054:	69bb      	ldr	r3, [r7, #24]
 8006056:	2b0c      	cmp	r3, #12
 8006058:	d062      	beq.n	8006120 <HAL_RCC_OscConfig+0x774>
        {
#if defined(RCC_PLLSAI1_SUPPORT) || defined(RCC_PLLSAI2_SUPPORT)
          /* Check if main PLL can be updated */
          /* Not possible if the source is shared by other enabled PLLSAIx */
          if((READ_BIT(RCC->CR, RCC_CR_PLLSAI1ON) != 0U)
 800605a:	4b32      	ldr	r3, [pc, #200]	@ (8006124 <HAL_RCC_OscConfig+0x778>)
 800605c:	681b      	ldr	r3, [r3, #0]
 800605e:	f003 6380 	and.w	r3, r3, #67108864	@ 0x4000000
 8006062:	2b00      	cmp	r3, #0
 8006064:	d001      	beq.n	800606a <HAL_RCC_OscConfig+0x6be>
#if defined(RCC_PLLSAI2_SUPPORT)
             || (READ_BIT(RCC->CR, RCC_CR_PLLSAI2ON) != 0U)
#endif
            )
          {
            return HAL_ERROR;
 8006066:	2301      	movs	r3, #1
 8006068:	e0ac      	b.n	80061c4 <HAL_RCC_OscConfig+0x818>
          }
          else
#endif /* RCC_PLLSAI1_SUPPORT || RCC_PLLSAI2_SUPPORT */
          {
            /* Disable the main PLL. */
            __HAL_RCC_PLL_DISABLE();
 800606a:	4b2e      	ldr	r3, [pc, #184]	@ (8006124 <HAL_RCC_OscConfig+0x778>)
 800606c:	681b      	ldr	r3, [r3, #0]
 800606e:	4a2d      	ldr	r2, [pc, #180]	@ (8006124 <HAL_RCC_OscConfig+0x778>)
 8006070:	f023 7380 	bic.w	r3, r3, #16777216	@ 0x1000000
 8006074:	6013      	str	r3, [r2, #0]

            /* Get Start Tick*/
            tickstart = HAL_GetTick();
 8006076:	f7fd ffa9 	bl	8003fcc <HAL_GetTick>
 800607a:	6138      	str	r0, [r7, #16]

            /* Wait till PLL is ready */
            while(READ_BIT(RCC->CR, RCC_CR_PLLRDY) != 0U)
 800607c:	e008      	b.n	8006090 <HAL_RCC_OscConfig+0x6e4>
            {
              if((HAL_GetTick() - tickstart) > PLL_TIMEOUT_VALUE)
 800607e:	f7fd ffa5 	bl	8003fcc <HAL_GetTick>
 8006082:	4602      	mov	r2, r0
 8006084:	693b      	ldr	r3, [r7, #16]
 8006086:	1ad3      	subs	r3, r2, r3
 8006088:	2b02      	cmp	r3, #2
 800608a:	d901      	bls.n	8006090 <HAL_RCC_OscConfig+0x6e4>
              {
                return HAL_TIMEOUT;
 800608c:	2303      	movs	r3, #3
 800608e:	e099      	b.n	80061c4 <HAL_RCC_OscConfig+0x818>
            while(READ_BIT(RCC->CR, RCC_CR_PLLRDY) != 0U)
 8006090:	4b24      	ldr	r3, [pc, #144]	@ (8006124 <HAL_RCC_OscConfig+0x778>)
 8006092:	681b      	ldr	r3, [r3, #0]
 8006094:	f003 7300 	and.w	r3, r3, #33554432	@ 0x2000000
 8006098:	2b00      	cmp	r3, #0
 800609a:	d1f0      	bne.n	800607e <HAL_RCC_OscConfig+0x6d2>
              }
            }

            /* Configure the main PLL clock source, multiplication and division factors. */
#if defined(RCC_PLLP_SUPPORT)
            __HAL_RCC_PLL_CONFIG(RCC_OscInitStruct->PLL.PLLSource,
 800609c:	4b21      	ldr	r3, [pc, #132]	@ (8006124 <HAL_RCC_OscConfig+0x778>)
 800609e:	68da      	ldr	r2, [r3, #12]
 80060a0:	4b21      	ldr	r3, [pc, #132]	@ (8006128 <HAL_RCC_OscConfig+0x77c>)
 80060a2:	4013      	ands	r3, r2
 80060a4:	687a      	ldr	r2, [r7, #4]
 80060a6:	6ad1      	ldr	r1, [r2, #44]	@ 0x2c
 80060a8:	687a      	ldr	r2, [r7, #4]
 80060aa:	6b12      	ldr	r2, [r2, #48]	@ 0x30
 80060ac:	3a01      	subs	r2, #1
 80060ae:	0112      	lsls	r2, r2, #4
 80060b0:	4311      	orrs	r1, r2
 80060b2:	687a      	ldr	r2, [r7, #4]
 80060b4:	6b52      	ldr	r2, [r2, #52]	@ 0x34
 80060b6:	0212      	lsls	r2, r2, #8
 80060b8:	4311      	orrs	r1, r2
 80060ba:	687a      	ldr	r2, [r7, #4]
 80060bc:	6bd2      	ldr	r2, [r2, #60]	@ 0x3c
 80060be:	0852      	lsrs	r2, r2, #1
 80060c0:	3a01      	subs	r2, #1
 80060c2:	0552      	lsls	r2, r2, #21
 80060c4:	4311      	orrs	r1, r2
 80060c6:	687a      	ldr	r2, [r7, #4]
 80060c8:	6c12      	ldr	r2, [r2, #64]	@ 0x40
 80060ca:	0852      	lsrs	r2, r2, #1
 80060cc:	3a01      	subs	r2, #1
 80060ce:	0652      	lsls	r2, r2, #25
 80060d0:	4311      	orrs	r1, r2
 80060d2:	687a      	ldr	r2, [r7, #4]
 80060d4:	6b92      	ldr	r2, [r2, #56]	@ 0x38
 80060d6:	06d2      	lsls	r2, r2, #27
 80060d8:	430a      	orrs	r2, r1
 80060da:	4912      	ldr	r1, [pc, #72]	@ (8006124 <HAL_RCC_OscConfig+0x778>)
 80060dc:	4313      	orrs	r3, r2
 80060de:	60cb      	str	r3, [r1, #12]
                                 RCC_OscInitStruct->PLL.PLLQ,
                                 RCC_OscInitStruct->PLL.PLLR);
#endif

            /* Enable the main PLL. */
            __HAL_RCC_PLL_ENABLE();
 80060e0:	4b10      	ldr	r3, [pc, #64]	@ (8006124 <HAL_RCC_OscConfig+0x778>)
 80060e2:	681b      	ldr	r3, [r3, #0]
 80060e4:	4a0f      	ldr	r2, [pc, #60]	@ (8006124 <HAL_RCC_OscConfig+0x778>)
 80060e6:	f043 7380 	orr.w	r3, r3, #16777216	@ 0x1000000
 80060ea:	6013      	str	r3, [r2, #0]

            /* Enable PLL System Clock output. */
            __HAL_RCC_PLLCLKOUT_ENABLE(RCC_PLL_SYSCLK);
 80060ec:	4b0d      	ldr	r3, [pc, #52]	@ (8006124 <HAL_RCC_OscConfig+0x778>)
 80060ee:	68db      	ldr	r3, [r3, #12]
 80060f0:	4a0c      	ldr	r2, [pc, #48]	@ (8006124 <HAL_RCC_OscConfig+0x778>)
 80060f2:	f043 7380 	orr.w	r3, r3, #16777216	@ 0x1000000
 80060f6:	60d3      	str	r3, [r2, #12]

            /* Get Start Tick*/
            tickstart = HAL_GetTick();
 80060f8:	f7fd ff68 	bl	8003fcc <HAL_GetTick>
 80060fc:	6138      	str	r0, [r7, #16]

            /* Wait till PLL is ready */
            while(READ_BIT(RCC->CR, RCC_CR_PLLRDY) == 0U)
 80060fe:	e008      	b.n	8006112 <HAL_RCC_OscConfig+0x766>
            {
              if((HAL_GetTick() - tickstart) > PLL_TIMEOUT_VALUE)
 8006100:	f7fd ff64 	bl	8003fcc <HAL_GetTick>
 8006104:	4602      	mov	r2, r0
 8006106:	693b      	ldr	r3, [r7, #16]
 8006108:	1ad3      	subs	r3, r2, r3
 800610a:	2b02      	cmp	r3, #2
 800610c:	d901      	bls.n	8006112 <HAL_RCC_OscConfig+0x766>
              {
                return HAL_TIMEOUT;
 800610e:	2303      	movs	r3, #3
 8006110:	e058      	b.n	80061c4 <HAL_RCC_OscConfig+0x818>
            while(READ_BIT(RCC->CR, RCC_CR_PLLRDY) == 0U)
 8006112:	4b04      	ldr	r3, [pc, #16]	@ (8006124 <HAL_RCC_OscConfig+0x778>)
 8006114:	681b      	ldr	r3, [r3, #0]
 8006116:	f003 7300 	and.w	r3, r3, #33554432	@ 0x2000000
 800611a:	2b00      	cmp	r3, #0
 800611c:	d0f0      	beq.n	8006100 <HAL_RCC_OscConfig+0x754>
        if(sysclk_source != RCC_CFGR_SWS_PLL)
 800611e:	e050      	b.n	80061c2 <HAL_RCC_OscConfig+0x816>
          }
        }
        else
        {
          /* PLL is already used as System core clock */
          return HAL_ERROR;
 8006120:	2301      	movs	r3, #1
 8006122:	e04f      	b.n	80061c4 <HAL_RCC_OscConfig+0x818>
 8006124:	40021000 	.word	0x40021000
 8006128:	019d808c 	.word	0x019d808c
      }
      else
      {
        /* PLL configuration is unchanged */
        /* Re-enable PLL if it was disabled (ie. low power mode) */
        if(READ_BIT(RCC->CR, RCC_CR_PLLRDY) == 0U)
 800612c:	4b27      	ldr	r3, [pc, #156]	@ (80061cc <HAL_RCC_OscConfig+0x820>)
 800612e:	681b      	ldr	r3, [r3, #0]
 8006130:	f003 7300 	and.w	r3, r3, #33554432	@ 0x2000000
 8006134:	2b00      	cmp	r3, #0
 8006136:	d144      	bne.n	80061c2 <HAL_RCC_OscConfig+0x816>
        {
          /* Enable the main PLL. */
          __HAL_RCC_PLL_ENABLE();
 8006138:	4b24      	ldr	r3, [pc, #144]	@ (80061cc <HAL_RCC_OscConfig+0x820>)
 800613a:	681b      	ldr	r3, [r3, #0]
 800613c:	4a23      	ldr	r2, [pc, #140]	@ (80061cc <HAL_RCC_OscConfig+0x820>)
 800613e:	f043 7380 	orr.w	r3, r3, #16777216	@ 0x1000000
 8006142:	6013      	str	r3, [r2, #0]

          /* Enable PLL System Clock output. */
          __HAL_RCC_PLLCLKOUT_ENABLE(RCC_PLL_SYSCLK);
 8006144:	4b21      	ldr	r3, [pc, #132]	@ (80061cc <HAL_RCC_OscConfig+0x820>)
 8006146:	68db      	ldr	r3, [r3, #12]
 8006148:	4a20      	ldr	r2, [pc, #128]	@ (80061cc <HAL_RCC_OscConfig+0x820>)
 800614a:	f043 7380 	orr.w	r3, r3, #16777216	@ 0x1000000
 800614e:	60d3      	str	r3, [r2, #12]

          /* Get Start Tick*/
          tickstart = HAL_GetTick();
 8006150:	f7fd ff3c 	bl	8003fcc <HAL_GetTick>
 8006154:	6138      	str	r0, [r7, #16]

          /* Wait till PLL is ready */
          while(READ_BIT(RCC->CR, RCC_CR_PLLRDY) == 0U)
 8006156:	e008      	b.n	800616a <HAL_RCC_OscConfig+0x7be>
          {
            if((HAL_GetTick() - tickstart) > PLL_TIMEOUT_VALUE)
 8006158:	f7fd ff38 	bl	8003fcc <HAL_GetTick>
 800615c:	4602      	mov	r2, r0
 800615e:	693b      	ldr	r3, [r7, #16]
 8006160:	1ad3      	subs	r3, r2, r3
 8006162:	2b02      	cmp	r3, #2
 8006164:	d901      	bls.n	800616a <HAL_RCC_OscConfig+0x7be>
            {
              return HAL_TIMEOUT;
 8006166:	2303      	movs	r3, #3
 8006168:	e02c      	b.n	80061c4 <HAL_RCC_OscConfig+0x818>
          while(READ_BIT(RCC->CR, RCC_CR_PLLRDY) == 0U)
 800616a:	4b18      	ldr	r3, [pc, #96]	@ (80061cc <HAL_RCC_OscConfig+0x820>)
 800616c:	681b      	ldr	r3, [r3, #0]
 800616e:	f003 7300 	and.w	r3, r3, #33554432	@ 0x2000000
 8006172:	2b00      	cmp	r3, #0
 8006174:	d0f0      	beq.n	8006158 <HAL_RCC_OscConfig+0x7ac>
 8006176:	e024      	b.n	80061c2 <HAL_RCC_OscConfig+0x816>
      }
    }
    else
    {
      /* Check that PLL is not used as system clock or not */
      if(sysclk_source != RCC_CFGR_SWS_PLL)
 8006178:	69bb      	ldr	r3, [r7, #24]
 800617a:	2b0c      	cmp	r3, #12
 800617c:	d01f      	beq.n	80061be <HAL_RCC_OscConfig+0x812>
      {
        /* Disable the main PLL. */
        __HAL_RCC_PLL_DISABLE();
 800617e:	4b13      	ldr	r3, [pc, #76]	@ (80061cc <HAL_RCC_OscConfig+0x820>)
 8006180:	681b      	ldr	r3, [r3, #0]
 8006182:	4a12      	ldr	r2, [pc, #72]	@ (80061cc <HAL_RCC_OscConfig+0x820>)
 8006184:	f023 7380 	bic.w	r3, r3, #16777216	@ 0x1000000
 8006188:	6013      	str	r3, [r2, #0]

        /* Get Start Tick*/
        tickstart = HAL_GetTick();
 800618a:	f7fd ff1f 	bl	8003fcc <HAL_GetTick>
 800618e:	6138      	str	r0, [r7, #16]

        /* Wait till PLL is disabled */
        while(READ_BIT(RCC->CR, RCC_CR_PLLRDY) != 0U)
 8006190:	e008      	b.n	80061a4 <HAL_RCC_OscConfig+0x7f8>
        {
          if((HAL_GetTick() - tickstart) > PLL_TIMEOUT_VALUE)
 8006192:	f7fd ff1b 	bl	8003fcc <HAL_GetTick>
 8006196:	4602      	mov	r2, r0
 8006198:	693b      	ldr	r3, [r7, #16]
 800619a:	1ad3      	subs	r3, r2, r3
 800619c:	2b02      	cmp	r3, #2
 800619e:	d901      	bls.n	80061a4 <HAL_RCC_OscConfig+0x7f8>
          {
            return HAL_TIMEOUT;
 80061a0:	2303      	movs	r3, #3
 80061a2:	e00f      	b.n	80061c4 <HAL_RCC_OscConfig+0x818>
        while(READ_BIT(RCC->CR, RCC_CR_PLLRDY) != 0U)
 80061a4:	4b09      	ldr	r3, [pc, #36]	@ (80061cc <HAL_RCC_OscConfig+0x820>)
 80061a6:	681b      	ldr	r3, [r3, #0]
 80061a8:	f003 7300 	and.w	r3, r3, #33554432	@ 0x2000000
 80061ac:	2b00      	cmp	r3, #0
 80061ae:	d1f0      	bne.n	8006192 <HAL_RCC_OscConfig+0x7e6>
        }
        /* Unselect main PLL clock source and disable main PLL outputs to save power */
#if defined(RCC_PLLSAI2_SUPPORT)
        RCC->PLLCFGR &= ~(RCC_PLLCFGR_PLLSRC | RCC_PLL_SYSCLK | RCC_PLL_48M1CLK | RCC_PLL_SAI3CLK);
#elif defined(RCC_PLLSAI1_SUPPORT)
        RCC->PLLCFGR &= ~(RCC_PLLCFGR_PLLSRC | RCC_PLL_SYSCLK | RCC_PLL_48M1CLK | RCC_PLL_SAI2CLK);
 80061b0:	4b06      	ldr	r3, [pc, #24]	@ (80061cc <HAL_RCC_OscConfig+0x820>)
 80061b2:	68da      	ldr	r2, [r3, #12]
 80061b4:	4905      	ldr	r1, [pc, #20]	@ (80061cc <HAL_RCC_OscConfig+0x820>)
 80061b6:	4b06      	ldr	r3, [pc, #24]	@ (80061d0 <HAL_RCC_OscConfig+0x824>)
 80061b8:	4013      	ands	r3, r2
 80061ba:	60cb      	str	r3, [r1, #12]
 80061bc:	e001      	b.n	80061c2 <HAL_RCC_OscConfig+0x816>
#endif /* RCC_PLLSAI2_SUPPORT */
      }
      else
      {
        /* PLL is already used as System core clock */
        return HAL_ERROR;
 80061be:	2301      	movs	r3, #1
 80061c0:	e000      	b.n	80061c4 <HAL_RCC_OscConfig+0x818>
      }
    }
  }
  return HAL_OK;
 80061c2:	2300      	movs	r3, #0
}
 80061c4:	4618      	mov	r0, r3
 80061c6:	3720      	adds	r7, #32
 80061c8:	46bd      	mov	sp, r7
 80061ca:	bd80      	pop	{r7, pc}
 80061cc:	40021000 	.word	0x40021000
 80061d0:	feeefffc 	.word	0xfeeefffc

080061d4 <HAL_RCC_ClockConfig>:
  *         HPRE[3:0] bits to ensure that HCLK not exceed the maximum allowed frequency
  *         (for more details refer to section above "Initialization/de-initialization functions")
  * @retval None
  */
HAL_StatusTypeDef HAL_RCC_ClockConfig(RCC_ClkInitTypeDef  *RCC_ClkInitStruct, uint32_t FLatency)
{
 80061d4:	b580      	push	{r7, lr}
 80061d6:	b084      	sub	sp, #16
 80061d8:	af00      	add	r7, sp, #0
 80061da:	6078      	str	r0, [r7, #4]
 80061dc:	6039      	str	r1, [r7, #0]
  uint32_t hpre = RCC_SYSCLK_DIV1;
#endif
  HAL_StatusTypeDef status;

  /* Check Null pointer */
  if(RCC_ClkInitStruct == NULL)
 80061de:	687b      	ldr	r3, [r7, #4]
 80061e0:	2b00      	cmp	r3, #0
 80061e2:	d101      	bne.n	80061e8 <HAL_RCC_ClockConfig+0x14>
  {
    return HAL_ERROR;
 80061e4:	2301      	movs	r3, #1
 80061e6:	e0e7      	b.n	80063b8 <HAL_RCC_ClockConfig+0x1e4>
  /* To correctly read data from FLASH memory, the number of wait states (LATENCY)
    must be correctly programmed according to the frequency of the CPU clock
    (HCLK) and the supply voltage of the device. */

  /* Increasing the number of wait states because of higher CPU frequency */
  if(FLatency > __HAL_FLASH_GET_LATENCY())
 80061e8:	4b75      	ldr	r3, [pc, #468]	@ (80063c0 <HAL_RCC_ClockConfig+0x1ec>)
 80061ea:	681b      	ldr	r3, [r3, #0]
 80061ec:	f003 0307 	and.w	r3, r3, #7
 80061f0:	683a      	ldr	r2, [r7, #0]
 80061f2:	429a      	cmp	r2, r3
 80061f4:	d910      	bls.n	8006218 <HAL_RCC_ClockConfig+0x44>
  {
    /* Program the new number of wait states to the LATENCY bits in the FLASH_ACR register */
    __HAL_FLASH_SET_LATENCY(FLatency);
 80061f6:	4b72      	ldr	r3, [pc, #456]	@ (80063c0 <HAL_RCC_ClockConfig+0x1ec>)
 80061f8:	681b      	ldr	r3, [r3, #0]
 80061fa:	f023 0207 	bic.w	r2, r3, #7
 80061fe:	4970      	ldr	r1, [pc, #448]	@ (80063c0 <HAL_RCC_ClockConfig+0x1ec>)
 8006200:	683b      	ldr	r3, [r7, #0]
 8006202:	4313      	orrs	r3, r2
 8006204:	600b      	str	r3, [r1, #0]

    /* Check that the new number of wait states is taken into account to access the Flash
    memory by reading the FLASH_ACR register */
    if(__HAL_FLASH_GET_LATENCY() != FLatency)
 8006206:	4b6e      	ldr	r3, [pc, #440]	@ (80063c0 <HAL_RCC_ClockConfig+0x1ec>)
 8006208:	681b      	ldr	r3, [r3, #0]
 800620a:	f003 0307 	and.w	r3, r3, #7
 800620e:	683a      	ldr	r2, [r7, #0]
 8006210:	429a      	cmp	r2, r3
 8006212:	d001      	beq.n	8006218 <HAL_RCC_ClockConfig+0x44>
    {
      return HAL_ERROR;
 8006214:	2301      	movs	r3, #1
 8006216:	e0cf      	b.n	80063b8 <HAL_RCC_ClockConfig+0x1e4>
    }
  }

  /*----------------- HCLK Configuration prior to SYSCLK----------------------*/
  /* Apply higher HCLK prescaler request here to ensure CPU clock is not of of spec when SYSCLK is increased */
  if(((RCC_ClkInitStruct->ClockType) & RCC_CLOCKTYPE_HCLK) == RCC_CLOCKTYPE_HCLK)
 8006218:	687b      	ldr	r3, [r7, #4]
 800621a:	681b      	ldr	r3, [r3, #0]
 800621c:	f003 0302 	and.w	r3, r3, #2
 8006220:	2b00      	cmp	r3, #0
 8006222:	d010      	beq.n	8006246 <HAL_RCC_ClockConfig+0x72>
  {
    assert_param(IS_RCC_HCLK(RCC_ClkInitStruct->AHBCLKDivider));

    if(RCC_ClkInitStruct->AHBCLKDivider > READ_BIT(RCC->CFGR, RCC_CFGR_HPRE))
 8006224:	687b      	ldr	r3, [r7, #4]
 8006226:	689a      	ldr	r2, [r3, #8]
 8006228:	4b66      	ldr	r3, [pc, #408]	@ (80063c4 <HAL_RCC_ClockConfig+0x1f0>)
 800622a:	689b      	ldr	r3, [r3, #8]
 800622c:	f003 03f0 	and.w	r3, r3, #240	@ 0xf0
 8006230:	429a      	cmp	r2, r3
 8006232:	d908      	bls.n	8006246 <HAL_RCC_ClockConfig+0x72>
    {
      MODIFY_REG(RCC->CFGR, RCC_CFGR_HPRE, RCC_ClkInitStruct->AHBCLKDivider);
 8006234:	4b63      	ldr	r3, [pc, #396]	@ (80063c4 <HAL_RCC_ClockConfig+0x1f0>)
 8006236:	689b      	ldr	r3, [r3, #8]
 8006238:	f023 02f0 	bic.w	r2, r3, #240	@ 0xf0
 800623c:	687b      	ldr	r3, [r7, #4]
 800623e:	689b      	ldr	r3, [r3, #8]
 8006240:	4960      	ldr	r1, [pc, #384]	@ (80063c4 <HAL_RCC_ClockConfig+0x1f0>)
 8006242:	4313      	orrs	r3, r2
 8006244:	608b      	str	r3, [r1, #8]
    }
  }

  /*------------------------- SYSCLK Configuration ---------------------------*/
  if(((RCC_ClkInitStruct->ClockType) & RCC_CLOCKTYPE_SYSCLK) == RCC_CLOCKTYPE_SYSCLK)
 8006246:	687b      	ldr	r3, [r7, #4]
 8006248:	681b      	ldr	r3, [r3, #0]
 800624a:	f003 0301 	and.w	r3, r3, #1
 800624e:	2b00      	cmp	r3, #0
 8006250:	d04c      	beq.n	80062ec <HAL_RCC_ClockConfig+0x118>
  {
    assert_param(IS_RCC_SYSCLKSOURCE(RCC_ClkInitStruct->SYSCLKSource));

    /* PLL is selected as System Clock Source */
    if(RCC_ClkInitStruct->SYSCLKSource == RCC_SYSCLKSOURCE_PLLCLK)
 8006252:	687b      	ldr	r3, [r7, #4]
 8006254:	685b      	ldr	r3, [r3, #4]
 8006256:	2b03      	cmp	r3, #3
 8006258:	d107      	bne.n	800626a <HAL_RCC_ClockConfig+0x96>
    {
      /* Check the PLL ready flag */
      if(READ_BIT(RCC->CR, RCC_CR_PLLRDY) == 0U)
 800625a:	4b5a      	ldr	r3, [pc, #360]	@ (80063c4 <HAL_RCC_ClockConfig+0x1f0>)
 800625c:	681b      	ldr	r3, [r3, #0]
 800625e:	f003 7300 	and.w	r3, r3, #33554432	@ 0x2000000
 8006262:	2b00      	cmp	r3, #0
 8006264:	d121      	bne.n	80062aa <HAL_RCC_ClockConfig+0xd6>
      {
        return HAL_ERROR;
 8006266:	2301      	movs	r3, #1
 8006268:	e0a6      	b.n	80063b8 <HAL_RCC_ClockConfig+0x1e4>
#endif
    }
    else
    {
      /* HSE is selected as System Clock Source */
      if(RCC_ClkInitStruct->SYSCLKSource == RCC_SYSCLKSOURCE_HSE)
 800626a:	687b      	ldr	r3, [r7, #4]
 800626c:	685b      	ldr	r3, [r3, #4]
 800626e:	2b02      	cmp	r3, #2
 8006270:	d107      	bne.n	8006282 <HAL_RCC_ClockConfig+0xae>
      {
        /* Check the HSE ready flag */
        if(READ_BIT(RCC->CR, RCC_CR_HSERDY) == 0U)
 8006272:	4b54      	ldr	r3, [pc, #336]	@ (80063c4 <HAL_RCC_ClockConfig+0x1f0>)
 8006274:	681b      	ldr	r3, [r3, #0]
 8006276:	f403 3300 	and.w	r3, r3, #131072	@ 0x20000
 800627a:	2b00      	cmp	r3, #0
 800627c:	d115      	bne.n	80062aa <HAL_RCC_ClockConfig+0xd6>
        {
          return HAL_ERROR;
 800627e:	2301      	movs	r3, #1
 8006280:	e09a      	b.n	80063b8 <HAL_RCC_ClockConfig+0x1e4>
        }
      }
      /* MSI is selected as System Clock Source */
      else if(RCC_ClkInitStruct->SYSCLKSource == RCC_SYSCLKSOURCE_MSI)
 8006282:	687b      	ldr	r3, [r7, #4]
 8006284:	685b      	ldr	r3, [r3, #4]
 8006286:	2b00      	cmp	r3, #0
 8006288:	d107      	bne.n	800629a <HAL_RCC_ClockConfig+0xc6>
      {
        /* Check the MSI ready flag */
        if(READ_BIT(RCC->CR, RCC_CR_MSIRDY) == 0U)
 800628a:	4b4e      	ldr	r3, [pc, #312]	@ (80063c4 <HAL_RCC_ClockConfig+0x1f0>)
 800628c:	681b      	ldr	r3, [r3, #0]
 800628e:	f003 0302 	and.w	r3, r3, #2
 8006292:	2b00      	cmp	r3, #0
 8006294:	d109      	bne.n	80062aa <HAL_RCC_ClockConfig+0xd6>
        {
          return HAL_ERROR;
 8006296:	2301      	movs	r3, #1
 8006298:	e08e      	b.n	80063b8 <HAL_RCC_ClockConfig+0x1e4>
      }
      /* HSI is selected as System Clock Source */
      else
      {
        /* Check the HSI ready flag */
        if(READ_BIT(RCC->CR, RCC_CR_HSIRDY) == 0U)
 800629a:	4b4a      	ldr	r3, [pc, #296]	@ (80063c4 <HAL_RCC_ClockConfig+0x1f0>)
 800629c:	681b      	ldr	r3, [r3, #0]
 800629e:	f403 6380 	and.w	r3, r3, #1024	@ 0x400
 80062a2:	2b00      	cmp	r3, #0
 80062a4:	d101      	bne.n	80062aa <HAL_RCC_ClockConfig+0xd6>
        {
          return HAL_ERROR;
 80062a6:	2301      	movs	r3, #1
 80062a8:	e086      	b.n	80063b8 <HAL_RCC_ClockConfig+0x1e4>
      }
#endif

    }

    MODIFY_REG(RCC->CFGR, RCC_CFGR_SW, RCC_ClkInitStruct->SYSCLKSource);
 80062aa:	4b46      	ldr	r3, [pc, #280]	@ (80063c4 <HAL_RCC_ClockConfig+0x1f0>)
 80062ac:	689b      	ldr	r3, [r3, #8]
 80062ae:	f023 0203 	bic.w	r2, r3, #3
 80062b2:	687b      	ldr	r3, [r7, #4]
 80062b4:	685b      	ldr	r3, [r3, #4]
 80062b6:	4943      	ldr	r1, [pc, #268]	@ (80063c4 <HAL_RCC_ClockConfig+0x1f0>)
 80062b8:	4313      	orrs	r3, r2
 80062ba:	608b      	str	r3, [r1, #8]

    /* Get Start Tick*/
    tickstart = HAL_GetTick();
 80062bc:	f7fd fe86 	bl	8003fcc <HAL_GetTick>
 80062c0:	60f8      	str	r0, [r7, #12]

    while(__HAL_RCC_GET_SYSCLK_SOURCE() != (RCC_ClkInitStruct->SYSCLKSource << RCC_CFGR_SWS_Pos))
 80062c2:	e00a      	b.n	80062da <HAL_RCC_ClockConfig+0x106>
    {
      if((HAL_GetTick() - tickstart) > CLOCKSWITCH_TIMEOUT_VALUE)
 80062c4:	f7fd fe82 	bl	8003fcc <HAL_GetTick>
 80062c8:	4602      	mov	r2, r0
 80062ca:	68fb      	ldr	r3, [r7, #12]
 80062cc:	1ad3      	subs	r3, r2, r3
 80062ce:	f241 3288 	movw	r2, #5000	@ 0x1388
 80062d2:	4293      	cmp	r3, r2
 80062d4:	d901      	bls.n	80062da <HAL_RCC_ClockConfig+0x106>
      {
        return HAL_TIMEOUT;
 80062d6:	2303      	movs	r3, #3
 80062d8:	e06e      	b.n	80063b8 <HAL_RCC_ClockConfig+0x1e4>
    while(__HAL_RCC_GET_SYSCLK_SOURCE() != (RCC_ClkInitStruct->SYSCLKSource << RCC_CFGR_SWS_Pos))
 80062da:	4b3a      	ldr	r3, [pc, #232]	@ (80063c4 <HAL_RCC_ClockConfig+0x1f0>)
 80062dc:	689b      	ldr	r3, [r3, #8]
 80062de:	f003 020c 	and.w	r2, r3, #12
 80062e2:	687b      	ldr	r3, [r7, #4]
 80062e4:	685b      	ldr	r3, [r3, #4]
 80062e6:	009b      	lsls	r3, r3, #2
 80062e8:	429a      	cmp	r2, r3
 80062ea:	d1eb      	bne.n	80062c4 <HAL_RCC_ClockConfig+0xf0>
  }
#endif

  /*----------------- HCLK Configuration after SYSCLK-------------------------*/
  /* Apply lower HCLK prescaler request here to ensure CPU clock is not of of spec when SYSCLK is set */
  if(((RCC_ClkInitStruct->ClockType) & RCC_CLOCKTYPE_HCLK) == RCC_CLOCKTYPE_HCLK)
 80062ec:	687b      	ldr	r3, [r7, #4]
 80062ee:	681b      	ldr	r3, [r3, #0]
 80062f0:	f003 0302 	and.w	r3, r3, #2
 80062f4:	2b00      	cmp	r3, #0
 80062f6:	d010      	beq.n	800631a <HAL_RCC_ClockConfig+0x146>
  {
    if(RCC_ClkInitStruct->AHBCLKDivider < READ_BIT(RCC->CFGR, RCC_CFGR_HPRE))
 80062f8:	687b      	ldr	r3, [r7, #4]
 80062fa:	689a      	ldr	r2, [r3, #8]
 80062fc:	4b31      	ldr	r3, [pc, #196]	@ (80063c4 <HAL_RCC_ClockConfig+0x1f0>)
 80062fe:	689b      	ldr	r3, [r3, #8]
 8006300:	f003 03f0 	and.w	r3, r3, #240	@ 0xf0
 8006304:	429a      	cmp	r2, r3
 8006306:	d208      	bcs.n	800631a <HAL_RCC_ClockConfig+0x146>
    {
      MODIFY_REG(RCC->CFGR, RCC_CFGR_HPRE, RCC_ClkInitStruct->AHBCLKDivider);
 8006308:	4b2e      	ldr	r3, [pc, #184]	@ (80063c4 <HAL_RCC_ClockConfig+0x1f0>)
 800630a:	689b      	ldr	r3, [r3, #8]
 800630c:	f023 02f0 	bic.w	r2, r3, #240	@ 0xf0
 8006310:	687b      	ldr	r3, [r7, #4]
 8006312:	689b      	ldr	r3, [r3, #8]
 8006314:	492b      	ldr	r1, [pc, #172]	@ (80063c4 <HAL_RCC_ClockConfig+0x1f0>)
 8006316:	4313      	orrs	r3, r2
 8006318:	608b      	str	r3, [r1, #8]
    }
  }

  /* Allow decreasing of the number of wait states (because of lower CPU frequency expected) */
  if(FLatency < __HAL_FLASH_GET_LATENCY())
 800631a:	4b29      	ldr	r3, [pc, #164]	@ (80063c0 <HAL_RCC_ClockConfig+0x1ec>)
 800631c:	681b      	ldr	r3, [r3, #0]
 800631e:	f003 0307 	and.w	r3, r3, #7
 8006322:	683a      	ldr	r2, [r7, #0]
 8006324:	429a      	cmp	r2, r3
 8006326:	d210      	bcs.n	800634a <HAL_RCC_ClockConfig+0x176>
  {
    /* Program the new number of wait states to the LATENCY bits in the FLASH_ACR register */
    __HAL_FLASH_SET_LATENCY(FLatency);
 8006328:	4b25      	ldr	r3, [pc, #148]	@ (80063c0 <HAL_RCC_ClockConfig+0x1ec>)
 800632a:	681b      	ldr	r3, [r3, #0]
 800632c:	f023 0207 	bic.w	r2, r3, #7
 8006330:	4923      	ldr	r1, [pc, #140]	@ (80063c0 <HAL_RCC_ClockConfig+0x1ec>)
 8006332:	683b      	ldr	r3, [r7, #0]
 8006334:	4313      	orrs	r3, r2
 8006336:	600b      	str	r3, [r1, #0]

    /* Check that the new number of wait states is taken into account to access the Flash
    memory by reading the FLASH_ACR register */
    if(__HAL_FLASH_GET_LATENCY() != FLatency)
 8006338:	4b21      	ldr	r3, [pc, #132]	@ (80063c0 <HAL_RCC_ClockConfig+0x1ec>)
 800633a:	681b      	ldr	r3, [r3, #0]
 800633c:	f003 0307 	and.w	r3, r3, #7
 8006340:	683a      	ldr	r2, [r7, #0]
 8006342:	429a      	cmp	r2, r3
 8006344:	d001      	beq.n	800634a <HAL_RCC_ClockConfig+0x176>
    {
      return HAL_ERROR;
 8006346:	2301      	movs	r3, #1
 8006348:	e036      	b.n	80063b8 <HAL_RCC_ClockConfig+0x1e4>
    }
  }

  /*-------------------------- PCLK1 Configuration ---------------------------*/
  if(((RCC_ClkInitStruct->ClockType) & RCC_CLOCKTYPE_PCLK1) == RCC_CLOCKTYPE_PCLK1)
 800634a:	687b      	ldr	r3, [r7, #4]
 800634c:	681b      	ldr	r3, [r3, #0]
 800634e:	f003 0304 	and.w	r3, r3, #4
 8006352:	2b00      	cmp	r3, #0
 8006354:	d008      	beq.n	8006368 <HAL_RCC_ClockConfig+0x194>
  {
    assert_param(IS_RCC_PCLK(RCC_ClkInitStruct->APB1CLKDivider));
    MODIFY_REG(RCC->CFGR, RCC_CFGR_PPRE1, RCC_ClkInitStruct->APB1CLKDivider);
 8006356:	4b1b      	ldr	r3, [pc, #108]	@ (80063c4 <HAL_RCC_ClockConfig+0x1f0>)
 8006358:	689b      	ldr	r3, [r3, #8]
 800635a:	f423 62e0 	bic.w	r2, r3, #1792	@ 0x700
 800635e:	687b      	ldr	r3, [r7, #4]
 8006360:	68db      	ldr	r3, [r3, #12]
 8006362:	4918      	ldr	r1, [pc, #96]	@ (80063c4 <HAL_RCC_ClockConfig+0x1f0>)
 8006364:	4313      	orrs	r3, r2
 8006366:	608b      	str	r3, [r1, #8]
  }

  /*-------------------------- PCLK2 Configuration ---------------------------*/
  if(((RCC_ClkInitStruct->ClockType) & RCC_CLOCKTYPE_PCLK2) == RCC_CLOCKTYPE_PCLK2)
 8006368:	687b      	ldr	r3, [r7, #4]
 800636a:	681b      	ldr	r3, [r3, #0]
 800636c:	f003 0308 	and.w	r3, r3, #8
 8006370:	2b00      	cmp	r3, #0
 8006372:	d009      	beq.n	8006388 <HAL_RCC_ClockConfig+0x1b4>
  {
    assert_param(IS_RCC_PCLK(RCC_ClkInitStruct->APB2CLKDivider));
    MODIFY_REG(RCC->CFGR, RCC_CFGR_PPRE2, ((RCC_ClkInitStruct->APB2CLKDivider) << 3U));
 8006374:	4b13      	ldr	r3, [pc, #76]	@ (80063c4 <HAL_RCC_ClockConfig+0x1f0>)
 8006376:	689b      	ldr	r3, [r3, #8]
 8006378:	f423 5260 	bic.w	r2, r3, #14336	@ 0x3800
 800637c:	687b      	ldr	r3, [r7, #4]
 800637e:	691b      	ldr	r3, [r3, #16]
 8006380:	00db      	lsls	r3, r3, #3
 8006382:	4910      	ldr	r1, [pc, #64]	@ (80063c4 <HAL_RCC_ClockConfig+0x1f0>)
 8006384:	4313      	orrs	r3, r2
 8006386:	608b      	str	r3, [r1, #8]
  }

  /* Update the SystemCoreClock global variable */
  SystemCoreClock = HAL_RCC_GetSysClockFreq() >> (AHBPrescTable[READ_BIT(RCC->CFGR, RCC_CFGR_HPRE) >> RCC_CFGR_HPRE_Pos] & 0x1FU);
 8006388:	f000 f824 	bl	80063d4 <HAL_RCC_GetSysClockFreq>
 800638c:	4602      	mov	r2, r0
 800638e:	4b0d      	ldr	r3, [pc, #52]	@ (80063c4 <HAL_RCC_ClockConfig+0x1f0>)
 8006390:	689b      	ldr	r3, [r3, #8]
 8006392:	091b      	lsrs	r3, r3, #4
 8006394:	f003 030f 	and.w	r3, r3, #15
 8006398:	490b      	ldr	r1, [pc, #44]	@ (80063c8 <HAL_RCC_ClockConfig+0x1f4>)
 800639a:	5ccb      	ldrb	r3, [r1, r3]
 800639c:	f003 031f 	and.w	r3, r3, #31
 80063a0:	fa22 f303 	lsr.w	r3, r2, r3
 80063a4:	4a09      	ldr	r2, [pc, #36]	@ (80063cc <HAL_RCC_ClockConfig+0x1f8>)
 80063a6:	6013      	str	r3, [r2, #0]

  /* Configure the source of time base considering new system clocks settings*/
  status = HAL_InitTick(uwTickPrio);
 80063a8:	4b09      	ldr	r3, [pc, #36]	@ (80063d0 <HAL_RCC_ClockConfig+0x1fc>)
 80063aa:	681b      	ldr	r3, [r3, #0]
 80063ac:	4618      	mov	r0, r3
 80063ae:	f7fd fdbd 	bl	8003f2c <HAL_InitTick>
 80063b2:	4603      	mov	r3, r0
 80063b4:	72fb      	strb	r3, [r7, #11]

  return status;
 80063b6:	7afb      	ldrb	r3, [r7, #11]
}
 80063b8:	4618      	mov	r0, r3
 80063ba:	3710      	adds	r7, #16
 80063bc:	46bd      	mov	sp, r7
 80063be:	bd80      	pop	{r7, pc}
 80063c0:	40022000 	.word	0x40022000
 80063c4:	40021000 	.word	0x40021000
 80063c8:	08008608 	.word	0x08008608
 80063cc:	20000000 	.word	0x20000000
 80063d0:	20000004 	.word	0x20000004

080063d4 <HAL_RCC_GetSysClockFreq>:
  *
  *
  * @retval SYSCLK frequency
  */
uint32_t HAL_RCC_GetSysClockFreq(void)
{
 80063d4:	b480      	push	{r7}
 80063d6:	b089      	sub	sp, #36	@ 0x24
 80063d8:	af00      	add	r7, sp, #0
  uint32_t msirange = 0U, sysclockfreq = 0U;
 80063da:	2300      	movs	r3, #0
 80063dc:	61fb      	str	r3, [r7, #28]
 80063de:	2300      	movs	r3, #0
 80063e0:	61bb      	str	r3, [r7, #24]
  uint32_t pllvco, pllsource, pllr, pllm;    /* no init needed */
  uint32_t sysclk_source, pll_oscsource;

  sysclk_source = __HAL_RCC_GET_SYSCLK_SOURCE();
 80063e2:	4b3e      	ldr	r3, [pc, #248]	@ (80064dc <HAL_RCC_GetSysClockFreq+0x108>)
 80063e4:	689b      	ldr	r3, [r3, #8]
 80063e6:	f003 030c 	and.w	r3, r3, #12
 80063ea:	613b      	str	r3, [r7, #16]
  pll_oscsource = __HAL_RCC_GET_PLL_OSCSOURCE();
 80063ec:	4b3b      	ldr	r3, [pc, #236]	@ (80064dc <HAL_RCC_GetSysClockFreq+0x108>)
 80063ee:	68db      	ldr	r3, [r3, #12]
 80063f0:	f003 0303 	and.w	r3, r3, #3
 80063f4:	60fb      	str	r3, [r7, #12]

  if((sysclk_source == RCC_CFGR_SWS_MSI) ||
 80063f6:	693b      	ldr	r3, [r7, #16]
 80063f8:	2b00      	cmp	r3, #0
 80063fa:	d005      	beq.n	8006408 <HAL_RCC_GetSysClockFreq+0x34>
 80063fc:	693b      	ldr	r3, [r7, #16]
 80063fe:	2b0c      	cmp	r3, #12
 8006400:	d121      	bne.n	8006446 <HAL_RCC_GetSysClockFreq+0x72>
     ((sysclk_source == RCC_CFGR_SWS_PLL) && (pll_oscsource == RCC_PLLSOURCE_MSI)))
 8006402:	68fb      	ldr	r3, [r7, #12]
 8006404:	2b01      	cmp	r3, #1
 8006406:	d11e      	bne.n	8006446 <HAL_RCC_GetSysClockFreq+0x72>
  {
    /* MSI or PLL with MSI source used as system clock source */

    /* Get SYSCLK source */
    if(READ_BIT(RCC->CR, RCC_CR_MSIRGSEL) == 0U)
 8006408:	4b34      	ldr	r3, [pc, #208]	@ (80064dc <HAL_RCC_GetSysClockFreq+0x108>)
 800640a:	681b      	ldr	r3, [r3, #0]
 800640c:	f003 0308 	and.w	r3, r3, #8
 8006410:	2b00      	cmp	r3, #0
 8006412:	d107      	bne.n	8006424 <HAL_RCC_GetSysClockFreq+0x50>
    { /* MSISRANGE from RCC_CSR applies */
      msirange = READ_BIT(RCC->CSR, RCC_CSR_MSISRANGE) >> RCC_CSR_MSISRANGE_Pos;
 8006414:	4b31      	ldr	r3, [pc, #196]	@ (80064dc <HAL_RCC_GetSysClockFreq+0x108>)
 8006416:	f8d3 3094 	ldr.w	r3, [r3, #148]	@ 0x94
 800641a:	0a1b      	lsrs	r3, r3, #8
 800641c:	f003 030f 	and.w	r3, r3, #15
 8006420:	61fb      	str	r3, [r7, #28]
 8006422:	e005      	b.n	8006430 <HAL_RCC_GetSysClockFreq+0x5c>
    }
    else
    { /* MSIRANGE from RCC_CR applies */
      msirange = READ_BIT(RCC->CR, RCC_CR_MSIRANGE) >> RCC_CR_MSIRANGE_Pos;
 8006424:	4b2d      	ldr	r3, [pc, #180]	@ (80064dc <HAL_RCC_GetSysClockFreq+0x108>)
 8006426:	681b      	ldr	r3, [r3, #0]
 8006428:	091b      	lsrs	r3, r3, #4
 800642a:	f003 030f 	and.w	r3, r3, #15
 800642e:	61fb      	str	r3, [r7, #28]
    }
    /*MSI frequency range in HZ*/
    msirange = MSIRangeTable[msirange];
 8006430:	4a2b      	ldr	r2, [pc, #172]	@ (80064e0 <HAL_RCC_GetSysClockFreq+0x10c>)
 8006432:	69fb      	ldr	r3, [r7, #28]
 8006434:	f852 3023 	ldr.w	r3, [r2, r3, lsl #2]
 8006438:	61fb      	str	r3, [r7, #28]

    if(sysclk_source == RCC_CFGR_SWS_MSI)
 800643a:	693b      	ldr	r3, [r7, #16]
 800643c:	2b00      	cmp	r3, #0
 800643e:	d10d      	bne.n	800645c <HAL_RCC_GetSysClockFreq+0x88>
    {
      /* MSI used as system clock source */
      sysclockfreq = msirange;
 8006440:	69fb      	ldr	r3, [r7, #28]
 8006442:	61bb      	str	r3, [r7, #24]
    if(sysclk_source == RCC_CFGR_SWS_MSI)
 8006444:	e00a      	b.n	800645c <HAL_RCC_GetSysClockFreq+0x88>
    }
  }
  else if(sysclk_source == RCC_CFGR_SWS_HSI)
 8006446:	693b      	ldr	r3, [r7, #16]
 8006448:	2b04      	cmp	r3, #4
 800644a:	d102      	bne.n	8006452 <HAL_RCC_GetSysClockFreq+0x7e>
  {
    /* HSI used as system clock source */
    sysclockfreq = HSI_VALUE;
 800644c:	4b25      	ldr	r3, [pc, #148]	@ (80064e4 <HAL_RCC_GetSysClockFreq+0x110>)
 800644e:	61bb      	str	r3, [r7, #24]
 8006450:	e004      	b.n	800645c <HAL_RCC_GetSysClockFreq+0x88>
  }
  else if(sysclk_source == RCC_CFGR_SWS_HSE)
 8006452:	693b      	ldr	r3, [r7, #16]
 8006454:	2b08      	cmp	r3, #8
 8006456:	d101      	bne.n	800645c <HAL_RCC_GetSysClockFreq+0x88>
  {
    /* HSE used as system clock source */
    sysclockfreq = HSE_VALUE;
 8006458:	4b23      	ldr	r3, [pc, #140]	@ (80064e8 <HAL_RCC_GetSysClockFreq+0x114>)
 800645a:	61bb      	str	r3, [r7, #24]
  else
  {
    /* unexpected case: sysclockfreq at 0 */
  }

  if(sysclk_source == RCC_CFGR_SWS_PLL)
 800645c:	693b      	ldr	r3, [r7, #16]
 800645e:	2b0c      	cmp	r3, #12
 8006460:	d134      	bne.n	80064cc <HAL_RCC_GetSysClockFreq+0xf8>
    /* PLL used as system clock  source */

    /* PLL_VCO = (HSE_VALUE or HSI_VALUE or MSI_VALUE) * PLLN / PLLM
    SYSCLK = PLL_VCO / PLLR
    */
    pllsource = READ_BIT(RCC->PLLCFGR, RCC_PLLCFGR_PLLSRC);
 8006462:	4b1e      	ldr	r3, [pc, #120]	@ (80064dc <HAL_RCC_GetSysClockFreq+0x108>)
 8006464:	68db      	ldr	r3, [r3, #12]
 8006466:	f003 0303 	and.w	r3, r3, #3
 800646a:	60bb      	str	r3, [r7, #8]

    switch (pllsource)
 800646c:	68bb      	ldr	r3, [r7, #8]
 800646e:	2b02      	cmp	r3, #2
 8006470:	d003      	beq.n	800647a <HAL_RCC_GetSysClockFreq+0xa6>
 8006472:	68bb      	ldr	r3, [r7, #8]
 8006474:	2b03      	cmp	r3, #3
 8006476:	d003      	beq.n	8006480 <HAL_RCC_GetSysClockFreq+0xac>
 8006478:	e005      	b.n	8006486 <HAL_RCC_GetSysClockFreq+0xb2>
    {
    case RCC_PLLSOURCE_HSI:  /* HSI used as PLL clock source */
      pllvco = HSI_VALUE;
 800647a:	4b1a      	ldr	r3, [pc, #104]	@ (80064e4 <HAL_RCC_GetSysClockFreq+0x110>)
 800647c:	617b      	str	r3, [r7, #20]
      break;
 800647e:	e005      	b.n	800648c <HAL_RCC_GetSysClockFreq+0xb8>

    case RCC_PLLSOURCE_HSE:  /* HSE used as PLL clock source */
      pllvco = HSE_VALUE;
 8006480:	4b19      	ldr	r3, [pc, #100]	@ (80064e8 <HAL_RCC_GetSysClockFreq+0x114>)
 8006482:	617b      	str	r3, [r7, #20]
      break;
 8006484:	e002      	b.n	800648c <HAL_RCC_GetSysClockFreq+0xb8>

    case RCC_PLLSOURCE_MSI:  /* MSI used as PLL clock source */
    default:
      pllvco = msirange;
 8006486:	69fb      	ldr	r3, [r7, #28]
 8006488:	617b      	str	r3, [r7, #20]
      break;
 800648a:	bf00      	nop
    }
    pllm = (READ_BIT(RCC->PLLCFGR, RCC_PLLCFGR_PLLM) >> RCC_PLLCFGR_PLLM_Pos) + 1U ;
 800648c:	4b13      	ldr	r3, [pc, #76]	@ (80064dc <HAL_RCC_GetSysClockFreq+0x108>)
 800648e:	68db      	ldr	r3, [r3, #12]
 8006490:	091b      	lsrs	r3, r3, #4
 8006492:	f003 0307 	and.w	r3, r3, #7
 8006496:	3301      	adds	r3, #1
 8006498:	607b      	str	r3, [r7, #4]
    pllvco = (pllvco * (READ_BIT(RCC->PLLCFGR, RCC_PLLCFGR_PLLN) >> RCC_PLLCFGR_PLLN_Pos)) / pllm;
 800649a:	4b10      	ldr	r3, [pc, #64]	@ (80064dc <HAL_RCC_GetSysClockFreq+0x108>)
 800649c:	68db      	ldr	r3, [r3, #12]
 800649e:	0a1b      	lsrs	r3, r3, #8
 80064a0:	f003 037f 	and.w	r3, r3, #127	@ 0x7f
 80064a4:	697a      	ldr	r2, [r7, #20]
 80064a6:	fb03 f202 	mul.w	r2, r3, r2
 80064aa:	687b      	ldr	r3, [r7, #4]
 80064ac:	fbb2 f3f3 	udiv	r3, r2, r3
 80064b0:	617b      	str	r3, [r7, #20]
    pllr = ((READ_BIT(RCC->PLLCFGR, RCC_PLLCFGR_PLLR) >> RCC_PLLCFGR_PLLR_Pos) + 1U ) * 2U;
 80064b2:	4b0a      	ldr	r3, [pc, #40]	@ (80064dc <HAL_RCC_GetSysClockFreq+0x108>)
 80064b4:	68db      	ldr	r3, [r3, #12]
 80064b6:	0e5b      	lsrs	r3, r3, #25
 80064b8:	f003 0303 	and.w	r3, r3, #3
 80064bc:	3301      	adds	r3, #1
 80064be:	005b      	lsls	r3, r3, #1
 80064c0:	603b      	str	r3, [r7, #0]
    sysclockfreq = pllvco / pllr;
 80064c2:	697a      	ldr	r2, [r7, #20]
 80064c4:	683b      	ldr	r3, [r7, #0]
 80064c6:	fbb2 f3f3 	udiv	r3, r2, r3
 80064ca:	61bb      	str	r3, [r7, #24]
  }

  return sysclockfreq;
 80064cc:	69bb      	ldr	r3, [r7, #24]
}
 80064ce:	4618      	mov	r0, r3
 80064d0:	3724      	adds	r7, #36	@ 0x24
 80064d2:	46bd      	mov	sp, r7
 80064d4:	f85d 7b04 	ldr.w	r7, [sp], #4
 80064d8:	4770      	bx	lr
 80064da:	bf00      	nop
 80064dc:	40021000 	.word	0x40021000
 80064e0:	08008620 	.word	0x08008620
 80064e4:	00f42400 	.word	0x00f42400
 80064e8:	007a1200 	.word	0x007a1200

080064ec <HAL_RCC_GetHCLKFreq>:
  *
  * @note   The SystemCoreClock CMSIS variable is used to store System Clock Frequency.
  * @retval HCLK frequency in Hz
  */
uint32_t HAL_RCC_GetHCLKFreq(void)
{
 80064ec:	b480      	push	{r7}
 80064ee:	af00      	add	r7, sp, #0
  return SystemCoreClock;
 80064f0:	4b03      	ldr	r3, [pc, #12]	@ (8006500 <HAL_RCC_GetHCLKFreq+0x14>)
 80064f2:	681b      	ldr	r3, [r3, #0]
}
 80064f4:	4618      	mov	r0, r3
 80064f6:	46bd      	mov	sp, r7
 80064f8:	f85d 7b04 	ldr.w	r7, [sp], #4
 80064fc:	4770      	bx	lr
 80064fe:	bf00      	nop
 8006500:	20000000 	.word	0x20000000

08006504 <HAL_RCC_GetPCLK1Freq>:
  * @note   Each time PCLK1 changes, this function must be called to update the
  *         right PCLK1 value. Otherwise, any configuration based on this function will be incorrect.
  * @retval PCLK1 frequency in Hz
  */
uint32_t HAL_RCC_GetPCLK1Freq(void)
{
 8006504:	b580      	push	{r7, lr}
 8006506:	af00      	add	r7, sp, #0
  /* Get HCLK source and Compute PCLK1 frequency ---------------------------*/
  return (HAL_RCC_GetHCLKFreq() >> (APBPrescTable[READ_BIT(RCC->CFGR, RCC_CFGR_PPRE1) >> RCC_CFGR_PPRE1_Pos] & 0x1FU));
 8006508:	f7ff fff0 	bl	80064ec <HAL_RCC_GetHCLKFreq>
 800650c:	4602      	mov	r2, r0
 800650e:	4b06      	ldr	r3, [pc, #24]	@ (8006528 <HAL_RCC_GetPCLK1Freq+0x24>)
 8006510:	689b      	ldr	r3, [r3, #8]
 8006512:	0a1b      	lsrs	r3, r3, #8
 8006514:	f003 0307 	and.w	r3, r3, #7
 8006518:	4904      	ldr	r1, [pc, #16]	@ (800652c <HAL_RCC_GetPCLK1Freq+0x28>)
 800651a:	5ccb      	ldrb	r3, [r1, r3]
 800651c:	f003 031f 	and.w	r3, r3, #31
 8006520:	fa22 f303 	lsr.w	r3, r2, r3
}
 8006524:	4618      	mov	r0, r3
 8006526:	bd80      	pop	{r7, pc}
 8006528:	40021000 	.word	0x40021000
 800652c:	08008618 	.word	0x08008618

08006530 <HAL_RCC_GetPCLK2Freq>:
  * @note   Each time PCLK2 changes, this function must be called to update the
  *         right PCLK2 value. Otherwise, any configuration based on this function will be incorrect.
  * @retval PCLK2 frequency in Hz
  */
uint32_t HAL_RCC_GetPCLK2Freq(void)
{
 8006530:	b580      	push	{r7, lr}
 8006532:	af00      	add	r7, sp, #0
  /* Get HCLK source and Compute PCLK2 frequency ---------------------------*/
  return (HAL_RCC_GetHCLKFreq()>> (APBPrescTable[READ_BIT(RCC->CFGR, RCC_CFGR_PPRE2) >> RCC_CFGR_PPRE2_Pos] & 0x1FU));
 8006534:	f7ff ffda 	bl	80064ec <HAL_RCC_GetHCLKFreq>
 8006538:	4602      	mov	r2, r0
 800653a:	4b06      	ldr	r3, [pc, #24]	@ (8006554 <HAL_RCC_GetPCLK2Freq+0x24>)
 800653c:	689b      	ldr	r3, [r3, #8]
 800653e:	0adb      	lsrs	r3, r3, #11
 8006540:	f003 0307 	and.w	r3, r3, #7
 8006544:	4904      	ldr	r1, [pc, #16]	@ (8006558 <HAL_RCC_GetPCLK2Freq+0x28>)
 8006546:	5ccb      	ldrb	r3, [r1, r3]
 8006548:	f003 031f 	and.w	r3, r3, #31
 800654c:	fa22 f303 	lsr.w	r3, r2, r3
}
 8006550:	4618      	mov	r0, r3
 8006552:	bd80      	pop	{r7, pc}
 8006554:	40021000 	.word	0x40021000
 8006558:	08008618 	.word	0x08008618

0800655c <RCC_SetFlashLatencyFromMSIRange>:
            voltage range.
  * @param  msirange  MSI range value from RCC_MSIRANGE_0 to RCC_MSIRANGE_11
  * @retval HAL status
  */
static HAL_StatusTypeDef RCC_SetFlashLatencyFromMSIRange(uint32_t msirange)
{
 800655c:	b580      	push	{r7, lr}
 800655e:	b086      	sub	sp, #24
 8006560:	af00      	add	r7, sp, #0
 8006562:	6078      	str	r0, [r7, #4]
  uint32_t vos;
  uint32_t latency = FLASH_LATENCY_0;  /* default value 0WS */
 8006564:	2300      	movs	r3, #0
 8006566:	613b      	str	r3, [r7, #16]

  if(__HAL_RCC_PWR_IS_CLK_ENABLED())
 8006568:	4b2a      	ldr	r3, [pc, #168]	@ (8006614 <RCC_SetFlashLatencyFromMSIRange+0xb8>)
 800656a:	6d9b      	ldr	r3, [r3, #88]	@ 0x58
 800656c:	f003 5380 	and.w	r3, r3, #268435456	@ 0x10000000
 8006570:	2b00      	cmp	r3, #0
 8006572:	d003      	beq.n	800657c <RCC_SetFlashLatencyFromMSIRange+0x20>
  {
    vos = HAL_PWREx_GetVoltageRange();
 8006574:	f7ff f91e 	bl	80057b4 <HAL_PWREx_GetVoltageRange>
 8006578:	6178      	str	r0, [r7, #20]
 800657a:	e014      	b.n	80065a6 <RCC_SetFlashLatencyFromMSIRange+0x4a>
  }
  else
  {
    __HAL_RCC_PWR_CLK_ENABLE();
 800657c:	4b25      	ldr	r3, [pc, #148]	@ (8006614 <RCC_SetFlashLatencyFromMSIRange+0xb8>)
 800657e:	6d9b      	ldr	r3, [r3, #88]	@ 0x58
 8006580:	4a24      	ldr	r2, [pc, #144]	@ (8006614 <RCC_SetFlashLatencyFromMSIRange+0xb8>)
 8006582:	f043 5380 	orr.w	r3, r3, #268435456	@ 0x10000000
 8006586:	6593      	str	r3, [r2, #88]	@ 0x58
 8006588:	4b22      	ldr	r3, [pc, #136]	@ (8006614 <RCC_SetFlashLatencyFromMSIRange+0xb8>)
 800658a:	6d9b      	ldr	r3, [r3, #88]	@ 0x58
 800658c:	f003 5380 	and.w	r3, r3, #268435456	@ 0x10000000
 8006590:	60fb      	str	r3, [r7, #12]
 8006592:	68fb      	ldr	r3, [r7, #12]
    vos = HAL_PWREx_GetVoltageRange();
 8006594:	f7ff f90e 	bl	80057b4 <HAL_PWREx_GetVoltageRange>
 8006598:	6178      	str	r0, [r7, #20]
    __HAL_RCC_PWR_CLK_DISABLE();
 800659a:	4b1e      	ldr	r3, [pc, #120]	@ (8006614 <RCC_SetFlashLatencyFromMSIRange+0xb8>)
 800659c:	6d9b      	ldr	r3, [r3, #88]	@ 0x58
 800659e:	4a1d      	ldr	r2, [pc, #116]	@ (8006614 <RCC_SetFlashLatencyFromMSIRange+0xb8>)
 80065a0:	f023 5380 	bic.w	r3, r3, #268435456	@ 0x10000000
 80065a4:	6593      	str	r3, [r2, #88]	@ 0x58
  }

  if(vos == PWR_REGULATOR_VOLTAGE_SCALE1)
 80065a6:	697b      	ldr	r3, [r7, #20]
 80065a8:	f5b3 7f00 	cmp.w	r3, #512	@ 0x200
 80065ac:	d10b      	bne.n	80065c6 <RCC_SetFlashLatencyFromMSIRange+0x6a>
  {
    if(msirange > RCC_MSIRANGE_8)
 80065ae:	687b      	ldr	r3, [r7, #4]
 80065b0:	2b80      	cmp	r3, #128	@ 0x80
 80065b2:	d919      	bls.n	80065e8 <RCC_SetFlashLatencyFromMSIRange+0x8c>
    {
      /* MSI > 16Mhz */
      if(msirange > RCC_MSIRANGE_10)
 80065b4:	687b      	ldr	r3, [r7, #4]
 80065b6:	2ba0      	cmp	r3, #160	@ 0xa0
 80065b8:	d902      	bls.n	80065c0 <RCC_SetFlashLatencyFromMSIRange+0x64>
      {
        /* MSI 48Mhz */
        latency = FLASH_LATENCY_2; /* 2WS */
 80065ba:	2302      	movs	r3, #2
 80065bc:	613b      	str	r3, [r7, #16]
 80065be:	e013      	b.n	80065e8 <RCC_SetFlashLatencyFromMSIRange+0x8c>
      }
      else
      {
        /* MSI 24Mhz or 32Mhz */
        latency = FLASH_LATENCY_1; /* 1WS */
 80065c0:	2301      	movs	r3, #1
 80065c2:	613b      	str	r3, [r7, #16]
 80065c4:	e010      	b.n	80065e8 <RCC_SetFlashLatencyFromMSIRange+0x8c>
        latency = FLASH_LATENCY_1; /* 1WS */
      }
      /* else MSI < 8Mhz default FLASH_LATENCY_0 0WS */
    }
#else
    if(msirange > RCC_MSIRANGE_8)
 80065c6:	687b      	ldr	r3, [r7, #4]
 80065c8:	2b80      	cmp	r3, #128	@ 0x80
 80065ca:	d902      	bls.n	80065d2 <RCC_SetFlashLatencyFromMSIRange+0x76>
    {
      /* MSI > 16Mhz */
      latency = FLASH_LATENCY_3; /* 3WS */
 80065cc:	2303      	movs	r3, #3
 80065ce:	613b      	str	r3, [r7, #16]
 80065d0:	e00a      	b.n	80065e8 <RCC_SetFlashLatencyFromMSIRange+0x8c>
    }
    else
    {
      if(msirange == RCC_MSIRANGE_8)
 80065d2:	687b      	ldr	r3, [r7, #4]
 80065d4:	2b80      	cmp	r3, #128	@ 0x80
 80065d6:	d102      	bne.n	80065de <RCC_SetFlashLatencyFromMSIRange+0x82>
      {
        /* MSI 16Mhz */
        latency = FLASH_LATENCY_2; /* 2WS */
 80065d8:	2302      	movs	r3, #2
 80065da:	613b      	str	r3, [r7, #16]
 80065dc:	e004      	b.n	80065e8 <RCC_SetFlashLatencyFromMSIRange+0x8c>
      }
      else if(msirange == RCC_MSIRANGE_7)
 80065de:	687b      	ldr	r3, [r7, #4]
 80065e0:	2b70      	cmp	r3, #112	@ 0x70
 80065e2:	d101      	bne.n	80065e8 <RCC_SetFlashLatencyFromMSIRange+0x8c>
      {
        /* MSI 8Mhz */
        latency = FLASH_LATENCY_1; /* 1WS */
 80065e4:	2301      	movs	r3, #1
 80065e6:	613b      	str	r3, [r7, #16]
      }
    }
#endif
  }

  __HAL_FLASH_SET_LATENCY(latency);
 80065e8:	4b0b      	ldr	r3, [pc, #44]	@ (8006618 <RCC_SetFlashLatencyFromMSIRange+0xbc>)
 80065ea:	681b      	ldr	r3, [r3, #0]
 80065ec:	f023 0207 	bic.w	r2, r3, #7
 80065f0:	4909      	ldr	r1, [pc, #36]	@ (8006618 <RCC_SetFlashLatencyFromMSIRange+0xbc>)
 80065f2:	693b      	ldr	r3, [r7, #16]
 80065f4:	4313      	orrs	r3, r2
 80065f6:	600b      	str	r3, [r1, #0]

  /* Check that the new number of wait states is taken into account to access the Flash
     memory by reading the FLASH_ACR register */
  if(__HAL_FLASH_GET_LATENCY() != latency)
 80065f8:	4b07      	ldr	r3, [pc, #28]	@ (8006618 <RCC_SetFlashLatencyFromMSIRange+0xbc>)
 80065fa:	681b      	ldr	r3, [r3, #0]
 80065fc:	f003 0307 	and.w	r3, r3, #7
 8006600:	693a      	ldr	r2, [r7, #16]
 8006602:	429a      	cmp	r2, r3
 8006604:	d001      	beq.n	800660a <RCC_SetFlashLatencyFromMSIRange+0xae>
  {
    return HAL_ERROR;
 8006606:	2301      	movs	r3, #1
 8006608:	e000      	b.n	800660c <RCC_SetFlashLatencyFromMSIRange+0xb0>
  }

  return HAL_OK;
 800660a:	2300      	movs	r3, #0
}
 800660c:	4618      	mov	r0, r3
 800660e:	3718      	adds	r7, #24
 8006610:	46bd      	mov	sp, r7
 8006612:	bd80      	pop	{r7, pc}
 8006614:	40021000 	.word	0x40021000
 8006618:	40022000 	.word	0x40022000

0800661c <HAL_RCCEx_PeriphCLKConfig>:
  *         the RTC clock source: in this case the access to Backup domain is enabled.
  *
  * @retval HAL status
  */
HAL_StatusTypeDef HAL_RCCEx_PeriphCLKConfig(RCC_PeriphCLKInitTypeDef  *PeriphClkInit)
{
 800661c:	b580      	push	{r7, lr}
 800661e:	b086      	sub	sp, #24
 8006620:	af00      	add	r7, sp, #0
 8006622:	6078      	str	r0, [r7, #4]
  uint32_t tmpregister, tickstart;     /* no init needed */
  HAL_StatusTypeDef ret = HAL_OK;      /* Intermediate status */
 8006624:	2300      	movs	r3, #0
 8006626:	74fb      	strb	r3, [r7, #19]
  HAL_StatusTypeDef status = HAL_OK;   /* Final status */
 8006628:	2300      	movs	r3, #0
 800662a:	74bb      	strb	r3, [r7, #18]
  assert_param(IS_RCC_PERIPHCLOCK(PeriphClkInit->PeriphClockSelection));

#if defined(SAI1)

  /*-------------------------- SAI1 clock source configuration ---------------------*/
  if((((PeriphClkInit->PeriphClockSelection) & RCC_PERIPHCLK_SAI1) == RCC_PERIPHCLK_SAI1))
 800662c:	687b      	ldr	r3, [r7, #4]
 800662e:	681b      	ldr	r3, [r3, #0]
 8006630:	f403 6300 	and.w	r3, r3, #2048	@ 0x800
 8006634:	2b00      	cmp	r3, #0
 8006636:	d031      	beq.n	800669c <HAL_RCCEx_PeriphCLKConfig+0x80>
  {
    /* Check the parameters */
    assert_param(IS_RCC_SAI1CLK(PeriphClkInit->Sai1ClockSelection));

    switch(PeriphClkInit->Sai1ClockSelection)
 8006638:	687b      	ldr	r3, [r7, #4]
 800663a:	6c5b      	ldr	r3, [r3, #68]	@ 0x44
 800663c:	f5b3 0f40 	cmp.w	r3, #12582912	@ 0xc00000
 8006640:	d01a      	beq.n	8006678 <HAL_RCCEx_PeriphCLKConfig+0x5c>
 8006642:	f5b3 0f40 	cmp.w	r3, #12582912	@ 0xc00000
 8006646:	d814      	bhi.n	8006672 <HAL_RCCEx_PeriphCLKConfig+0x56>
 8006648:	2b00      	cmp	r3, #0
 800664a:	d009      	beq.n	8006660 <HAL_RCCEx_PeriphCLKConfig+0x44>
 800664c:	f5b3 0f00 	cmp.w	r3, #8388608	@ 0x800000
 8006650:	d10f      	bne.n	8006672 <HAL_RCCEx_PeriphCLKConfig+0x56>
    case RCC_SAI1CLKSOURCE_PLL:      /* PLL is used as clock source for SAI1*/
      /* Enable SAI Clock output generated from System PLL . */
#if defined(RCC_PLLSAI2_SUPPORT)
      __HAL_RCC_PLLCLKOUT_ENABLE(RCC_PLL_SAI3CLK);
#else
      __HAL_RCC_PLLCLKOUT_ENABLE(RCC_PLL_SAI2CLK);
 8006652:	4b5d      	ldr	r3, [pc, #372]	@ (80067c8 <HAL_RCCEx_PeriphCLKConfig+0x1ac>)
 8006654:	68db      	ldr	r3, [r3, #12]
 8006656:	4a5c      	ldr	r2, [pc, #368]	@ (80067c8 <HAL_RCCEx_PeriphCLKConfig+0x1ac>)
 8006658:	f443 3380 	orr.w	r3, r3, #65536	@ 0x10000
 800665c:	60d3      	str	r3, [r2, #12]
#endif /* RCC_PLLSAI2_SUPPORT */
      /* SAI1 clock source config set later after clock selection check */
      break;
 800665e:	e00c      	b.n	800667a <HAL_RCCEx_PeriphCLKConfig+0x5e>

    case RCC_SAI1CLKSOURCE_PLLSAI1:  /* PLLSAI1 is used as clock source for SAI1*/
      /* PLLSAI1 input clock, parameters M, N & P configuration and clock output (PLLSAI1ClockOut) */
      ret = RCCEx_PLLSAI1_Config(&(PeriphClkInit->PLLSAI1), DIVIDER_P_UPDATE);
 8006660:	687b      	ldr	r3, [r7, #4]
 8006662:	3304      	adds	r3, #4
 8006664:	2100      	movs	r1, #0
 8006666:	4618      	mov	r0, r3
 8006668:	f000 fa22 	bl	8006ab0 <RCCEx_PLLSAI1_Config>
 800666c:	4603      	mov	r3, r0
 800666e:	74fb      	strb	r3, [r7, #19]
      /* SAI1 clock source config set later after clock selection check */
      break;
 8006670:	e003      	b.n	800667a <HAL_RCCEx_PeriphCLKConfig+0x5e>
#endif /* STM32L4P5xx || STM32L4Q5xx || STM32L4R5xx || STM32L4R7xx || STM32L4R9xx || STM32L4S5xx || STM32L4S7xx || STM32L4S9xx */
      /* SAI1 clock source config set later after clock selection check */
      break;

    default:
      ret = HAL_ERROR;
 8006672:	2301      	movs	r3, #1
 8006674:	74fb      	strb	r3, [r7, #19]
      break;
 8006676:	e000      	b.n	800667a <HAL_RCCEx_PeriphCLKConfig+0x5e>
      break;
 8006678:	bf00      	nop
    }

    if(ret == HAL_OK)
 800667a:	7cfb      	ldrb	r3, [r7, #19]
 800667c:	2b00      	cmp	r3, #0
 800667e:	d10b      	bne.n	8006698 <HAL_RCCEx_PeriphCLKConfig+0x7c>
    {
      /* Set the source of SAI1 clock*/
      __HAL_RCC_SAI1_CONFIG(PeriphClkInit->Sai1ClockSelection);
 8006680:	4b51      	ldr	r3, [pc, #324]	@ (80067c8 <HAL_RCCEx_PeriphCLKConfig+0x1ac>)
 8006682:	f8d3 3088 	ldr.w	r3, [r3, #136]	@ 0x88
 8006686:	f423 0240 	bic.w	r2, r3, #12582912	@ 0xc00000
 800668a:	687b      	ldr	r3, [r7, #4]
 800668c:	6c5b      	ldr	r3, [r3, #68]	@ 0x44
 800668e:	494e      	ldr	r1, [pc, #312]	@ (80067c8 <HAL_RCCEx_PeriphCLKConfig+0x1ac>)
 8006690:	4313      	orrs	r3, r2
 8006692:	f8c1 3088 	str.w	r3, [r1, #136]	@ 0x88
 8006696:	e001      	b.n	800669c <HAL_RCCEx_PeriphCLKConfig+0x80>
    }
    else
    {
      /* set overall return value */
      status = ret;
 8006698:	7cfb      	ldrb	r3, [r7, #19]
 800669a:	74bb      	strb	r3, [r7, #18]
    }
  }
#endif /* SAI2 */

  /*-------------------------- RTC clock source configuration ----------------------*/
  if((PeriphClkInit->PeriphClockSelection & RCC_PERIPHCLK_RTC) == RCC_PERIPHCLK_RTC)
 800669c:	687b      	ldr	r3, [r7, #4]
 800669e:	681b      	ldr	r3, [r3, #0]
 80066a0:	f403 3300 	and.w	r3, r3, #131072	@ 0x20000
 80066a4:	2b00      	cmp	r3, #0
 80066a6:	f000 809e 	beq.w	80067e6 <HAL_RCCEx_PeriphCLKConfig+0x1ca>
  {
    FlagStatus       pwrclkchanged = RESET;
 80066aa:	2300      	movs	r3, #0
 80066ac:	747b      	strb	r3, [r7, #17]

    /* Check for RTC Parameters used to output RTCCLK */
    assert_param(IS_RCC_RTCCLKSOURCE(PeriphClkInit->RTCClockSelection));

    /* Enable Power Clock */
    if(__HAL_RCC_PWR_IS_CLK_DISABLED() != 0U)
 80066ae:	4b46      	ldr	r3, [pc, #280]	@ (80067c8 <HAL_RCCEx_PeriphCLKConfig+0x1ac>)
 80066b0:	6d9b      	ldr	r3, [r3, #88]	@ 0x58
 80066b2:	f003 5380 	and.w	r3, r3, #268435456	@ 0x10000000
 80066b6:	2b00      	cmp	r3, #0
 80066b8:	d101      	bne.n	80066be <HAL_RCCEx_PeriphCLKConfig+0xa2>
 80066ba:	2301      	movs	r3, #1
 80066bc:	e000      	b.n	80066c0 <HAL_RCCEx_PeriphCLKConfig+0xa4>
 80066be:	2300      	movs	r3, #0
 80066c0:	2b00      	cmp	r3, #0
 80066c2:	d00d      	beq.n	80066e0 <HAL_RCCEx_PeriphCLKConfig+0xc4>
    {
      __HAL_RCC_PWR_CLK_ENABLE();
 80066c4:	4b40      	ldr	r3, [pc, #256]	@ (80067c8 <HAL_RCCEx_PeriphCLKConfig+0x1ac>)
 80066c6:	6d9b      	ldr	r3, [r3, #88]	@ 0x58
 80066c8:	4a3f      	ldr	r2, [pc, #252]	@ (80067c8 <HAL_RCCEx_PeriphCLKConfig+0x1ac>)
 80066ca:	f043 5380 	orr.w	r3, r3, #268435456	@ 0x10000000
 80066ce:	6593      	str	r3, [r2, #88]	@ 0x58
 80066d0:	4b3d      	ldr	r3, [pc, #244]	@ (80067c8 <HAL_RCCEx_PeriphCLKConfig+0x1ac>)
 80066d2:	6d9b      	ldr	r3, [r3, #88]	@ 0x58
 80066d4:	f003 5380 	and.w	r3, r3, #268435456	@ 0x10000000
 80066d8:	60bb      	str	r3, [r7, #8]
 80066da:	68bb      	ldr	r3, [r7, #8]
      pwrclkchanged = SET;
 80066dc:	2301      	movs	r3, #1
 80066de:	747b      	strb	r3, [r7, #17]
    }

    /* Enable write access to Backup domain */
    SET_BIT(PWR->CR1, PWR_CR1_DBP);
 80066e0:	4b3a      	ldr	r3, [pc, #232]	@ (80067cc <HAL_RCCEx_PeriphCLKConfig+0x1b0>)
 80066e2:	681b      	ldr	r3, [r3, #0]
 80066e4:	4a39      	ldr	r2, [pc, #228]	@ (80067cc <HAL_RCCEx_PeriphCLKConfig+0x1b0>)
 80066e6:	f443 7380 	orr.w	r3, r3, #256	@ 0x100
 80066ea:	6013      	str	r3, [r2, #0]

    /* Wait for Backup domain Write protection disable */
    tickstart = HAL_GetTick();
 80066ec:	f7fd fc6e 	bl	8003fcc <HAL_GetTick>
 80066f0:	60f8      	str	r0, [r7, #12]

    while(READ_BIT(PWR->CR1, PWR_CR1_DBP) == 0U)
 80066f2:	e009      	b.n	8006708 <HAL_RCCEx_PeriphCLKConfig+0xec>
    {
      if((HAL_GetTick() - tickstart) > RCC_DBP_TIMEOUT_VALUE)
 80066f4:	f7fd fc6a 	bl	8003fcc <HAL_GetTick>
 80066f8:	4602      	mov	r2, r0
 80066fa:	68fb      	ldr	r3, [r7, #12]
 80066fc:	1ad3      	subs	r3, r2, r3
 80066fe:	2b02      	cmp	r3, #2
 8006700:	d902      	bls.n	8006708 <HAL_RCCEx_PeriphCLKConfig+0xec>
      {
        ret = HAL_TIMEOUT;
 8006702:	2303      	movs	r3, #3
 8006704:	74fb      	strb	r3, [r7, #19]
        break;
 8006706:	e005      	b.n	8006714 <HAL_RCCEx_PeriphCLKConfig+0xf8>
    while(READ_BIT(PWR->CR1, PWR_CR1_DBP) == 0U)
 8006708:	4b30      	ldr	r3, [pc, #192]	@ (80067cc <HAL_RCCEx_PeriphCLKConfig+0x1b0>)
 800670a:	681b      	ldr	r3, [r3, #0]
 800670c:	f403 7380 	and.w	r3, r3, #256	@ 0x100
 8006710:	2b00      	cmp	r3, #0
 8006712:	d0ef      	beq.n	80066f4 <HAL_RCCEx_PeriphCLKConfig+0xd8>
      }
    }

    if(ret == HAL_OK)
 8006714:	7cfb      	ldrb	r3, [r7, #19]
 8006716:	2b00      	cmp	r3, #0
 8006718:	d15a      	bne.n	80067d0 <HAL_RCCEx_PeriphCLKConfig+0x1b4>
    {
      /* Reset the Backup domain only if the RTC Clock source selection is modified from default */
      tmpregister = READ_BIT(RCC->BDCR, RCC_BDCR_RTCSEL);
 800671a:	4b2b      	ldr	r3, [pc, #172]	@ (80067c8 <HAL_RCCEx_PeriphCLKConfig+0x1ac>)
 800671c:	f8d3 3090 	ldr.w	r3, [r3, #144]	@ 0x90
 8006720:	f403 7340 	and.w	r3, r3, #768	@ 0x300
 8006724:	617b      	str	r3, [r7, #20]

      if((tmpregister != RCC_RTCCLKSOURCE_NONE) && (tmpregister != PeriphClkInit->RTCClockSelection))
 8006726:	697b      	ldr	r3, [r7, #20]
 8006728:	2b00      	cmp	r3, #0
 800672a:	d01e      	beq.n	800676a <HAL_RCCEx_PeriphCLKConfig+0x14e>
 800672c:	687b      	ldr	r3, [r7, #4]
 800672e:	6ddb      	ldr	r3, [r3, #92]	@ 0x5c
 8006730:	697a      	ldr	r2, [r7, #20]
 8006732:	429a      	cmp	r2, r3
 8006734:	d019      	beq.n	800676a <HAL_RCCEx_PeriphCLKConfig+0x14e>
      {
        /* Store the content of BDCR register before the reset of Backup Domain */
        tmpregister = READ_BIT(RCC->BDCR, ~(RCC_BDCR_RTCSEL));
 8006736:	4b24      	ldr	r3, [pc, #144]	@ (80067c8 <HAL_RCCEx_PeriphCLKConfig+0x1ac>)
 8006738:	f8d3 3090 	ldr.w	r3, [r3, #144]	@ 0x90
 800673c:	f423 7340 	bic.w	r3, r3, #768	@ 0x300
 8006740:	617b      	str	r3, [r7, #20]
        /* RTC Clock selection can be changed only if the Backup Domain is reset */
        __HAL_RCC_BACKUPRESET_FORCE();
 8006742:	4b21      	ldr	r3, [pc, #132]	@ (80067c8 <HAL_RCCEx_PeriphCLKConfig+0x1ac>)
 8006744:	f8d3 3090 	ldr.w	r3, [r3, #144]	@ 0x90
 8006748:	4a1f      	ldr	r2, [pc, #124]	@ (80067c8 <HAL_RCCEx_PeriphCLKConfig+0x1ac>)
 800674a:	f443 3380 	orr.w	r3, r3, #65536	@ 0x10000
 800674e:	f8c2 3090 	str.w	r3, [r2, #144]	@ 0x90
        __HAL_RCC_BACKUPRESET_RELEASE();
 8006752:	4b1d      	ldr	r3, [pc, #116]	@ (80067c8 <HAL_RCCEx_PeriphCLKConfig+0x1ac>)
 8006754:	f8d3 3090 	ldr.w	r3, [r3, #144]	@ 0x90
 8006758:	4a1b      	ldr	r2, [pc, #108]	@ (80067c8 <HAL_RCCEx_PeriphCLKConfig+0x1ac>)
 800675a:	f423 3380 	bic.w	r3, r3, #65536	@ 0x10000
 800675e:	f8c2 3090 	str.w	r3, [r2, #144]	@ 0x90
        /* Restore the Content of BDCR register */
        RCC->BDCR = tmpregister;
 8006762:	4a19      	ldr	r2, [pc, #100]	@ (80067c8 <HAL_RCCEx_PeriphCLKConfig+0x1ac>)
 8006764:	697b      	ldr	r3, [r7, #20]
 8006766:	f8c2 3090 	str.w	r3, [r2, #144]	@ 0x90
      }

      /* Wait for LSE reactivation if LSE was enable prior to Backup Domain reset */
      if (HAL_IS_BIT_SET(tmpregister, RCC_BDCR_LSEON))
 800676a:	697b      	ldr	r3, [r7, #20]
 800676c:	f003 0301 	and.w	r3, r3, #1
 8006770:	2b00      	cmp	r3, #0
 8006772:	d016      	beq.n	80067a2 <HAL_RCCEx_PeriphCLKConfig+0x186>
      {
        /* Get Start Tick*/
        tickstart = HAL_GetTick();
 8006774:	f7fd fc2a 	bl	8003fcc <HAL_GetTick>
 8006778:	60f8      	str	r0, [r7, #12]

        /* Wait till LSE is ready */
        while(READ_BIT(RCC->BDCR, RCC_BDCR_LSERDY) == 0U)
 800677a:	e00b      	b.n	8006794 <HAL_RCCEx_PeriphCLKConfig+0x178>
        {
          if((HAL_GetTick() - tickstart) > RCC_LSE_TIMEOUT_VALUE)
 800677c:	f7fd fc26 	bl	8003fcc <HAL_GetTick>
 8006780:	4602      	mov	r2, r0
 8006782:	68fb      	ldr	r3, [r7, #12]
 8006784:	1ad3      	subs	r3, r2, r3
 8006786:	f241 3288 	movw	r2, #5000	@ 0x1388
 800678a:	4293      	cmp	r3, r2
 800678c:	d902      	bls.n	8006794 <HAL_RCCEx_PeriphCLKConfig+0x178>
          {
            ret = HAL_TIMEOUT;
 800678e:	2303      	movs	r3, #3
 8006790:	74fb      	strb	r3, [r7, #19]
            break;
 8006792:	e006      	b.n	80067a2 <HAL_RCCEx_PeriphCLKConfig+0x186>
        while(READ_BIT(RCC->BDCR, RCC_BDCR_LSERDY) == 0U)
 8006794:	4b0c      	ldr	r3, [pc, #48]	@ (80067c8 <HAL_RCCEx_PeriphCLKConfig+0x1ac>)
 8006796:	f8d3 3090 	ldr.w	r3, [r3, #144]	@ 0x90
 800679a:	f003 0302 	and.w	r3, r3, #2
 800679e:	2b00      	cmp	r3, #0
 80067a0:	d0ec      	beq.n	800677c <HAL_RCCEx_PeriphCLKConfig+0x160>
          }
        }
      }

      if(ret == HAL_OK)
 80067a2:	7cfb      	ldrb	r3, [r7, #19]
 80067a4:	2b00      	cmp	r3, #0
 80067a6:	d10b      	bne.n	80067c0 <HAL_RCCEx_PeriphCLKConfig+0x1a4>
      {
        /* Apply new RTC clock source selection */
        __HAL_RCC_RTC_CONFIG(PeriphClkInit->RTCClockSelection);
 80067a8:	4b07      	ldr	r3, [pc, #28]	@ (80067c8 <HAL_RCCEx_PeriphCLKConfig+0x1ac>)
 80067aa:	f8d3 3090 	ldr.w	r3, [r3, #144]	@ 0x90
 80067ae:	f423 7240 	bic.w	r2, r3, #768	@ 0x300
 80067b2:	687b      	ldr	r3, [r7, #4]
 80067b4:	6ddb      	ldr	r3, [r3, #92]	@ 0x5c
 80067b6:	4904      	ldr	r1, [pc, #16]	@ (80067c8 <HAL_RCCEx_PeriphCLKConfig+0x1ac>)
 80067b8:	4313      	orrs	r3, r2
 80067ba:	f8c1 3090 	str.w	r3, [r1, #144]	@ 0x90
 80067be:	e009      	b.n	80067d4 <HAL_RCCEx_PeriphCLKConfig+0x1b8>
      }
      else
      {
        /* set overall return value */
        status = ret;
 80067c0:	7cfb      	ldrb	r3, [r7, #19]
 80067c2:	74bb      	strb	r3, [r7, #18]
 80067c4:	e006      	b.n	80067d4 <HAL_RCCEx_PeriphCLKConfig+0x1b8>
 80067c6:	bf00      	nop
 80067c8:	40021000 	.word	0x40021000
 80067cc:	40007000 	.word	0x40007000
      }
    }
    else
    {
      /* set overall return value */
      status = ret;
 80067d0:	7cfb      	ldrb	r3, [r7, #19]
 80067d2:	74bb      	strb	r3, [r7, #18]
    }

    /* Restore clock configuration if changed */
    if(pwrclkchanged == SET)
 80067d4:	7c7b      	ldrb	r3, [r7, #17]
 80067d6:	2b01      	cmp	r3, #1
 80067d8:	d105      	bne.n	80067e6 <HAL_RCCEx_PeriphCLKConfig+0x1ca>
    {
      __HAL_RCC_PWR_CLK_DISABLE();
 80067da:	4b8d      	ldr	r3, [pc, #564]	@ (8006a10 <HAL_RCCEx_PeriphCLKConfig+0x3f4>)
 80067dc:	6d9b      	ldr	r3, [r3, #88]	@ 0x58
 80067de:	4a8c      	ldr	r2, [pc, #560]	@ (8006a10 <HAL_RCCEx_PeriphCLKConfig+0x3f4>)
 80067e0:	f023 5380 	bic.w	r3, r3, #268435456	@ 0x10000000
 80067e4:	6593      	str	r3, [r2, #88]	@ 0x58
    }
  }

  /*-------------------------- USART1 clock source configuration -------------------*/
  if(((PeriphClkInit->PeriphClockSelection) & RCC_PERIPHCLK_USART1) == RCC_PERIPHCLK_USART1)
 80067e6:	687b      	ldr	r3, [r7, #4]
 80067e8:	681b      	ldr	r3, [r3, #0]
 80067ea:	f003 0301 	and.w	r3, r3, #1
 80067ee:	2b00      	cmp	r3, #0
 80067f0:	d00a      	beq.n	8006808 <HAL_RCCEx_PeriphCLKConfig+0x1ec>
  {
    /* Check the parameters */
    assert_param(IS_RCC_USART1CLKSOURCE(PeriphClkInit->Usart1ClockSelection));

    /* Configure the USART1 clock source */
    __HAL_RCC_USART1_CONFIG(PeriphClkInit->Usart1ClockSelection);
 80067f2:	4b87      	ldr	r3, [pc, #540]	@ (8006a10 <HAL_RCCEx_PeriphCLKConfig+0x3f4>)
 80067f4:	f8d3 3088 	ldr.w	r3, [r3, #136]	@ 0x88
 80067f8:	f023 0203 	bic.w	r2, r3, #3
 80067fc:	687b      	ldr	r3, [r7, #4]
 80067fe:	6a1b      	ldr	r3, [r3, #32]
 8006800:	4983      	ldr	r1, [pc, #524]	@ (8006a10 <HAL_RCCEx_PeriphCLKConfig+0x3f4>)
 8006802:	4313      	orrs	r3, r2
 8006804:	f8c1 3088 	str.w	r3, [r1, #136]	@ 0x88
  }

  /*-------------------------- USART2 clock source configuration -------------------*/
  if(((PeriphClkInit->PeriphClockSelection) & RCC_PERIPHCLK_USART2) == RCC_PERIPHCLK_USART2)
 8006808:	687b      	ldr	r3, [r7, #4]
 800680a:	681b      	ldr	r3, [r3, #0]
 800680c:	f003 0302 	and.w	r3, r3, #2
 8006810:	2b00      	cmp	r3, #0
 8006812:	d00a      	beq.n	800682a <HAL_RCCEx_PeriphCLKConfig+0x20e>
  {
    /* Check the parameters */
    assert_param(IS_RCC_USART2CLKSOURCE(PeriphClkInit->Usart2ClockSelection));

    /* Configure the USART2 clock source */
    __HAL_RCC_USART2_CONFIG(PeriphClkInit->Usart2ClockSelection);
 8006814:	4b7e      	ldr	r3, [pc, #504]	@ (8006a10 <HAL_RCCEx_PeriphCLKConfig+0x3f4>)
 8006816:	f8d3 3088 	ldr.w	r3, [r3, #136]	@ 0x88
 800681a:	f023 020c 	bic.w	r2, r3, #12
 800681e:	687b      	ldr	r3, [r7, #4]
 8006820:	6a5b      	ldr	r3, [r3, #36]	@ 0x24
 8006822:	497b      	ldr	r1, [pc, #492]	@ (8006a10 <HAL_RCCEx_PeriphCLKConfig+0x3f4>)
 8006824:	4313      	orrs	r3, r2
 8006826:	f8c1 3088 	str.w	r3, [r1, #136]	@ 0x88
  }

#if defined(USART3)

  /*-------------------------- USART3 clock source configuration -------------------*/
  if(((PeriphClkInit->PeriphClockSelection) & RCC_PERIPHCLK_USART3) == RCC_PERIPHCLK_USART3)
 800682a:	687b      	ldr	r3, [r7, #4]
 800682c:	681b      	ldr	r3, [r3, #0]
 800682e:	f003 0304 	and.w	r3, r3, #4
 8006832:	2b00      	cmp	r3, #0
 8006834:	d00a      	beq.n	800684c <HAL_RCCEx_PeriphCLKConfig+0x230>
  {
    /* Check the parameters */
    assert_param(IS_RCC_USART3CLKSOURCE(PeriphClkInit->Usart3ClockSelection));

    /* Configure the USART3 clock source */
    __HAL_RCC_USART3_CONFIG(PeriphClkInit->Usart3ClockSelection);
 8006836:	4b76      	ldr	r3, [pc, #472]	@ (8006a10 <HAL_RCCEx_PeriphCLKConfig+0x3f4>)
 8006838:	f8d3 3088 	ldr.w	r3, [r3, #136]	@ 0x88
 800683c:	f023 0230 	bic.w	r2, r3, #48	@ 0x30
 8006840:	687b      	ldr	r3, [r7, #4]
 8006842:	6a9b      	ldr	r3, [r3, #40]	@ 0x28
 8006844:	4972      	ldr	r1, [pc, #456]	@ (8006a10 <HAL_RCCEx_PeriphCLKConfig+0x3f4>)
 8006846:	4313      	orrs	r3, r2
 8006848:	f8c1 3088 	str.w	r3, [r1, #136]	@ 0x88
  }

#endif /* UART5 */

  /*-------------------------- LPUART1 clock source configuration ------------------*/
  if(((PeriphClkInit->PeriphClockSelection) & RCC_PERIPHCLK_LPUART1) == RCC_PERIPHCLK_LPUART1)
 800684c:	687b      	ldr	r3, [r7, #4]
 800684e:	681b      	ldr	r3, [r3, #0]
 8006850:	f003 0320 	and.w	r3, r3, #32
 8006854:	2b00      	cmp	r3, #0
 8006856:	d00a      	beq.n	800686e <HAL_RCCEx_PeriphCLKConfig+0x252>
  {
    /* Check the parameters */
    assert_param(IS_RCC_LPUART1CLKSOURCE(PeriphClkInit->Lpuart1ClockSelection));

    /* Configure the LPUART1 clock source */
    __HAL_RCC_LPUART1_CONFIG(PeriphClkInit->Lpuart1ClockSelection);
 8006858:	4b6d      	ldr	r3, [pc, #436]	@ (8006a10 <HAL_RCCEx_PeriphCLKConfig+0x3f4>)
 800685a:	f8d3 3088 	ldr.w	r3, [r3, #136]	@ 0x88
 800685e:	f423 6240 	bic.w	r2, r3, #3072	@ 0xc00
 8006862:	687b      	ldr	r3, [r7, #4]
 8006864:	6adb      	ldr	r3, [r3, #44]	@ 0x2c
 8006866:	496a      	ldr	r1, [pc, #424]	@ (8006a10 <HAL_RCCEx_PeriphCLKConfig+0x3f4>)
 8006868:	4313      	orrs	r3, r2
 800686a:	f8c1 3088 	str.w	r3, [r1, #136]	@ 0x88
  }

  /*-------------------------- LPTIM1 clock source configuration -------------------*/
  if(((PeriphClkInit->PeriphClockSelection) & RCC_PERIPHCLK_LPTIM1) == (RCC_PERIPHCLK_LPTIM1))
 800686e:	687b      	ldr	r3, [r7, #4]
 8006870:	681b      	ldr	r3, [r3, #0]
 8006872:	f403 7300 	and.w	r3, r3, #512	@ 0x200
 8006876:	2b00      	cmp	r3, #0
 8006878:	d00a      	beq.n	8006890 <HAL_RCCEx_PeriphCLKConfig+0x274>
  {
    assert_param(IS_RCC_LPTIM1CLK(PeriphClkInit->Lptim1ClockSelection));
    __HAL_RCC_LPTIM1_CONFIG(PeriphClkInit->Lptim1ClockSelection);
 800687a:	4b65      	ldr	r3, [pc, #404]	@ (8006a10 <HAL_RCCEx_PeriphCLKConfig+0x3f4>)
 800687c:	f8d3 3088 	ldr.w	r3, [r3, #136]	@ 0x88
 8006880:	f423 2240 	bic.w	r2, r3, #786432	@ 0xc0000
 8006884:	687b      	ldr	r3, [r7, #4]
 8006886:	6bdb      	ldr	r3, [r3, #60]	@ 0x3c
 8006888:	4961      	ldr	r1, [pc, #388]	@ (8006a10 <HAL_RCCEx_PeriphCLKConfig+0x3f4>)
 800688a:	4313      	orrs	r3, r2
 800688c:	f8c1 3088 	str.w	r3, [r1, #136]	@ 0x88
  }

  /*-------------------------- LPTIM2 clock source configuration -------------------*/
  if(((PeriphClkInit->PeriphClockSelection) & RCC_PERIPHCLK_LPTIM2) == (RCC_PERIPHCLK_LPTIM2))
 8006890:	687b      	ldr	r3, [r7, #4]
 8006892:	681b      	ldr	r3, [r3, #0]
 8006894:	f403 6380 	and.w	r3, r3, #1024	@ 0x400
 8006898:	2b00      	cmp	r3, #0
 800689a:	d00a      	beq.n	80068b2 <HAL_RCCEx_PeriphCLKConfig+0x296>
  {
    assert_param(IS_RCC_LPTIM2CLK(PeriphClkInit->Lptim2ClockSelection));
    __HAL_RCC_LPTIM2_CONFIG(PeriphClkInit->Lptim2ClockSelection);
 800689c:	4b5c      	ldr	r3, [pc, #368]	@ (8006a10 <HAL_RCCEx_PeriphCLKConfig+0x3f4>)
 800689e:	f8d3 3088 	ldr.w	r3, [r3, #136]	@ 0x88
 80068a2:	f423 1240 	bic.w	r2, r3, #3145728	@ 0x300000
 80068a6:	687b      	ldr	r3, [r7, #4]
 80068a8:	6c1b      	ldr	r3, [r3, #64]	@ 0x40
 80068aa:	4959      	ldr	r1, [pc, #356]	@ (8006a10 <HAL_RCCEx_PeriphCLKConfig+0x3f4>)
 80068ac:	4313      	orrs	r3, r2
 80068ae:	f8c1 3088 	str.w	r3, [r1, #136]	@ 0x88
  }

  /*-------------------------- I2C1 clock source configuration ---------------------*/
  if(((PeriphClkInit->PeriphClockSelection) & RCC_PERIPHCLK_I2C1) == RCC_PERIPHCLK_I2C1)
 80068b2:	687b      	ldr	r3, [r7, #4]
 80068b4:	681b      	ldr	r3, [r3, #0]
 80068b6:	f003 0340 	and.w	r3, r3, #64	@ 0x40
 80068ba:	2b00      	cmp	r3, #0
 80068bc:	d00a      	beq.n	80068d4 <HAL_RCCEx_PeriphCLKConfig+0x2b8>
  {
    /* Check the parameters */
    assert_param(IS_RCC_I2C1CLKSOURCE(PeriphClkInit->I2c1ClockSelection));

    /* Configure the I2C1 clock source */
    __HAL_RCC_I2C1_CONFIG(PeriphClkInit->I2c1ClockSelection);
 80068be:	4b54      	ldr	r3, [pc, #336]	@ (8006a10 <HAL_RCCEx_PeriphCLKConfig+0x3f4>)
 80068c0:	f8d3 3088 	ldr.w	r3, [r3, #136]	@ 0x88
 80068c4:	f423 5240 	bic.w	r2, r3, #12288	@ 0x3000
 80068c8:	687b      	ldr	r3, [r7, #4]
 80068ca:	6b1b      	ldr	r3, [r3, #48]	@ 0x30
 80068cc:	4950      	ldr	r1, [pc, #320]	@ (8006a10 <HAL_RCCEx_PeriphCLKConfig+0x3f4>)
 80068ce:	4313      	orrs	r3, r2
 80068d0:	f8c1 3088 	str.w	r3, [r1, #136]	@ 0x88
  }

#if defined(I2C2)

  /*-------------------------- I2C2 clock source configuration ---------------------*/
  if(((PeriphClkInit->PeriphClockSelection) & RCC_PERIPHCLK_I2C2) == RCC_PERIPHCLK_I2C2)
 80068d4:	687b      	ldr	r3, [r7, #4]
 80068d6:	681b      	ldr	r3, [r3, #0]
 80068d8:	f003 0380 	and.w	r3, r3, #128	@ 0x80
 80068dc:	2b00      	cmp	r3, #0
 80068de:	d00a      	beq.n	80068f6 <HAL_RCCEx_PeriphCLKConfig+0x2da>
  {
    /* Check the parameters */
    assert_param(IS_RCC_I2C2CLKSOURCE(PeriphClkInit->I2c2ClockSelection));

    /* Configure the I2C2 clock source */
    __HAL_RCC_I2C2_CONFIG(PeriphClkInit->I2c2ClockSelection);
 80068e0:	4b4b      	ldr	r3, [pc, #300]	@ (8006a10 <HAL_RCCEx_PeriphCLKConfig+0x3f4>)
 80068e2:	f8d3 3088 	ldr.w	r3, [r3, #136]	@ 0x88
 80068e6:	f423 4240 	bic.w	r2, r3, #49152	@ 0xc000
 80068ea:	687b      	ldr	r3, [r7, #4]
 80068ec:	6b5b      	ldr	r3, [r3, #52]	@ 0x34
 80068ee:	4948      	ldr	r1, [pc, #288]	@ (8006a10 <HAL_RCCEx_PeriphCLKConfig+0x3f4>)
 80068f0:	4313      	orrs	r3, r2
 80068f2:	f8c1 3088 	str.w	r3, [r1, #136]	@ 0x88
  }

#endif /* I2C2 */

  /*-------------------------- I2C3 clock source configuration ---------------------*/
  if(((PeriphClkInit->PeriphClockSelection) & RCC_PERIPHCLK_I2C3) == RCC_PERIPHCLK_I2C3)
 80068f6:	687b      	ldr	r3, [r7, #4]
 80068f8:	681b      	ldr	r3, [r3, #0]
 80068fa:	f403 7380 	and.w	r3, r3, #256	@ 0x100
 80068fe:	2b00      	cmp	r3, #0
 8006900:	d00a      	beq.n	8006918 <HAL_RCCEx_PeriphCLKConfig+0x2fc>
  {
    /* Check the parameters */
    assert_param(IS_RCC_I2C3CLKSOURCE(PeriphClkInit->I2c3ClockSelection));

    /* Configure the I2C3 clock source */
    __HAL_RCC_I2C3_CONFIG(PeriphClkInit->I2c3ClockSelection);
 8006902:	4b43      	ldr	r3, [pc, #268]	@ (8006a10 <HAL_RCCEx_PeriphCLKConfig+0x3f4>)
 8006904:	f8d3 3088 	ldr.w	r3, [r3, #136]	@ 0x88
 8006908:	f423 3240 	bic.w	r2, r3, #196608	@ 0x30000
 800690c:	687b      	ldr	r3, [r7, #4]
 800690e:	6b9b      	ldr	r3, [r3, #56]	@ 0x38
 8006910:	493f      	ldr	r1, [pc, #252]	@ (8006a10 <HAL_RCCEx_PeriphCLKConfig+0x3f4>)
 8006912:	4313      	orrs	r3, r2
 8006914:	f8c1 3088 	str.w	r3, [r1, #136]	@ 0x88
#endif /* I2C4 */

#if defined(USB_OTG_FS) || defined(USB)

  /*-------------------------- USB clock source configuration ----------------------*/
  if(((PeriphClkInit->PeriphClockSelection) & RCC_PERIPHCLK_USB) == (RCC_PERIPHCLK_USB))
 8006918:	687b      	ldr	r3, [r7, #4]
 800691a:	681b      	ldr	r3, [r3, #0]
 800691c:	f403 5300 	and.w	r3, r3, #8192	@ 0x2000
 8006920:	2b00      	cmp	r3, #0
 8006922:	d028      	beq.n	8006976 <HAL_RCCEx_PeriphCLKConfig+0x35a>
  {
    assert_param(IS_RCC_USBCLKSOURCE(PeriphClkInit->UsbClockSelection));
    __HAL_RCC_USB_CONFIG(PeriphClkInit->UsbClockSelection);
 8006924:	4b3a      	ldr	r3, [pc, #232]	@ (8006a10 <HAL_RCCEx_PeriphCLKConfig+0x3f4>)
 8006926:	f8d3 3088 	ldr.w	r3, [r3, #136]	@ 0x88
 800692a:	f023 6240 	bic.w	r2, r3, #201326592	@ 0xc000000
 800692e:	687b      	ldr	r3, [r7, #4]
 8006930:	6c9b      	ldr	r3, [r3, #72]	@ 0x48
 8006932:	4937      	ldr	r1, [pc, #220]	@ (8006a10 <HAL_RCCEx_PeriphCLKConfig+0x3f4>)
 8006934:	4313      	orrs	r3, r2
 8006936:	f8c1 3088 	str.w	r3, [r1, #136]	@ 0x88

    if(PeriphClkInit->UsbClockSelection == RCC_USBCLKSOURCE_PLL)
 800693a:	687b      	ldr	r3, [r7, #4]
 800693c:	6c9b      	ldr	r3, [r3, #72]	@ 0x48
 800693e:	f1b3 6f00 	cmp.w	r3, #134217728	@ 0x8000000
 8006942:	d106      	bne.n	8006952 <HAL_RCCEx_PeriphCLKConfig+0x336>
    {
      /* Enable PLL48M1CLK output clock */
      __HAL_RCC_PLLCLKOUT_ENABLE(RCC_PLL_48M1CLK);
 8006944:	4b32      	ldr	r3, [pc, #200]	@ (8006a10 <HAL_RCCEx_PeriphCLKConfig+0x3f4>)
 8006946:	68db      	ldr	r3, [r3, #12]
 8006948:	4a31      	ldr	r2, [pc, #196]	@ (8006a10 <HAL_RCCEx_PeriphCLKConfig+0x3f4>)
 800694a:	f443 1380 	orr.w	r3, r3, #1048576	@ 0x100000
 800694e:	60d3      	str	r3, [r2, #12]
 8006950:	e011      	b.n	8006976 <HAL_RCCEx_PeriphCLKConfig+0x35a>
    }
    else
    {
#if defined(RCC_PLLSAI1_SUPPORT)
      if(PeriphClkInit->UsbClockSelection == RCC_USBCLKSOURCE_PLLSAI1)
 8006952:	687b      	ldr	r3, [r7, #4]
 8006954:	6c9b      	ldr	r3, [r3, #72]	@ 0x48
 8006956:	f1b3 6f80 	cmp.w	r3, #67108864	@ 0x4000000
 800695a:	d10c      	bne.n	8006976 <HAL_RCCEx_PeriphCLKConfig+0x35a>
      {
        /* PLLSAI1 input clock, parameters M, N & Q configuration and clock output (PLLSAI1ClockOut) */
        ret = RCCEx_PLLSAI1_Config(&(PeriphClkInit->PLLSAI1), DIVIDER_Q_UPDATE);
 800695c:	687b      	ldr	r3, [r7, #4]
 800695e:	3304      	adds	r3, #4
 8006960:	2101      	movs	r1, #1
 8006962:	4618      	mov	r0, r3
 8006964:	f000 f8a4 	bl	8006ab0 <RCCEx_PLLSAI1_Config>
 8006968:	4603      	mov	r3, r0
 800696a:	74fb      	strb	r3, [r7, #19]

        if(ret != HAL_OK)
 800696c:	7cfb      	ldrb	r3, [r7, #19]
 800696e:	2b00      	cmp	r3, #0
 8006970:	d001      	beq.n	8006976 <HAL_RCCEx_PeriphCLKConfig+0x35a>
        {
          /* set overall return value */
          status = ret;
 8006972:	7cfb      	ldrb	r3, [r7, #19]
 8006974:	74bb      	strb	r3, [r7, #18]
#endif /* USB_OTG_FS || USB */

#if defined(SDMMC1)

  /*-------------------------- SDMMC1 clock source configuration -------------------*/
  if(((PeriphClkInit->PeriphClockSelection) & RCC_PERIPHCLK_SDMMC1) == (RCC_PERIPHCLK_SDMMC1))
 8006976:	687b      	ldr	r3, [r7, #4]
 8006978:	681b      	ldr	r3, [r3, #0]
 800697a:	f403 2300 	and.w	r3, r3, #524288	@ 0x80000
 800697e:	2b00      	cmp	r3, #0
 8006980:	d028      	beq.n	80069d4 <HAL_RCCEx_PeriphCLKConfig+0x3b8>
  {
    assert_param(IS_RCC_SDMMC1CLKSOURCE(PeriphClkInit->Sdmmc1ClockSelection));
    __HAL_RCC_SDMMC1_CONFIG(PeriphClkInit->Sdmmc1ClockSelection);
 8006982:	4b23      	ldr	r3, [pc, #140]	@ (8006a10 <HAL_RCCEx_PeriphCLKConfig+0x3f4>)
 8006984:	f8d3 3088 	ldr.w	r3, [r3, #136]	@ 0x88
 8006988:	f023 6240 	bic.w	r2, r3, #201326592	@ 0xc000000
 800698c:	687b      	ldr	r3, [r7, #4]
 800698e:	6cdb      	ldr	r3, [r3, #76]	@ 0x4c
 8006990:	491f      	ldr	r1, [pc, #124]	@ (8006a10 <HAL_RCCEx_PeriphCLKConfig+0x3f4>)
 8006992:	4313      	orrs	r3, r2
 8006994:	f8c1 3088 	str.w	r3, [r1, #136]	@ 0x88

    if(PeriphClkInit->Sdmmc1ClockSelection == RCC_SDMMC1CLKSOURCE_PLL)   /* PLL "Q" ? */
 8006998:	687b      	ldr	r3, [r7, #4]
 800699a:	6cdb      	ldr	r3, [r3, #76]	@ 0x4c
 800699c:	f1b3 6f00 	cmp.w	r3, #134217728	@ 0x8000000
 80069a0:	d106      	bne.n	80069b0 <HAL_RCCEx_PeriphCLKConfig+0x394>
    {
      /* Enable PLL48M1CLK output clock */
      __HAL_RCC_PLLCLKOUT_ENABLE(RCC_PLL_48M1CLK);
 80069a2:	4b1b      	ldr	r3, [pc, #108]	@ (8006a10 <HAL_RCCEx_PeriphCLKConfig+0x3f4>)
 80069a4:	68db      	ldr	r3, [r3, #12]
 80069a6:	4a1a      	ldr	r2, [pc, #104]	@ (8006a10 <HAL_RCCEx_PeriphCLKConfig+0x3f4>)
 80069a8:	f443 1380 	orr.w	r3, r3, #1048576	@ 0x100000
 80069ac:	60d3      	str	r3, [r2, #12]
 80069ae:	e011      	b.n	80069d4 <HAL_RCCEx_PeriphCLKConfig+0x3b8>
    {
      /* Enable PLLSAI3CLK output */
      __HAL_RCC_PLLCLKOUT_ENABLE(RCC_PLL_SAI3CLK);
    }
#endif
    else if(PeriphClkInit->Sdmmc1ClockSelection == RCC_SDMMC1CLKSOURCE_PLLSAI1)
 80069b0:	687b      	ldr	r3, [r7, #4]
 80069b2:	6cdb      	ldr	r3, [r3, #76]	@ 0x4c
 80069b4:	f1b3 6f80 	cmp.w	r3, #67108864	@ 0x4000000
 80069b8:	d10c      	bne.n	80069d4 <HAL_RCCEx_PeriphCLKConfig+0x3b8>
    {
      /* PLLSAI1 input clock, parameters M, N & Q configuration and clock output (PLLSAI1ClockOut) */
      ret = RCCEx_PLLSAI1_Config(&(PeriphClkInit->PLLSAI1), DIVIDER_Q_UPDATE);
 80069ba:	687b      	ldr	r3, [r7, #4]
 80069bc:	3304      	adds	r3, #4
 80069be:	2101      	movs	r1, #1
 80069c0:	4618      	mov	r0, r3
 80069c2:	f000 f875 	bl	8006ab0 <RCCEx_PLLSAI1_Config>
 80069c6:	4603      	mov	r3, r0
 80069c8:	74fb      	strb	r3, [r7, #19]

      if(ret != HAL_OK)
 80069ca:	7cfb      	ldrb	r3, [r7, #19]
 80069cc:	2b00      	cmp	r3, #0
 80069ce:	d001      	beq.n	80069d4 <HAL_RCCEx_PeriphCLKConfig+0x3b8>
      {
        /* set overall return value */
        status = ret;
 80069d0:	7cfb      	ldrb	r3, [r7, #19]
 80069d2:	74bb      	strb	r3, [r7, #18]
  }

#endif /* SDMMC1 */

  /*-------------------------- RNG clock source configuration ----------------------*/
  if(((PeriphClkInit->PeriphClockSelection) & RCC_PERIPHCLK_RNG) == (RCC_PERIPHCLK_RNG))
 80069d4:	687b      	ldr	r3, [r7, #4]
 80069d6:	681b      	ldr	r3, [r3, #0]
 80069d8:	f403 2380 	and.w	r3, r3, #262144	@ 0x40000
 80069dc:	2b00      	cmp	r3, #0
 80069de:	d02b      	beq.n	8006a38 <HAL_RCCEx_PeriphCLKConfig+0x41c>
  {
    assert_param(IS_RCC_RNGCLKSOURCE(PeriphClkInit->RngClockSelection));
    __HAL_RCC_RNG_CONFIG(PeriphClkInit->RngClockSelection);
 80069e0:	4b0b      	ldr	r3, [pc, #44]	@ (8006a10 <HAL_RCCEx_PeriphCLKConfig+0x3f4>)
 80069e2:	f8d3 3088 	ldr.w	r3, [r3, #136]	@ 0x88
 80069e6:	f023 6240 	bic.w	r2, r3, #201326592	@ 0xc000000
 80069ea:	687b      	ldr	r3, [r7, #4]
 80069ec:	6d1b      	ldr	r3, [r3, #80]	@ 0x50
 80069ee:	4908      	ldr	r1, [pc, #32]	@ (8006a10 <HAL_RCCEx_PeriphCLKConfig+0x3f4>)
 80069f0:	4313      	orrs	r3, r2
 80069f2:	f8c1 3088 	str.w	r3, [r1, #136]	@ 0x88

    if(PeriphClkInit->RngClockSelection == RCC_RNGCLKSOURCE_PLL)
 80069f6:	687b      	ldr	r3, [r7, #4]
 80069f8:	6d1b      	ldr	r3, [r3, #80]	@ 0x50
 80069fa:	f1b3 6f00 	cmp.w	r3, #134217728	@ 0x8000000
 80069fe:	d109      	bne.n	8006a14 <HAL_RCCEx_PeriphCLKConfig+0x3f8>
    {
      /* Enable PLL48M1CLK output clock */
      __HAL_RCC_PLLCLKOUT_ENABLE(RCC_PLL_48M1CLK);
 8006a00:	4b03      	ldr	r3, [pc, #12]	@ (8006a10 <HAL_RCCEx_PeriphCLKConfig+0x3f4>)
 8006a02:	68db      	ldr	r3, [r3, #12]
 8006a04:	4a02      	ldr	r2, [pc, #8]	@ (8006a10 <HAL_RCCEx_PeriphCLKConfig+0x3f4>)
 8006a06:	f443 1380 	orr.w	r3, r3, #1048576	@ 0x100000
 8006a0a:	60d3      	str	r3, [r2, #12]
 8006a0c:	e014      	b.n	8006a38 <HAL_RCCEx_PeriphCLKConfig+0x41c>
 8006a0e:	bf00      	nop
 8006a10:	40021000 	.word	0x40021000
    }
#if defined(RCC_PLLSAI1_SUPPORT)
    else if(PeriphClkInit->RngClockSelection == RCC_RNGCLKSOURCE_PLLSAI1)
 8006a14:	687b      	ldr	r3, [r7, #4]
 8006a16:	6d1b      	ldr	r3, [r3, #80]	@ 0x50
 8006a18:	f1b3 6f80 	cmp.w	r3, #67108864	@ 0x4000000
 8006a1c:	d10c      	bne.n	8006a38 <HAL_RCCEx_PeriphCLKConfig+0x41c>
    {
      /* PLLSAI1 input clock, parameters M, N & Q configuration and clock output (PLLSAI1ClockOut) */
      ret = RCCEx_PLLSAI1_Config(&(PeriphClkInit->PLLSAI1), DIVIDER_Q_UPDATE);
 8006a1e:	687b      	ldr	r3, [r7, #4]
 8006a20:	3304      	adds	r3, #4
 8006a22:	2101      	movs	r1, #1
 8006a24:	4618      	mov	r0, r3
 8006a26:	f000 f843 	bl	8006ab0 <RCCEx_PLLSAI1_Config>
 8006a2a:	4603      	mov	r3, r0
 8006a2c:	74fb      	strb	r3, [r7, #19]

      if(ret != HAL_OK)
 8006a2e:	7cfb      	ldrb	r3, [r7, #19]
 8006a30:	2b00      	cmp	r3, #0
 8006a32:	d001      	beq.n	8006a38 <HAL_RCCEx_PeriphCLKConfig+0x41c>
      {
        /* set overall return value */
        status = ret;
 8006a34:	7cfb      	ldrb	r3, [r7, #19]
 8006a36:	74bb      	strb	r3, [r7, #18]
    }
  }

  /*-------------------------- ADC clock source configuration ----------------------*/
#if !defined(STM32L412xx) && !defined(STM32L422xx)
  if(((PeriphClkInit->PeriphClockSelection) & RCC_PERIPHCLK_ADC) == RCC_PERIPHCLK_ADC)
 8006a38:	687b      	ldr	r3, [r7, #4]
 8006a3a:	681b      	ldr	r3, [r3, #0]
 8006a3c:	f403 4380 	and.w	r3, r3, #16384	@ 0x4000
 8006a40:	2b00      	cmp	r3, #0
 8006a42:	d01c      	beq.n	8006a7e <HAL_RCCEx_PeriphCLKConfig+0x462>
  {
    /* Check the parameters */
    assert_param(IS_RCC_ADCCLKSOURCE(PeriphClkInit->AdcClockSelection));

    /* Configure the ADC interface clock source */
    __HAL_RCC_ADC_CONFIG(PeriphClkInit->AdcClockSelection);
 8006a44:	4b19      	ldr	r3, [pc, #100]	@ (8006aac <HAL_RCCEx_PeriphCLKConfig+0x490>)
 8006a46:	f8d3 3088 	ldr.w	r3, [r3, #136]	@ 0x88
 8006a4a:	f023 5240 	bic.w	r2, r3, #805306368	@ 0x30000000
 8006a4e:	687b      	ldr	r3, [r7, #4]
 8006a50:	6d5b      	ldr	r3, [r3, #84]	@ 0x54
 8006a52:	4916      	ldr	r1, [pc, #88]	@ (8006aac <HAL_RCCEx_PeriphCLKConfig+0x490>)
 8006a54:	4313      	orrs	r3, r2
 8006a56:	f8c1 3088 	str.w	r3, [r1, #136]	@ 0x88

#if defined(RCC_PLLSAI1_SUPPORT)
    if(PeriphClkInit->AdcClockSelection == RCC_ADCCLKSOURCE_PLLSAI1)
 8006a5a:	687b      	ldr	r3, [r7, #4]
 8006a5c:	6d5b      	ldr	r3, [r3, #84]	@ 0x54
 8006a5e:	f1b3 5f80 	cmp.w	r3, #268435456	@ 0x10000000
 8006a62:	d10c      	bne.n	8006a7e <HAL_RCCEx_PeriphCLKConfig+0x462>
    {
      /* PLLSAI1 input clock, parameters M, N & R configuration and clock output (PLLSAI1ClockOut) */
      ret = RCCEx_PLLSAI1_Config(&(PeriphClkInit->PLLSAI1), DIVIDER_R_UPDATE);
 8006a64:	687b      	ldr	r3, [r7, #4]
 8006a66:	3304      	adds	r3, #4
 8006a68:	2102      	movs	r1, #2
 8006a6a:	4618      	mov	r0, r3
 8006a6c:	f000 f820 	bl	8006ab0 <RCCEx_PLLSAI1_Config>
 8006a70:	4603      	mov	r3, r0
 8006a72:	74fb      	strb	r3, [r7, #19]

      if(ret != HAL_OK)
 8006a74:	7cfb      	ldrb	r3, [r7, #19]
 8006a76:	2b00      	cmp	r3, #0
 8006a78:	d001      	beq.n	8006a7e <HAL_RCCEx_PeriphCLKConfig+0x462>
      {
        /* set overall return value */
        status = ret;
 8006a7a:	7cfb      	ldrb	r3, [r7, #19]
 8006a7c:	74bb      	strb	r3, [r7, #18]
#endif /* !STM32L412xx && !STM32L422xx */

#if defined(SWPMI1)

  /*-------------------------- SWPMI1 clock source configuration -------------------*/
  if(((PeriphClkInit->PeriphClockSelection) & RCC_PERIPHCLK_SWPMI1) == RCC_PERIPHCLK_SWPMI1)
 8006a7e:	687b      	ldr	r3, [r7, #4]
 8006a80:	681b      	ldr	r3, [r3, #0]
 8006a82:	f403 4300 	and.w	r3, r3, #32768	@ 0x8000
 8006a86:	2b00      	cmp	r3, #0
 8006a88:	d00a      	beq.n	8006aa0 <HAL_RCCEx_PeriphCLKConfig+0x484>
  {
    /* Check the parameters */
    assert_param(IS_RCC_SWPMI1CLKSOURCE(PeriphClkInit->Swpmi1ClockSelection));

    /* Configure the SWPMI1 clock source */
    __HAL_RCC_SWPMI1_CONFIG(PeriphClkInit->Swpmi1ClockSelection);
 8006a8a:	4b08      	ldr	r3, [pc, #32]	@ (8006aac <HAL_RCCEx_PeriphCLKConfig+0x490>)
 8006a8c:	f8d3 3088 	ldr.w	r3, [r3, #136]	@ 0x88
 8006a90:	f023 4280 	bic.w	r2, r3, #1073741824	@ 0x40000000
 8006a94:	687b      	ldr	r3, [r7, #4]
 8006a96:	6d9b      	ldr	r3, [r3, #88]	@ 0x58
 8006a98:	4904      	ldr	r1, [pc, #16]	@ (8006aac <HAL_RCCEx_PeriphCLKConfig+0x490>)
 8006a9a:	4313      	orrs	r3, r2
 8006a9c:	f8c1 3088 	str.w	r3, [r1, #136]	@ 0x88
    }
  }

#endif /* OCTOSPI1 || OCTOSPI2 */

  return status;
 8006aa0:	7cbb      	ldrb	r3, [r7, #18]
}
 8006aa2:	4618      	mov	r0, r3
 8006aa4:	3718      	adds	r7, #24
 8006aa6:	46bd      	mov	sp, r7
 8006aa8:	bd80      	pop	{r7, pc}
 8006aaa:	bf00      	nop
 8006aac:	40021000 	.word	0x40021000

08006ab0 <RCCEx_PLLSAI1_Config>:
  * @note   PLLSAI1 is temporary disable to apply new parameters
  *
  * @retval HAL status
  */
static HAL_StatusTypeDef RCCEx_PLLSAI1_Config(RCC_PLLSAI1InitTypeDef *PllSai1, uint32_t Divider)
{
 8006ab0:	b580      	push	{r7, lr}
 8006ab2:	b084      	sub	sp, #16
 8006ab4:	af00      	add	r7, sp, #0
 8006ab6:	6078      	str	r0, [r7, #4]
 8006ab8:	6039      	str	r1, [r7, #0]
  uint32_t tickstart;
  HAL_StatusTypeDef status = HAL_OK;
 8006aba:	2300      	movs	r3, #0
 8006abc:	73fb      	strb	r3, [r7, #15]
  assert_param(IS_RCC_PLLSAI1M_VALUE(PllSai1->PLLSAI1M));
  assert_param(IS_RCC_PLLSAI1N_VALUE(PllSai1->PLLSAI1N));
  assert_param(IS_RCC_PLLSAI1CLOCKOUT_VALUE(PllSai1->PLLSAI1ClockOut));

  /* Check that PLLSAI1 clock source and divider M can be applied */
  if(__HAL_RCC_GET_PLL_OSCSOURCE() != RCC_PLLSOURCE_NONE)
 8006abe:	4b74      	ldr	r3, [pc, #464]	@ (8006c90 <RCCEx_PLLSAI1_Config+0x1e0>)
 8006ac0:	68db      	ldr	r3, [r3, #12]
 8006ac2:	f003 0303 	and.w	r3, r3, #3
 8006ac6:	2b00      	cmp	r3, #0
 8006ac8:	d018      	beq.n	8006afc <RCCEx_PLLSAI1_Config+0x4c>
  {
    /* PLL clock source and divider M already set, check that no request for change  */
    if((__HAL_RCC_GET_PLL_OSCSOURCE() != PllSai1->PLLSAI1Source)
 8006aca:	4b71      	ldr	r3, [pc, #452]	@ (8006c90 <RCCEx_PLLSAI1_Config+0x1e0>)
 8006acc:	68db      	ldr	r3, [r3, #12]
 8006ace:	f003 0203 	and.w	r2, r3, #3
 8006ad2:	687b      	ldr	r3, [r7, #4]
 8006ad4:	681b      	ldr	r3, [r3, #0]
 8006ad6:	429a      	cmp	r2, r3
 8006ad8:	d10d      	bne.n	8006af6 <RCCEx_PLLSAI1_Config+0x46>
       ||
       (PllSai1->PLLSAI1Source == RCC_PLLSOURCE_NONE)
 8006ada:	687b      	ldr	r3, [r7, #4]
 8006adc:	681b      	ldr	r3, [r3, #0]
       ||
 8006ade:	2b00      	cmp	r3, #0
 8006ae0:	d009      	beq.n	8006af6 <RCCEx_PLLSAI1_Config+0x46>
#if !defined(RCC_PLLSAI1M_DIV_1_16_SUPPORT)
       ||
       (((READ_BIT(RCC->PLLCFGR, RCC_PLLCFGR_PLLM) >> RCC_PLLCFGR_PLLM_Pos) + 1U) != PllSai1->PLLSAI1M)
 8006ae2:	4b6b      	ldr	r3, [pc, #428]	@ (8006c90 <RCCEx_PLLSAI1_Config+0x1e0>)
 8006ae4:	68db      	ldr	r3, [r3, #12]
 8006ae6:	091b      	lsrs	r3, r3, #4
 8006ae8:	f003 0307 	and.w	r3, r3, #7
 8006aec:	1c5a      	adds	r2, r3, #1
 8006aee:	687b      	ldr	r3, [r7, #4]
 8006af0:	685b      	ldr	r3, [r3, #4]
       ||
 8006af2:	429a      	cmp	r2, r3
 8006af4:	d047      	beq.n	8006b86 <RCCEx_PLLSAI1_Config+0xd6>
#endif
      )
    {
      status = HAL_ERROR;
 8006af6:	2301      	movs	r3, #1
 8006af8:	73fb      	strb	r3, [r7, #15]
 8006afa:	e044      	b.n	8006b86 <RCCEx_PLLSAI1_Config+0xd6>
    }
  }
  else
  {
    /* Check PLLSAI1 clock source availability */
    switch(PllSai1->PLLSAI1Source)
 8006afc:	687b      	ldr	r3, [r7, #4]
 8006afe:	681b      	ldr	r3, [r3, #0]
 8006b00:	2b03      	cmp	r3, #3
 8006b02:	d018      	beq.n	8006b36 <RCCEx_PLLSAI1_Config+0x86>
 8006b04:	2b03      	cmp	r3, #3
 8006b06:	d825      	bhi.n	8006b54 <RCCEx_PLLSAI1_Config+0xa4>
 8006b08:	2b01      	cmp	r3, #1
 8006b0a:	d002      	beq.n	8006b12 <RCCEx_PLLSAI1_Config+0x62>
 8006b0c:	2b02      	cmp	r3, #2
 8006b0e:	d009      	beq.n	8006b24 <RCCEx_PLLSAI1_Config+0x74>
 8006b10:	e020      	b.n	8006b54 <RCCEx_PLLSAI1_Config+0xa4>
    {
    case RCC_PLLSOURCE_MSI:
      if(HAL_IS_BIT_CLR(RCC->CR, RCC_CR_MSIRDY))
 8006b12:	4b5f      	ldr	r3, [pc, #380]	@ (8006c90 <RCCEx_PLLSAI1_Config+0x1e0>)
 8006b14:	681b      	ldr	r3, [r3, #0]
 8006b16:	f003 0302 	and.w	r3, r3, #2
 8006b1a:	2b00      	cmp	r3, #0
 8006b1c:	d11d      	bne.n	8006b5a <RCCEx_PLLSAI1_Config+0xaa>
      {
        status = HAL_ERROR;
 8006b1e:	2301      	movs	r3, #1
 8006b20:	73fb      	strb	r3, [r7, #15]
      }
      break;
 8006b22:	e01a      	b.n	8006b5a <RCCEx_PLLSAI1_Config+0xaa>
    case RCC_PLLSOURCE_HSI:
      if(HAL_IS_BIT_CLR(RCC->CR, RCC_CR_HSIRDY))
 8006b24:	4b5a      	ldr	r3, [pc, #360]	@ (8006c90 <RCCEx_PLLSAI1_Config+0x1e0>)
 8006b26:	681b      	ldr	r3, [r3, #0]
 8006b28:	f403 6380 	and.w	r3, r3, #1024	@ 0x400
 8006b2c:	2b00      	cmp	r3, #0
 8006b2e:	d116      	bne.n	8006b5e <RCCEx_PLLSAI1_Config+0xae>
      {
        status = HAL_ERROR;
 8006b30:	2301      	movs	r3, #1
 8006b32:	73fb      	strb	r3, [r7, #15]
      }
      break;
 8006b34:	e013      	b.n	8006b5e <RCCEx_PLLSAI1_Config+0xae>
    case RCC_PLLSOURCE_HSE:
      if(HAL_IS_BIT_CLR(RCC->CR, RCC_CR_HSERDY))
 8006b36:	4b56      	ldr	r3, [pc, #344]	@ (8006c90 <RCCEx_PLLSAI1_Config+0x1e0>)
 8006b38:	681b      	ldr	r3, [r3, #0]
 8006b3a:	f403 3300 	and.w	r3, r3, #131072	@ 0x20000
 8006b3e:	2b00      	cmp	r3, #0
 8006b40:	d10f      	bne.n	8006b62 <RCCEx_PLLSAI1_Config+0xb2>
      {
        if(HAL_IS_BIT_CLR(RCC->CR, RCC_CR_HSEBYP))
 8006b42:	4b53      	ldr	r3, [pc, #332]	@ (8006c90 <RCCEx_PLLSAI1_Config+0x1e0>)
 8006b44:	681b      	ldr	r3, [r3, #0]
 8006b46:	f403 2380 	and.w	r3, r3, #262144	@ 0x40000
 8006b4a:	2b00      	cmp	r3, #0
 8006b4c:	d109      	bne.n	8006b62 <RCCEx_PLLSAI1_Config+0xb2>
        {
          status = HAL_ERROR;
 8006b4e:	2301      	movs	r3, #1
 8006b50:	73fb      	strb	r3, [r7, #15]
        }
      }
      break;
 8006b52:	e006      	b.n	8006b62 <RCCEx_PLLSAI1_Config+0xb2>
    default:
      status = HAL_ERROR;
 8006b54:	2301      	movs	r3, #1
 8006b56:	73fb      	strb	r3, [r7, #15]
      break;
 8006b58:	e004      	b.n	8006b64 <RCCEx_PLLSAI1_Config+0xb4>
      break;
 8006b5a:	bf00      	nop
 8006b5c:	e002      	b.n	8006b64 <RCCEx_PLLSAI1_Config+0xb4>
      break;
 8006b5e:	bf00      	nop
 8006b60:	e000      	b.n	8006b64 <RCCEx_PLLSAI1_Config+0xb4>
      break;
 8006b62:	bf00      	nop
    }

    if(status == HAL_OK)
 8006b64:	7bfb      	ldrb	r3, [r7, #15]
 8006b66:	2b00      	cmp	r3, #0
 8006b68:	d10d      	bne.n	8006b86 <RCCEx_PLLSAI1_Config+0xd6>
#if defined(RCC_PLLSAI1M_DIV_1_16_SUPPORT)
      /* Set PLLSAI1 clock source */
      MODIFY_REG(RCC->PLLCFGR, RCC_PLLCFGR_PLLSRC, PllSai1->PLLSAI1Source);
#else
      /* Set PLLSAI1 clock source and divider M */
      MODIFY_REG(RCC->PLLCFGR, RCC_PLLCFGR_PLLSRC | RCC_PLLCFGR_PLLM, PllSai1->PLLSAI1Source | (PllSai1->PLLSAI1M - 1U) << RCC_PLLCFGR_PLLM_Pos);
 8006b6a:	4b49      	ldr	r3, [pc, #292]	@ (8006c90 <RCCEx_PLLSAI1_Config+0x1e0>)
 8006b6c:	68db      	ldr	r3, [r3, #12]
 8006b6e:	f023 0273 	bic.w	r2, r3, #115	@ 0x73
 8006b72:	687b      	ldr	r3, [r7, #4]
 8006b74:	6819      	ldr	r1, [r3, #0]
 8006b76:	687b      	ldr	r3, [r7, #4]
 8006b78:	685b      	ldr	r3, [r3, #4]
 8006b7a:	3b01      	subs	r3, #1
 8006b7c:	011b      	lsls	r3, r3, #4
 8006b7e:	430b      	orrs	r3, r1
 8006b80:	4943      	ldr	r1, [pc, #268]	@ (8006c90 <RCCEx_PLLSAI1_Config+0x1e0>)
 8006b82:	4313      	orrs	r3, r2
 8006b84:	60cb      	str	r3, [r1, #12]
#endif
    }
  }

  if(status == HAL_OK)
 8006b86:	7bfb      	ldrb	r3, [r7, #15]
 8006b88:	2b00      	cmp	r3, #0
 8006b8a:	d17c      	bne.n	8006c86 <RCCEx_PLLSAI1_Config+0x1d6>
  {
    /* Disable the PLLSAI1 */
    __HAL_RCC_PLLSAI1_DISABLE();
 8006b8c:	4b40      	ldr	r3, [pc, #256]	@ (8006c90 <RCCEx_PLLSAI1_Config+0x1e0>)
 8006b8e:	681b      	ldr	r3, [r3, #0]
 8006b90:	4a3f      	ldr	r2, [pc, #252]	@ (8006c90 <RCCEx_PLLSAI1_Config+0x1e0>)
 8006b92:	f023 6380 	bic.w	r3, r3, #67108864	@ 0x4000000
 8006b96:	6013      	str	r3, [r2, #0]

    /* Get Start Tick*/
    tickstart = HAL_GetTick();
 8006b98:	f7fd fa18 	bl	8003fcc <HAL_GetTick>
 8006b9c:	60b8      	str	r0, [r7, #8]

    /* Wait till PLLSAI1 is ready to be updated */
    while(READ_BIT(RCC->CR, RCC_CR_PLLSAI1RDY) != 0U)
 8006b9e:	e009      	b.n	8006bb4 <RCCEx_PLLSAI1_Config+0x104>
    {
      if((HAL_GetTick() - tickstart) > PLLSAI1_TIMEOUT_VALUE)
 8006ba0:	f7fd fa14 	bl	8003fcc <HAL_GetTick>
 8006ba4:	4602      	mov	r2, r0
 8006ba6:	68bb      	ldr	r3, [r7, #8]
 8006ba8:	1ad3      	subs	r3, r2, r3
 8006baa:	2b02      	cmp	r3, #2
 8006bac:	d902      	bls.n	8006bb4 <RCCEx_PLLSAI1_Config+0x104>
      {
        status = HAL_TIMEOUT;
 8006bae:	2303      	movs	r3, #3
 8006bb0:	73fb      	strb	r3, [r7, #15]
        break;
 8006bb2:	e005      	b.n	8006bc0 <RCCEx_PLLSAI1_Config+0x110>
    while(READ_BIT(RCC->CR, RCC_CR_PLLSAI1RDY) != 0U)
 8006bb4:	4b36      	ldr	r3, [pc, #216]	@ (8006c90 <RCCEx_PLLSAI1_Config+0x1e0>)
 8006bb6:	681b      	ldr	r3, [r3, #0]
 8006bb8:	f003 6300 	and.w	r3, r3, #134217728	@ 0x8000000
 8006bbc:	2b00      	cmp	r3, #0
 8006bbe:	d1ef      	bne.n	8006ba0 <RCCEx_PLLSAI1_Config+0xf0>
      }
    }

    if(status == HAL_OK)
 8006bc0:	7bfb      	ldrb	r3, [r7, #15]
 8006bc2:	2b00      	cmp	r3, #0
 8006bc4:	d15f      	bne.n	8006c86 <RCCEx_PLLSAI1_Config+0x1d6>
    {
      if(Divider == DIVIDER_P_UPDATE)
 8006bc6:	683b      	ldr	r3, [r7, #0]
 8006bc8:	2b00      	cmp	r3, #0
 8006bca:	d110      	bne.n	8006bee <RCCEx_PLLSAI1_Config+0x13e>
#endif /* RCC_PLLSAI1P_DIV_2_31_SUPPORT */

#else
        /* Configure the PLLSAI1 Division factor P and Multiplication factor N*/
#if defined(RCC_PLLSAI1P_DIV_2_31_SUPPORT)
        MODIFY_REG(RCC->PLLSAI1CFGR,
 8006bcc:	4b30      	ldr	r3, [pc, #192]	@ (8006c90 <RCCEx_PLLSAI1_Config+0x1e0>)
 8006bce:	691b      	ldr	r3, [r3, #16]
 8006bd0:	f023 4378 	bic.w	r3, r3, #4160749568	@ 0xf8000000
 8006bd4:	f423 43fe 	bic.w	r3, r3, #32512	@ 0x7f00
 8006bd8:	687a      	ldr	r2, [r7, #4]
 8006bda:	6892      	ldr	r2, [r2, #8]
 8006bdc:	0211      	lsls	r1, r2, #8
 8006bde:	687a      	ldr	r2, [r7, #4]
 8006be0:	68d2      	ldr	r2, [r2, #12]
 8006be2:	06d2      	lsls	r2, r2, #27
 8006be4:	430a      	orrs	r2, r1
 8006be6:	492a      	ldr	r1, [pc, #168]	@ (8006c90 <RCCEx_PLLSAI1_Config+0x1e0>)
 8006be8:	4313      	orrs	r3, r2
 8006bea:	610b      	str	r3, [r1, #16]
 8006bec:	e027      	b.n	8006c3e <RCCEx_PLLSAI1_Config+0x18e>
                   ((PllSai1->PLLSAI1P >> 4U) << RCC_PLLSAI1CFGR_PLLSAI1P_Pos));
#endif /* RCC_PLLSAI1P_DIV_2_31_SUPPORT */

#endif /* RCC_PLLSAI1M_DIV_1_16_SUPPORT */
      }
      else if(Divider == DIVIDER_Q_UPDATE)
 8006bee:	683b      	ldr	r3, [r7, #0]
 8006bf0:	2b01      	cmp	r3, #1
 8006bf2:	d112      	bne.n	8006c1a <RCCEx_PLLSAI1_Config+0x16a>
                   (PllSai1->PLLSAI1N << RCC_PLLSAI1CFGR_PLLSAI1N_Pos) |
                   (((PllSai1->PLLSAI1Q >> 1U) - 1U) << RCC_PLLSAI1CFGR_PLLSAI1Q_Pos) |
                   ((PllSai1->PLLSAI1M - 1U) << RCC_PLLSAI1CFGR_PLLSAI1M_Pos));
#else
        /* Configure the PLLSAI1 Division factor Q and Multiplication factor N*/
        MODIFY_REG(RCC->PLLSAI1CFGR,
 8006bf4:	4b26      	ldr	r3, [pc, #152]	@ (8006c90 <RCCEx_PLLSAI1_Config+0x1e0>)
 8006bf6:	691b      	ldr	r3, [r3, #16]
 8006bf8:	f423 03c0 	bic.w	r3, r3, #6291456	@ 0x600000
 8006bfc:	f423 43fe 	bic.w	r3, r3, #32512	@ 0x7f00
 8006c00:	687a      	ldr	r2, [r7, #4]
 8006c02:	6892      	ldr	r2, [r2, #8]
 8006c04:	0211      	lsls	r1, r2, #8
 8006c06:	687a      	ldr	r2, [r7, #4]
 8006c08:	6912      	ldr	r2, [r2, #16]
 8006c0a:	0852      	lsrs	r2, r2, #1
 8006c0c:	3a01      	subs	r2, #1
 8006c0e:	0552      	lsls	r2, r2, #21
 8006c10:	430a      	orrs	r2, r1
 8006c12:	491f      	ldr	r1, [pc, #124]	@ (8006c90 <RCCEx_PLLSAI1_Config+0x1e0>)
 8006c14:	4313      	orrs	r3, r2
 8006c16:	610b      	str	r3, [r1, #16]
 8006c18:	e011      	b.n	8006c3e <RCCEx_PLLSAI1_Config+0x18e>
                   (PllSai1->PLLSAI1N << RCC_PLLSAI1CFGR_PLLSAI1N_Pos) |
                   (((PllSai1->PLLSAI1R >> 1U) - 1U) << RCC_PLLSAI1CFGR_PLLSAI1R_Pos) |
                   ((PllSai1->PLLSAI1M - 1U) << RCC_PLLSAI1CFGR_PLLSAI1M_Pos));
#else
        /* Configure the PLLSAI1 Division factor R and Multiplication factor N*/
        MODIFY_REG(RCC->PLLSAI1CFGR,
 8006c1a:	4b1d      	ldr	r3, [pc, #116]	@ (8006c90 <RCCEx_PLLSAI1_Config+0x1e0>)
 8006c1c:	691b      	ldr	r3, [r3, #16]
 8006c1e:	f023 63c0 	bic.w	r3, r3, #100663296	@ 0x6000000
 8006c22:	f423 43fe 	bic.w	r3, r3, #32512	@ 0x7f00
 8006c26:	687a      	ldr	r2, [r7, #4]
 8006c28:	6892      	ldr	r2, [r2, #8]
 8006c2a:	0211      	lsls	r1, r2, #8
 8006c2c:	687a      	ldr	r2, [r7, #4]
 8006c2e:	6952      	ldr	r2, [r2, #20]
 8006c30:	0852      	lsrs	r2, r2, #1
 8006c32:	3a01      	subs	r2, #1
 8006c34:	0652      	lsls	r2, r2, #25
 8006c36:	430a      	orrs	r2, r1
 8006c38:	4915      	ldr	r1, [pc, #84]	@ (8006c90 <RCCEx_PLLSAI1_Config+0x1e0>)
 8006c3a:	4313      	orrs	r3, r2
 8006c3c:	610b      	str	r3, [r1, #16]
                   (((PllSai1->PLLSAI1R >> 1U) - 1U) << RCC_PLLSAI1CFGR_PLLSAI1R_Pos));
#endif /* RCC_PLLSAI1M_DIV_1_16_SUPPORT */
      }

      /* Enable the PLLSAI1 again by setting PLLSAI1ON to 1*/
      __HAL_RCC_PLLSAI1_ENABLE();
 8006c3e:	4b14      	ldr	r3, [pc, #80]	@ (8006c90 <RCCEx_PLLSAI1_Config+0x1e0>)
 8006c40:	681b      	ldr	r3, [r3, #0]
 8006c42:	4a13      	ldr	r2, [pc, #76]	@ (8006c90 <RCCEx_PLLSAI1_Config+0x1e0>)
 8006c44:	f043 6380 	orr.w	r3, r3, #67108864	@ 0x4000000
 8006c48:	6013      	str	r3, [r2, #0]

      /* Get Start Tick*/
      tickstart = HAL_GetTick();
 8006c4a:	f7fd f9bf 	bl	8003fcc <HAL_GetTick>
 8006c4e:	60b8      	str	r0, [r7, #8]

      /* Wait till PLLSAI1 is ready */
      while(READ_BIT(RCC->CR, RCC_CR_PLLSAI1RDY) == 0U)
 8006c50:	e009      	b.n	8006c66 <RCCEx_PLLSAI1_Config+0x1b6>
      {
        if((HAL_GetTick() - tickstart) > PLLSAI1_TIMEOUT_VALUE)
 8006c52:	f7fd f9bb 	bl	8003fcc <HAL_GetTick>
 8006c56:	4602      	mov	r2, r0
 8006c58:	68bb      	ldr	r3, [r7, #8]
 8006c5a:	1ad3      	subs	r3, r2, r3
 8006c5c:	2b02      	cmp	r3, #2
 8006c5e:	d902      	bls.n	8006c66 <RCCEx_PLLSAI1_Config+0x1b6>
        {
          status = HAL_TIMEOUT;
 8006c60:	2303      	movs	r3, #3
 8006c62:	73fb      	strb	r3, [r7, #15]
          break;
 8006c64:	e005      	b.n	8006c72 <RCCEx_PLLSAI1_Config+0x1c2>
      while(READ_BIT(RCC->CR, RCC_CR_PLLSAI1RDY) == 0U)
 8006c66:	4b0a      	ldr	r3, [pc, #40]	@ (8006c90 <RCCEx_PLLSAI1_Config+0x1e0>)
 8006c68:	681b      	ldr	r3, [r3, #0]
 8006c6a:	f003 6300 	and.w	r3, r3, #134217728	@ 0x8000000
 8006c6e:	2b00      	cmp	r3, #0
 8006c70:	d0ef      	beq.n	8006c52 <RCCEx_PLLSAI1_Config+0x1a2>
        }
      }

      if(status == HAL_OK)
 8006c72:	7bfb      	ldrb	r3, [r7, #15]
 8006c74:	2b00      	cmp	r3, #0
 8006c76:	d106      	bne.n	8006c86 <RCCEx_PLLSAI1_Config+0x1d6>
      {
        /* Configure the PLLSAI1 Clock output(s) */
        __HAL_RCC_PLLSAI1CLKOUT_ENABLE(PllSai1->PLLSAI1ClockOut);
 8006c78:	4b05      	ldr	r3, [pc, #20]	@ (8006c90 <RCCEx_PLLSAI1_Config+0x1e0>)
 8006c7a:	691a      	ldr	r2, [r3, #16]
 8006c7c:	687b      	ldr	r3, [r7, #4]
 8006c7e:	699b      	ldr	r3, [r3, #24]
 8006c80:	4903      	ldr	r1, [pc, #12]	@ (8006c90 <RCCEx_PLLSAI1_Config+0x1e0>)
 8006c82:	4313      	orrs	r3, r2
 8006c84:	610b      	str	r3, [r1, #16]
      }
    }
  }

  return status;
 8006c86:	7bfb      	ldrb	r3, [r7, #15]
}
 8006c88:	4618      	mov	r0, r3
 8006c8a:	3710      	adds	r7, #16
 8006c8c:	46bd      	mov	sp, r7
 8006c8e:	bd80      	pop	{r7, pc}
 8006c90:	40021000 	.word	0x40021000

08006c94 <HAL_UART_Init>:
  *        parameters in the UART_InitTypeDef and initialize the associated handle.
  * @param huart UART handle.
  * @retval HAL status
  */
HAL_StatusTypeDef HAL_UART_Init(UART_HandleTypeDef *huart)
{
 8006c94:	b580      	push	{r7, lr}
 8006c96:	b082      	sub	sp, #8
 8006c98:	af00      	add	r7, sp, #0
 8006c9a:	6078      	str	r0, [r7, #4]
  /* Check the UART handle allocation */
  if (huart == NULL)
 8006c9c:	687b      	ldr	r3, [r7, #4]
 8006c9e:	2b00      	cmp	r3, #0
 8006ca0:	d101      	bne.n	8006ca6 <HAL_UART_Init+0x12>
  {
    return HAL_ERROR;
 8006ca2:	2301      	movs	r3, #1
 8006ca4:	e040      	b.n	8006d28 <HAL_UART_Init+0x94>
  {
    /* Check the parameters */
    assert_param((IS_UART_INSTANCE(huart->Instance)) || (IS_LPUART_INSTANCE(huart->Instance)));
  }

  if (huart->gState == HAL_UART_STATE_RESET)
 8006ca6:	687b      	ldr	r3, [r7, #4]
 8006ca8:	6fdb      	ldr	r3, [r3, #124]	@ 0x7c
 8006caa:	2b00      	cmp	r3, #0
 8006cac:	d106      	bne.n	8006cbc <HAL_UART_Init+0x28>
  {
    /* Allocate lock resource and initialize it */
    huart->Lock = HAL_UNLOCKED;
 8006cae:	687b      	ldr	r3, [r7, #4]
 8006cb0:	2200      	movs	r2, #0
 8006cb2:	f883 2078 	strb.w	r2, [r3, #120]	@ 0x78

    /* Init the low level hardware */
    huart->MspInitCallback(huart);
#else
    /* Init the low level hardware : GPIO, CLOCK */
    HAL_UART_MspInit(huart);
 8006cb6:	6878      	ldr	r0, [r7, #4]
 8006cb8:	f7fc fc50 	bl	800355c <HAL_UART_MspInit>
#endif /* (USE_HAL_UART_REGISTER_CALLBACKS) */
  }

  huart->gState = HAL_UART_STATE_BUSY;
 8006cbc:	687b      	ldr	r3, [r7, #4]
 8006cbe:	2224      	movs	r2, #36	@ 0x24
 8006cc0:	67da      	str	r2, [r3, #124]	@ 0x7c

  __HAL_UART_DISABLE(huart);
 8006cc2:	687b      	ldr	r3, [r7, #4]
 8006cc4:	681b      	ldr	r3, [r3, #0]
 8006cc6:	681a      	ldr	r2, [r3, #0]
 8006cc8:	687b      	ldr	r3, [r7, #4]
 8006cca:	681b      	ldr	r3, [r3, #0]
 8006ccc:	f022 0201 	bic.w	r2, r2, #1
 8006cd0:	601a      	str	r2, [r3, #0]

  /* Perform advanced settings configuration */
  /* For some items, configuration requires to be done prior TE and RE bits are set */
  if (huart->AdvancedInit.AdvFeatureInit != UART_ADVFEATURE_NO_INIT)
 8006cd2:	687b      	ldr	r3, [r7, #4]
 8006cd4:	6a5b      	ldr	r3, [r3, #36]	@ 0x24
 8006cd6:	2b00      	cmp	r3, #0
 8006cd8:	d002      	beq.n	8006ce0 <HAL_UART_Init+0x4c>
  {
    UART_AdvFeatureConfig(huart);
 8006cda:	6878      	ldr	r0, [r7, #4]
 8006cdc:	f000 fb0c 	bl	80072f8 <UART_AdvFeatureConfig>
  }

  /* Set the UART Communication parameters */
  if (UART_SetConfig(huart) == HAL_ERROR)
 8006ce0:	6878      	ldr	r0, [r7, #4]
 8006ce2:	f000 f8af 	bl	8006e44 <UART_SetConfig>
 8006ce6:	4603      	mov	r3, r0
 8006ce8:	2b01      	cmp	r3, #1
 8006cea:	d101      	bne.n	8006cf0 <HAL_UART_Init+0x5c>
  {
    return HAL_ERROR;
 8006cec:	2301      	movs	r3, #1
 8006cee:	e01b      	b.n	8006d28 <HAL_UART_Init+0x94>
  }

  /* In asynchronous mode, the following bits must be kept cleared:
  - LINEN and CLKEN bits in the USART_CR2 register,
  - SCEN, HDSEL and IREN  bits in the USART_CR3 register.*/
  CLEAR_BIT(huart->Instance->CR2, (USART_CR2_LINEN | USART_CR2_CLKEN));
 8006cf0:	687b      	ldr	r3, [r7, #4]
 8006cf2:	681b      	ldr	r3, [r3, #0]
 8006cf4:	685a      	ldr	r2, [r3, #4]
 8006cf6:	687b      	ldr	r3, [r7, #4]
 8006cf8:	681b      	ldr	r3, [r3, #0]
 8006cfa:	f422 4290 	bic.w	r2, r2, #18432	@ 0x4800
 8006cfe:	605a      	str	r2, [r3, #4]
  CLEAR_BIT(huart->Instance->CR3, (USART_CR3_SCEN | USART_CR3_HDSEL | USART_CR3_IREN));
 8006d00:	687b      	ldr	r3, [r7, #4]
 8006d02:	681b      	ldr	r3, [r3, #0]
 8006d04:	689a      	ldr	r2, [r3, #8]
 8006d06:	687b      	ldr	r3, [r7, #4]
 8006d08:	681b      	ldr	r3, [r3, #0]
 8006d0a:	f022 022a 	bic.w	r2, r2, #42	@ 0x2a
 8006d0e:	609a      	str	r2, [r3, #8]

  __HAL_UART_ENABLE(huart);
 8006d10:	687b      	ldr	r3, [r7, #4]
 8006d12:	681b      	ldr	r3, [r3, #0]
 8006d14:	681a      	ldr	r2, [r3, #0]
 8006d16:	687b      	ldr	r3, [r7, #4]
 8006d18:	681b      	ldr	r3, [r3, #0]
 8006d1a:	f042 0201 	orr.w	r2, r2, #1
 8006d1e:	601a      	str	r2, [r3, #0]

  /* TEACK and/or REACK to check before moving huart->gState and huart->RxState to Ready */
  return (UART_CheckIdleState(huart));
 8006d20:	6878      	ldr	r0, [r7, #4]
 8006d22:	f000 fb8b 	bl	800743c <UART_CheckIdleState>
 8006d26:	4603      	mov	r3, r0
}
 8006d28:	4618      	mov	r0, r3
 8006d2a:	3708      	adds	r7, #8
 8006d2c:	46bd      	mov	sp, r7
 8006d2e:	bd80      	pop	{r7, pc}

08006d30 <HAL_UART_Transmit>:
  * @param Size    Amount of data elements (u8 or u16) to be sent.
  * @param Timeout Timeout duration.
  * @retval HAL status
  */
HAL_StatusTypeDef HAL_UART_Transmit(UART_HandleTypeDef *huart, const uint8_t *pData, uint16_t Size, uint32_t Timeout)
{
 8006d30:	b580      	push	{r7, lr}
 8006d32:	b08a      	sub	sp, #40	@ 0x28
 8006d34:	af02      	add	r7, sp, #8
 8006d36:	60f8      	str	r0, [r7, #12]
 8006d38:	60b9      	str	r1, [r7, #8]
 8006d3a:	603b      	str	r3, [r7, #0]
 8006d3c:	4613      	mov	r3, r2
 8006d3e:	80fb      	strh	r3, [r7, #6]
  const uint8_t  *pdata8bits;
  const uint16_t *pdata16bits;
  uint32_t tickstart;

  /* Check that a Tx process is not already ongoing */
  if (huart->gState == HAL_UART_STATE_READY)
 8006d40:	68fb      	ldr	r3, [r7, #12]
 8006d42:	6fdb      	ldr	r3, [r3, #124]	@ 0x7c
 8006d44:	2b20      	cmp	r3, #32
 8006d46:	d177      	bne.n	8006e38 <HAL_UART_Transmit+0x108>
  {
    if ((pData == NULL) || (Size == 0U))
 8006d48:	68bb      	ldr	r3, [r7, #8]
 8006d4a:	2b00      	cmp	r3, #0
 8006d4c:	d002      	beq.n	8006d54 <HAL_UART_Transmit+0x24>
 8006d4e:	88fb      	ldrh	r3, [r7, #6]
 8006d50:	2b00      	cmp	r3, #0
 8006d52:	d101      	bne.n	8006d58 <HAL_UART_Transmit+0x28>
    {
      return  HAL_ERROR;
 8006d54:	2301      	movs	r3, #1
 8006d56:	e070      	b.n	8006e3a <HAL_UART_Transmit+0x10a>
    }

    huart->ErrorCode = HAL_UART_ERROR_NONE;
 8006d58:	68fb      	ldr	r3, [r7, #12]
 8006d5a:	2200      	movs	r2, #0
 8006d5c:	f8c3 2084 	str.w	r2, [r3, #132]	@ 0x84
    huart->gState = HAL_UART_STATE_BUSY_TX;
 8006d60:	68fb      	ldr	r3, [r7, #12]
 8006d62:	2221      	movs	r2, #33	@ 0x21
 8006d64:	67da      	str	r2, [r3, #124]	@ 0x7c

    /* Init tickstart for timeout management */
    tickstart = HAL_GetTick();
 8006d66:	f7fd f931 	bl	8003fcc <HAL_GetTick>
 8006d6a:	6178      	str	r0, [r7, #20]

    huart->TxXferSize  = Size;
 8006d6c:	68fb      	ldr	r3, [r7, #12]
 8006d6e:	88fa      	ldrh	r2, [r7, #6]
 8006d70:	f8a3 2050 	strh.w	r2, [r3, #80]	@ 0x50
    huart->TxXferCount = Size;
 8006d74:	68fb      	ldr	r3, [r7, #12]
 8006d76:	88fa      	ldrh	r2, [r7, #6]
 8006d78:	f8a3 2052 	strh.w	r2, [r3, #82]	@ 0x52

    /* In case of 9bits/No Parity transfer, pData needs to be handled as a uint16_t pointer */
    if ((huart->Init.WordLength == UART_WORDLENGTH_9B) && (huart->Init.Parity == UART_PARITY_NONE))
 8006d7c:	68fb      	ldr	r3, [r7, #12]
 8006d7e:	689b      	ldr	r3, [r3, #8]
 8006d80:	f5b3 5f80 	cmp.w	r3, #4096	@ 0x1000
 8006d84:	d108      	bne.n	8006d98 <HAL_UART_Transmit+0x68>
 8006d86:	68fb      	ldr	r3, [r7, #12]
 8006d88:	691b      	ldr	r3, [r3, #16]
 8006d8a:	2b00      	cmp	r3, #0
 8006d8c:	d104      	bne.n	8006d98 <HAL_UART_Transmit+0x68>
    {
      pdata8bits  = NULL;
 8006d8e:	2300      	movs	r3, #0
 8006d90:	61fb      	str	r3, [r7, #28]
      pdata16bits = (const uint16_t *) pData;
 8006d92:	68bb      	ldr	r3, [r7, #8]
 8006d94:	61bb      	str	r3, [r7, #24]
 8006d96:	e003      	b.n	8006da0 <HAL_UART_Transmit+0x70>
    }
    else
    {
      pdata8bits  = pData;
 8006d98:	68bb      	ldr	r3, [r7, #8]
 8006d9a:	61fb      	str	r3, [r7, #28]
      pdata16bits = NULL;
 8006d9c:	2300      	movs	r3, #0
 8006d9e:	61bb      	str	r3, [r7, #24]
    }

    while (huart->TxXferCount > 0U)
 8006da0:	e02f      	b.n	8006e02 <HAL_UART_Transmit+0xd2>
    {
      if (UART_WaitOnFlagUntilTimeout(huart, UART_FLAG_TXE, RESET, tickstart, Timeout) != HAL_OK)
 8006da2:	683b      	ldr	r3, [r7, #0]
 8006da4:	9300      	str	r3, [sp, #0]
 8006da6:	697b      	ldr	r3, [r7, #20]
 8006da8:	2200      	movs	r2, #0
 8006daa:	2180      	movs	r1, #128	@ 0x80
 8006dac:	68f8      	ldr	r0, [r7, #12]
 8006dae:	f000 fbed 	bl	800758c <UART_WaitOnFlagUntilTimeout>
 8006db2:	4603      	mov	r3, r0
 8006db4:	2b00      	cmp	r3, #0
 8006db6:	d004      	beq.n	8006dc2 <HAL_UART_Transmit+0x92>
      {

        huart->gState = HAL_UART_STATE_READY;
 8006db8:	68fb      	ldr	r3, [r7, #12]
 8006dba:	2220      	movs	r2, #32
 8006dbc:	67da      	str	r2, [r3, #124]	@ 0x7c

        return HAL_TIMEOUT;
 8006dbe:	2303      	movs	r3, #3
 8006dc0:	e03b      	b.n	8006e3a <HAL_UART_Transmit+0x10a>
      }
      if (pdata8bits == NULL)
 8006dc2:	69fb      	ldr	r3, [r7, #28]
 8006dc4:	2b00      	cmp	r3, #0
 8006dc6:	d10b      	bne.n	8006de0 <HAL_UART_Transmit+0xb0>
      {
        huart->Instance->TDR = (uint16_t)(*pdata16bits & 0x01FFU);
 8006dc8:	69bb      	ldr	r3, [r7, #24]
 8006dca:	881a      	ldrh	r2, [r3, #0]
 8006dcc:	68fb      	ldr	r3, [r7, #12]
 8006dce:	681b      	ldr	r3, [r3, #0]
 8006dd0:	f3c2 0208 	ubfx	r2, r2, #0, #9
 8006dd4:	b292      	uxth	r2, r2
 8006dd6:	851a      	strh	r2, [r3, #40]	@ 0x28
        pdata16bits++;
 8006dd8:	69bb      	ldr	r3, [r7, #24]
 8006dda:	3302      	adds	r3, #2
 8006ddc:	61bb      	str	r3, [r7, #24]
 8006dde:	e007      	b.n	8006df0 <HAL_UART_Transmit+0xc0>
      }
      else
      {
        huart->Instance->TDR = (uint8_t)(*pdata8bits & 0xFFU);
 8006de0:	69fb      	ldr	r3, [r7, #28]
 8006de2:	781a      	ldrb	r2, [r3, #0]
 8006de4:	68fb      	ldr	r3, [r7, #12]
 8006de6:	681b      	ldr	r3, [r3, #0]
 8006de8:	851a      	strh	r2, [r3, #40]	@ 0x28
        pdata8bits++;
 8006dea:	69fb      	ldr	r3, [r7, #28]
 8006dec:	3301      	adds	r3, #1
 8006dee:	61fb      	str	r3, [r7, #28]
      }
      huart->TxXferCount--;
 8006df0:	68fb      	ldr	r3, [r7, #12]
 8006df2:	f8b3 3052 	ldrh.w	r3, [r3, #82]	@ 0x52
 8006df6:	b29b      	uxth	r3, r3
 8006df8:	3b01      	subs	r3, #1
 8006dfa:	b29a      	uxth	r2, r3
 8006dfc:	68fb      	ldr	r3, [r7, #12]
 8006dfe:	f8a3 2052 	strh.w	r2, [r3, #82]	@ 0x52
    while (huart->TxXferCount > 0U)
 8006e02:	68fb      	ldr	r3, [r7, #12]
 8006e04:	f8b3 3052 	ldrh.w	r3, [r3, #82]	@ 0x52
 8006e08:	b29b      	uxth	r3, r3
 8006e0a:	2b00      	cmp	r3, #0
 8006e0c:	d1c9      	bne.n	8006da2 <HAL_UART_Transmit+0x72>
    }

    if (UART_WaitOnFlagUntilTimeout(huart, UART_FLAG_TC, RESET, tickstart, Timeout) != HAL_OK)
 8006e0e:	683b      	ldr	r3, [r7, #0]
 8006e10:	9300      	str	r3, [sp, #0]
 8006e12:	697b      	ldr	r3, [r7, #20]
 8006e14:	2200      	movs	r2, #0
 8006e16:	2140      	movs	r1, #64	@ 0x40
 8006e18:	68f8      	ldr	r0, [r7, #12]
 8006e1a:	f000 fbb7 	bl	800758c <UART_WaitOnFlagUntilTimeout>
 8006e1e:	4603      	mov	r3, r0
 8006e20:	2b00      	cmp	r3, #0
 8006e22:	d004      	beq.n	8006e2e <HAL_UART_Transmit+0xfe>
    {
      huart->gState = HAL_UART_STATE_READY;
 8006e24:	68fb      	ldr	r3, [r7, #12]
 8006e26:	2220      	movs	r2, #32
 8006e28:	67da      	str	r2, [r3, #124]	@ 0x7c

      return HAL_TIMEOUT;
 8006e2a:	2303      	movs	r3, #3
 8006e2c:	e005      	b.n	8006e3a <HAL_UART_Transmit+0x10a>
    }

    /* At end of Tx process, restore huart->gState to Ready */
    huart->gState = HAL_UART_STATE_READY;
 8006e2e:	68fb      	ldr	r3, [r7, #12]
 8006e30:	2220      	movs	r2, #32
 8006e32:	67da      	str	r2, [r3, #124]	@ 0x7c

    return HAL_OK;
 8006e34:	2300      	movs	r3, #0
 8006e36:	e000      	b.n	8006e3a <HAL_UART_Transmit+0x10a>
  }
  else
  {
    return HAL_BUSY;
 8006e38:	2302      	movs	r3, #2
  }
}
 8006e3a:	4618      	mov	r0, r3
 8006e3c:	3720      	adds	r7, #32
 8006e3e:	46bd      	mov	sp, r7
 8006e40:	bd80      	pop	{r7, pc}
	...

08006e44 <UART_SetConfig>:
  * @brief Configure the UART peripheral.
  * @param huart UART handle.
  * @retval HAL status
  */
HAL_StatusTypeDef UART_SetConfig(UART_HandleTypeDef *huart)
{
 8006e44:	e92d 4fb0 	stmdb	sp!, {r4, r5, r7, r8, r9, sl, fp, lr}
 8006e48:	b08a      	sub	sp, #40	@ 0x28
 8006e4a:	af00      	add	r7, sp, #0
 8006e4c:	60f8      	str	r0, [r7, #12]
  uint32_t tmpreg;
  uint16_t brrtemp;
  UART_ClockSourceTypeDef clocksource;
  uint32_t usartdiv;
  HAL_StatusTypeDef ret               = HAL_OK;
 8006e4e:	2300      	movs	r3, #0
 8006e50:	f887 3022 	strb.w	r3, [r7, #34]	@ 0x22
  *  the UART Word Length, Parity, Mode and oversampling:
  *  set the M bits according to huart->Init.WordLength value
  *  set PCE and PS bits according to huart->Init.Parity value
  *  set TE and RE bits according to huart->Init.Mode value
  *  set OVER8 bit according to huart->Init.OverSampling value */
  tmpreg = (uint32_t)huart->Init.WordLength | huart->Init.Parity | huart->Init.Mode | huart->Init.OverSampling ;
 8006e54:	68fb      	ldr	r3, [r7, #12]
 8006e56:	689a      	ldr	r2, [r3, #8]
 8006e58:	68fb      	ldr	r3, [r7, #12]
 8006e5a:	691b      	ldr	r3, [r3, #16]
 8006e5c:	431a      	orrs	r2, r3
 8006e5e:	68fb      	ldr	r3, [r7, #12]
 8006e60:	695b      	ldr	r3, [r3, #20]
 8006e62:	431a      	orrs	r2, r3
 8006e64:	68fb      	ldr	r3, [r7, #12]
 8006e66:	69db      	ldr	r3, [r3, #28]
 8006e68:	4313      	orrs	r3, r2
 8006e6a:	627b      	str	r3, [r7, #36]	@ 0x24
  MODIFY_REG(huart->Instance->CR1, USART_CR1_FIELDS, tmpreg);
 8006e6c:	68fb      	ldr	r3, [r7, #12]
 8006e6e:	681b      	ldr	r3, [r3, #0]
 8006e70:	681a      	ldr	r2, [r3, #0]
 8006e72:	4b9e      	ldr	r3, [pc, #632]	@ (80070ec <UART_SetConfig+0x2a8>)
 8006e74:	4013      	ands	r3, r2
 8006e76:	68fa      	ldr	r2, [r7, #12]
 8006e78:	6812      	ldr	r2, [r2, #0]
 8006e7a:	6a79      	ldr	r1, [r7, #36]	@ 0x24
 8006e7c:	430b      	orrs	r3, r1
 8006e7e:	6013      	str	r3, [r2, #0]

  /*-------------------------- USART CR2 Configuration -----------------------*/
  /* Configure the UART Stop Bits: Set STOP[13:12] bits according
  * to huart->Init.StopBits value */
  MODIFY_REG(huart->Instance->CR2, USART_CR2_STOP, huart->Init.StopBits);
 8006e80:	68fb      	ldr	r3, [r7, #12]
 8006e82:	681b      	ldr	r3, [r3, #0]
 8006e84:	685b      	ldr	r3, [r3, #4]
 8006e86:	f423 5140 	bic.w	r1, r3, #12288	@ 0x3000
 8006e8a:	68fb      	ldr	r3, [r7, #12]
 8006e8c:	68da      	ldr	r2, [r3, #12]
 8006e8e:	68fb      	ldr	r3, [r7, #12]
 8006e90:	681b      	ldr	r3, [r3, #0]
 8006e92:	430a      	orrs	r2, r1
 8006e94:	605a      	str	r2, [r3, #4]
  /* Configure
  * - UART HardWare Flow Control: set CTSE and RTSE bits according
  *   to huart->Init.HwFlowCtl value
  * - one-bit sampling method versus three samples' majority rule according
  *   to huart->Init.OneBitSampling (not applicable to LPUART) */
  tmpreg = (uint32_t)huart->Init.HwFlowCtl;
 8006e96:	68fb      	ldr	r3, [r7, #12]
 8006e98:	699b      	ldr	r3, [r3, #24]
 8006e9a:	627b      	str	r3, [r7, #36]	@ 0x24

  if (!(UART_INSTANCE_LOWPOWER(huart)))
 8006e9c:	68fb      	ldr	r3, [r7, #12]
 8006e9e:	681b      	ldr	r3, [r3, #0]
 8006ea0:	4a93      	ldr	r2, [pc, #588]	@ (80070f0 <UART_SetConfig+0x2ac>)
 8006ea2:	4293      	cmp	r3, r2
 8006ea4:	d004      	beq.n	8006eb0 <UART_SetConfig+0x6c>
  {
    tmpreg |= huart->Init.OneBitSampling;
 8006ea6:	68fb      	ldr	r3, [r7, #12]
 8006ea8:	6a1b      	ldr	r3, [r3, #32]
 8006eaa:	6a7a      	ldr	r2, [r7, #36]	@ 0x24
 8006eac:	4313      	orrs	r3, r2
 8006eae:	627b      	str	r3, [r7, #36]	@ 0x24
  }
  MODIFY_REG(huart->Instance->CR3, USART_CR3_FIELDS, tmpreg);
 8006eb0:	68fb      	ldr	r3, [r7, #12]
 8006eb2:	681b      	ldr	r3, [r3, #0]
 8006eb4:	689b      	ldr	r3, [r3, #8]
 8006eb6:	f423 6130 	bic.w	r1, r3, #2816	@ 0xb00
 8006eba:	68fb      	ldr	r3, [r7, #12]
 8006ebc:	681b      	ldr	r3, [r3, #0]
 8006ebe:	6a7a      	ldr	r2, [r7, #36]	@ 0x24
 8006ec0:	430a      	orrs	r2, r1
 8006ec2:	609a      	str	r2, [r3, #8]
  * - UART Clock Prescaler : set PRESCALER according to huart->Init.ClockPrescaler value */
  MODIFY_REG(huart->Instance->PRESC, USART_PRESC_PRESCALER, huart->Init.ClockPrescaler);
#endif /* USART_PRESC_PRESCALER */

  /*-------------------------- USART BRR Configuration -----------------------*/
  UART_GETCLOCKSOURCE(huart, clocksource);
 8006ec4:	68fb      	ldr	r3, [r7, #12]
 8006ec6:	681b      	ldr	r3, [r3, #0]
 8006ec8:	4a8a      	ldr	r2, [pc, #552]	@ (80070f4 <UART_SetConfig+0x2b0>)
 8006eca:	4293      	cmp	r3, r2
 8006ecc:	d126      	bne.n	8006f1c <UART_SetConfig+0xd8>
 8006ece:	4b8a      	ldr	r3, [pc, #552]	@ (80070f8 <UART_SetConfig+0x2b4>)
 8006ed0:	f8d3 3088 	ldr.w	r3, [r3, #136]	@ 0x88
 8006ed4:	f003 0303 	and.w	r3, r3, #3
 8006ed8:	2b03      	cmp	r3, #3
 8006eda:	d81b      	bhi.n	8006f14 <UART_SetConfig+0xd0>
 8006edc:	a201      	add	r2, pc, #4	@ (adr r2, 8006ee4 <UART_SetConfig+0xa0>)
 8006ede:	f852 f023 	ldr.w	pc, [r2, r3, lsl #2]
 8006ee2:	bf00      	nop
 8006ee4:	08006ef5 	.word	0x08006ef5
 8006ee8:	08006f05 	.word	0x08006f05
 8006eec:	08006efd 	.word	0x08006efd
 8006ef0:	08006f0d 	.word	0x08006f0d
 8006ef4:	2301      	movs	r3, #1
 8006ef6:	f887 3023 	strb.w	r3, [r7, #35]	@ 0x23
 8006efa:	e0ab      	b.n	8007054 <UART_SetConfig+0x210>
 8006efc:	2302      	movs	r3, #2
 8006efe:	f887 3023 	strb.w	r3, [r7, #35]	@ 0x23
 8006f02:	e0a7      	b.n	8007054 <UART_SetConfig+0x210>
 8006f04:	2304      	movs	r3, #4
 8006f06:	f887 3023 	strb.w	r3, [r7, #35]	@ 0x23
 8006f0a:	e0a3      	b.n	8007054 <UART_SetConfig+0x210>
 8006f0c:	2308      	movs	r3, #8
 8006f0e:	f887 3023 	strb.w	r3, [r7, #35]	@ 0x23
 8006f12:	e09f      	b.n	8007054 <UART_SetConfig+0x210>
 8006f14:	2310      	movs	r3, #16
 8006f16:	f887 3023 	strb.w	r3, [r7, #35]	@ 0x23
 8006f1a:	e09b      	b.n	8007054 <UART_SetConfig+0x210>
 8006f1c:	68fb      	ldr	r3, [r7, #12]
 8006f1e:	681b      	ldr	r3, [r3, #0]
 8006f20:	4a76      	ldr	r2, [pc, #472]	@ (80070fc <UART_SetConfig+0x2b8>)
 8006f22:	4293      	cmp	r3, r2
 8006f24:	d138      	bne.n	8006f98 <UART_SetConfig+0x154>
 8006f26:	4b74      	ldr	r3, [pc, #464]	@ (80070f8 <UART_SetConfig+0x2b4>)
 8006f28:	f8d3 3088 	ldr.w	r3, [r3, #136]	@ 0x88
 8006f2c:	f003 030c 	and.w	r3, r3, #12
 8006f30:	2b0c      	cmp	r3, #12
 8006f32:	d82d      	bhi.n	8006f90 <UART_SetConfig+0x14c>
 8006f34:	a201      	add	r2, pc, #4	@ (adr r2, 8006f3c <UART_SetConfig+0xf8>)
 8006f36:	f852 f023 	ldr.w	pc, [r2, r3, lsl #2]
 8006f3a:	bf00      	nop
 8006f3c:	08006f71 	.word	0x08006f71
 8006f40:	08006f91 	.word	0x08006f91
 8006f44:	08006f91 	.word	0x08006f91
 8006f48:	08006f91 	.word	0x08006f91
 8006f4c:	08006f81 	.word	0x08006f81
 8006f50:	08006f91 	.word	0x08006f91
 8006f54:	08006f91 	.word	0x08006f91
 8006f58:	08006f91 	.word	0x08006f91
 8006f5c:	08006f79 	.word	0x08006f79
 8006f60:	08006f91 	.word	0x08006f91
 8006f64:	08006f91 	.word	0x08006f91
 8006f68:	08006f91 	.word	0x08006f91
 8006f6c:	08006f89 	.word	0x08006f89
 8006f70:	2300      	movs	r3, #0
 8006f72:	f887 3023 	strb.w	r3, [r7, #35]	@ 0x23
 8006f76:	e06d      	b.n	8007054 <UART_SetConfig+0x210>
 8006f78:	2302      	movs	r3, #2
 8006f7a:	f887 3023 	strb.w	r3, [r7, #35]	@ 0x23
 8006f7e:	e069      	b.n	8007054 <UART_SetConfig+0x210>
 8006f80:	2304      	movs	r3, #4
 8006f82:	f887 3023 	strb.w	r3, [r7, #35]	@ 0x23
 8006f86:	e065      	b.n	8007054 <UART_SetConfig+0x210>
 8006f88:	2308      	movs	r3, #8
 8006f8a:	f887 3023 	strb.w	r3, [r7, #35]	@ 0x23
 8006f8e:	e061      	b.n	8007054 <UART_SetConfig+0x210>
 8006f90:	2310      	movs	r3, #16
 8006f92:	f887 3023 	strb.w	r3, [r7, #35]	@ 0x23
 8006f96:	e05d      	b.n	8007054 <UART_SetConfig+0x210>
 8006f98:	68fb      	ldr	r3, [r7, #12]
 8006f9a:	681b      	ldr	r3, [r3, #0]
 8006f9c:	4a58      	ldr	r2, [pc, #352]	@ (8007100 <UART_SetConfig+0x2bc>)
 8006f9e:	4293      	cmp	r3, r2
 8006fa0:	d125      	bne.n	8006fee <UART_SetConfig+0x1aa>
 8006fa2:	4b55      	ldr	r3, [pc, #340]	@ (80070f8 <UART_SetConfig+0x2b4>)
 8006fa4:	f8d3 3088 	ldr.w	r3, [r3, #136]	@ 0x88
 8006fa8:	f003 0330 	and.w	r3, r3, #48	@ 0x30
 8006fac:	2b30      	cmp	r3, #48	@ 0x30
 8006fae:	d016      	beq.n	8006fde <UART_SetConfig+0x19a>
 8006fb0:	2b30      	cmp	r3, #48	@ 0x30
 8006fb2:	d818      	bhi.n	8006fe6 <UART_SetConfig+0x1a2>
 8006fb4:	2b20      	cmp	r3, #32
 8006fb6:	d00a      	beq.n	8006fce <UART_SetConfig+0x18a>
 8006fb8:	2b20      	cmp	r3, #32
 8006fba:	d814      	bhi.n	8006fe6 <UART_SetConfig+0x1a2>
 8006fbc:	2b00      	cmp	r3, #0
 8006fbe:	d002      	beq.n	8006fc6 <UART_SetConfig+0x182>
 8006fc0:	2b10      	cmp	r3, #16
 8006fc2:	d008      	beq.n	8006fd6 <UART_SetConfig+0x192>
 8006fc4:	e00f      	b.n	8006fe6 <UART_SetConfig+0x1a2>
 8006fc6:	2300      	movs	r3, #0
 8006fc8:	f887 3023 	strb.w	r3, [r7, #35]	@ 0x23
 8006fcc:	e042      	b.n	8007054 <UART_SetConfig+0x210>
 8006fce:	2302      	movs	r3, #2
 8006fd0:	f887 3023 	strb.w	r3, [r7, #35]	@ 0x23
 8006fd4:	e03e      	b.n	8007054 <UART_SetConfig+0x210>
 8006fd6:	2304      	movs	r3, #4
 8006fd8:	f887 3023 	strb.w	r3, [r7, #35]	@ 0x23
 8006fdc:	e03a      	b.n	8007054 <UART_SetConfig+0x210>
 8006fde:	2308      	movs	r3, #8
 8006fe0:	f887 3023 	strb.w	r3, [r7, #35]	@ 0x23
 8006fe4:	e036      	b.n	8007054 <UART_SetConfig+0x210>
 8006fe6:	2310      	movs	r3, #16
 8006fe8:	f887 3023 	strb.w	r3, [r7, #35]	@ 0x23
 8006fec:	e032      	b.n	8007054 <UART_SetConfig+0x210>
 8006fee:	68fb      	ldr	r3, [r7, #12]
 8006ff0:	681b      	ldr	r3, [r3, #0]
 8006ff2:	4a3f      	ldr	r2, [pc, #252]	@ (80070f0 <UART_SetConfig+0x2ac>)
 8006ff4:	4293      	cmp	r3, r2
 8006ff6:	d12a      	bne.n	800704e <UART_SetConfig+0x20a>
 8006ff8:	4b3f      	ldr	r3, [pc, #252]	@ (80070f8 <UART_SetConfig+0x2b4>)
 8006ffa:	f8d3 3088 	ldr.w	r3, [r3, #136]	@ 0x88
 8006ffe:	f403 6340 	and.w	r3, r3, #3072	@ 0xc00
 8007002:	f5b3 6f40 	cmp.w	r3, #3072	@ 0xc00
 8007006:	d01a      	beq.n	800703e <UART_SetConfig+0x1fa>
 8007008:	f5b3 6f40 	cmp.w	r3, #3072	@ 0xc00
 800700c:	d81b      	bhi.n	8007046 <UART_SetConfig+0x202>
 800700e:	f5b3 6f00 	cmp.w	r3, #2048	@ 0x800
 8007012:	d00c      	beq.n	800702e <UART_SetConfig+0x1ea>
 8007014:	f5b3 6f00 	cmp.w	r3, #2048	@ 0x800
 8007018:	d815      	bhi.n	8007046 <UART_SetConfig+0x202>
 800701a:	2b00      	cmp	r3, #0
 800701c:	d003      	beq.n	8007026 <UART_SetConfig+0x1e2>
 800701e:	f5b3 6f80 	cmp.w	r3, #1024	@ 0x400
 8007022:	d008      	beq.n	8007036 <UART_SetConfig+0x1f2>
 8007024:	e00f      	b.n	8007046 <UART_SetConfig+0x202>
 8007026:	2300      	movs	r3, #0
 8007028:	f887 3023 	strb.w	r3, [r7, #35]	@ 0x23
 800702c:	e012      	b.n	8007054 <UART_SetConfig+0x210>
 800702e:	2302      	movs	r3, #2
 8007030:	f887 3023 	strb.w	r3, [r7, #35]	@ 0x23
 8007034:	e00e      	b.n	8007054 <UART_SetConfig+0x210>
 8007036:	2304      	movs	r3, #4
 8007038:	f887 3023 	strb.w	r3, [r7, #35]	@ 0x23
 800703c:	e00a      	b.n	8007054 <UART_SetConfig+0x210>
 800703e:	2308      	movs	r3, #8
 8007040:	f887 3023 	strb.w	r3, [r7, #35]	@ 0x23
 8007044:	e006      	b.n	8007054 <UART_SetConfig+0x210>
 8007046:	2310      	movs	r3, #16
 8007048:	f887 3023 	strb.w	r3, [r7, #35]	@ 0x23
 800704c:	e002      	b.n	8007054 <UART_SetConfig+0x210>
 800704e:	2310      	movs	r3, #16
 8007050:	f887 3023 	strb.w	r3, [r7, #35]	@ 0x23

  /* Check LPUART instance */
  if (UART_INSTANCE_LOWPOWER(huart))
 8007054:	68fb      	ldr	r3, [r7, #12]
 8007056:	681b      	ldr	r3, [r3, #0]
 8007058:	4a25      	ldr	r2, [pc, #148]	@ (80070f0 <UART_SetConfig+0x2ac>)
 800705a:	4293      	cmp	r3, r2
 800705c:	f040 808a 	bne.w	8007174 <UART_SetConfig+0x330>
  {
    /* Retrieve frequency clock */
    switch (clocksource)
 8007060:	f897 3023 	ldrb.w	r3, [r7, #35]	@ 0x23
 8007064:	2b08      	cmp	r3, #8
 8007066:	d824      	bhi.n	80070b2 <UART_SetConfig+0x26e>
 8007068:	a201      	add	r2, pc, #4	@ (adr r2, 8007070 <UART_SetConfig+0x22c>)
 800706a:	f852 f023 	ldr.w	pc, [r2, r3, lsl #2]
 800706e:	bf00      	nop
 8007070:	08007095 	.word	0x08007095
 8007074:	080070b3 	.word	0x080070b3
 8007078:	0800709d 	.word	0x0800709d
 800707c:	080070b3 	.word	0x080070b3
 8007080:	080070a3 	.word	0x080070a3
 8007084:	080070b3 	.word	0x080070b3
 8007088:	080070b3 	.word	0x080070b3
 800708c:	080070b3 	.word	0x080070b3
 8007090:	080070ab 	.word	0x080070ab
    {
      case UART_CLOCKSOURCE_PCLK1:
        pclk = HAL_RCC_GetPCLK1Freq();
 8007094:	f7ff fa36 	bl	8006504 <HAL_RCC_GetPCLK1Freq>
 8007098:	61f8      	str	r0, [r7, #28]
        break;
 800709a:	e010      	b.n	80070be <UART_SetConfig+0x27a>
      case UART_CLOCKSOURCE_HSI:
        pclk = (uint32_t) HSI_VALUE;
 800709c:	4b19      	ldr	r3, [pc, #100]	@ (8007104 <UART_SetConfig+0x2c0>)
 800709e:	61fb      	str	r3, [r7, #28]
        break;
 80070a0:	e00d      	b.n	80070be <UART_SetConfig+0x27a>
      case UART_CLOCKSOURCE_SYSCLK:
        pclk = HAL_RCC_GetSysClockFreq();
 80070a2:	f7ff f997 	bl	80063d4 <HAL_RCC_GetSysClockFreq>
 80070a6:	61f8      	str	r0, [r7, #28]
        break;
 80070a8:	e009      	b.n	80070be <UART_SetConfig+0x27a>
      case UART_CLOCKSOURCE_LSE:
        pclk = (uint32_t) LSE_VALUE;
 80070aa:	f44f 4300 	mov.w	r3, #32768	@ 0x8000
 80070ae:	61fb      	str	r3, [r7, #28]
        break;
 80070b0:	e005      	b.n	80070be <UART_SetConfig+0x27a>
      default:
        pclk = 0U;
 80070b2:	2300      	movs	r3, #0
 80070b4:	61fb      	str	r3, [r7, #28]
        ret = HAL_ERROR;
 80070b6:	2301      	movs	r3, #1
 80070b8:	f887 3022 	strb.w	r3, [r7, #34]	@ 0x22
        break;
 80070bc:	bf00      	nop
    }

    /* If proper clock source reported */
    if (pclk != 0U)
 80070be:	69fb      	ldr	r3, [r7, #28]
 80070c0:	2b00      	cmp	r3, #0
 80070c2:	f000 8109 	beq.w	80072d8 <UART_SetConfig+0x494>
      } /* if ( (lpuart_ker_ck_pres < (3 * huart->Init.BaudRate) ) ||
                (lpuart_ker_ck_pres > (4096 * huart->Init.BaudRate) )) */
#else
      /* No Prescaler applicable */
      /* Ensure that Frequency clock is in the range [3 * baudrate, 4096 * baudrate] */
      if ((pclk < (3U * huart->Init.BaudRate)) ||
 80070c6:	68fb      	ldr	r3, [r7, #12]
 80070c8:	685a      	ldr	r2, [r3, #4]
 80070ca:	4613      	mov	r3, r2
 80070cc:	005b      	lsls	r3, r3, #1
 80070ce:	4413      	add	r3, r2
 80070d0:	69fa      	ldr	r2, [r7, #28]
 80070d2:	429a      	cmp	r2, r3
 80070d4:	d305      	bcc.n	80070e2 <UART_SetConfig+0x29e>
          (pclk > (4096U * huart->Init.BaudRate)))
 80070d6:	68fb      	ldr	r3, [r7, #12]
 80070d8:	685b      	ldr	r3, [r3, #4]
 80070da:	031b      	lsls	r3, r3, #12
      if ((pclk < (3U * huart->Init.BaudRate)) ||
 80070dc:	69fa      	ldr	r2, [r7, #28]
 80070de:	429a      	cmp	r2, r3
 80070e0:	d912      	bls.n	8007108 <UART_SetConfig+0x2c4>
      {
        ret = HAL_ERROR;
 80070e2:	2301      	movs	r3, #1
 80070e4:	f887 3022 	strb.w	r3, [r7, #34]	@ 0x22
 80070e8:	e0f6      	b.n	80072d8 <UART_SetConfig+0x494>
 80070ea:	bf00      	nop
 80070ec:	efff69f3 	.word	0xefff69f3
 80070f0:	40008000 	.word	0x40008000
 80070f4:	40013800 	.word	0x40013800
 80070f8:	40021000 	.word	0x40021000
 80070fc:	40004400 	.word	0x40004400
 8007100:	40004800 	.word	0x40004800
 8007104:	00f42400 	.word	0x00f42400
      }
      else
      {
        usartdiv = (uint32_t)(UART_DIV_LPUART(pclk, huart->Init.BaudRate));
 8007108:	69fb      	ldr	r3, [r7, #28]
 800710a:	2200      	movs	r2, #0
 800710c:	461c      	mov	r4, r3
 800710e:	4615      	mov	r5, r2
 8007110:	f04f 0200 	mov.w	r2, #0
 8007114:	f04f 0300 	mov.w	r3, #0
 8007118:	022b      	lsls	r3, r5, #8
 800711a:	ea43 6314 	orr.w	r3, r3, r4, lsr #24
 800711e:	0222      	lsls	r2, r4, #8
 8007120:	68f9      	ldr	r1, [r7, #12]
 8007122:	6849      	ldr	r1, [r1, #4]
 8007124:	0849      	lsrs	r1, r1, #1
 8007126:	2000      	movs	r0, #0
 8007128:	4688      	mov	r8, r1
 800712a:	4681      	mov	r9, r0
 800712c:	eb12 0a08 	adds.w	sl, r2, r8
 8007130:	eb43 0b09 	adc.w	fp, r3, r9
 8007134:	68fb      	ldr	r3, [r7, #12]
 8007136:	685b      	ldr	r3, [r3, #4]
 8007138:	2200      	movs	r2, #0
 800713a:	603b      	str	r3, [r7, #0]
 800713c:	607a      	str	r2, [r7, #4]
 800713e:	e9d7 2300 	ldrd	r2, r3, [r7]
 8007142:	4650      	mov	r0, sl
 8007144:	4659      	mov	r1, fp
 8007146:	f7f9 f89b 	bl	8000280 <__aeabi_uldivmod>
 800714a:	4602      	mov	r2, r0
 800714c:	460b      	mov	r3, r1
 800714e:	4613      	mov	r3, r2
 8007150:	61bb      	str	r3, [r7, #24]
        if ((usartdiv >= LPUART_BRR_MIN) && (usartdiv <= LPUART_BRR_MAX))
 8007152:	69bb      	ldr	r3, [r7, #24]
 8007154:	f5b3 7f40 	cmp.w	r3, #768	@ 0x300
 8007158:	d308      	bcc.n	800716c <UART_SetConfig+0x328>
 800715a:	69bb      	ldr	r3, [r7, #24]
 800715c:	f5b3 1f80 	cmp.w	r3, #1048576	@ 0x100000
 8007160:	d204      	bcs.n	800716c <UART_SetConfig+0x328>
        {
          huart->Instance->BRR = usartdiv;
 8007162:	68fb      	ldr	r3, [r7, #12]
 8007164:	681b      	ldr	r3, [r3, #0]
 8007166:	69ba      	ldr	r2, [r7, #24]
 8007168:	60da      	str	r2, [r3, #12]
 800716a:	e0b5      	b.n	80072d8 <UART_SetConfig+0x494>
        }
        else
        {
          ret = HAL_ERROR;
 800716c:	2301      	movs	r3, #1
 800716e:	f887 3022 	strb.w	r3, [r7, #34]	@ 0x22
 8007172:	e0b1      	b.n	80072d8 <UART_SetConfig+0x494>
      } /* if ( (pclk < (3 * huart->Init.BaudRate) ) || (pclk > (4096 * huart->Init.BaudRate) )) */
#endif /* USART_PRESC_PRESCALER */
    } /* if (pclk != 0) */
  }
  /* Check UART Over Sampling to set Baud Rate Register */
  else if (huart->Init.OverSampling == UART_OVERSAMPLING_8)
 8007174:	68fb      	ldr	r3, [r7, #12]
 8007176:	69db      	ldr	r3, [r3, #28]
 8007178:	f5b3 4f00 	cmp.w	r3, #32768	@ 0x8000
 800717c:	d15d      	bne.n	800723a <UART_SetConfig+0x3f6>
  {
    switch (clocksource)
 800717e:	f897 3023 	ldrb.w	r3, [r7, #35]	@ 0x23
 8007182:	2b08      	cmp	r3, #8
 8007184:	d827      	bhi.n	80071d6 <UART_SetConfig+0x392>
 8007186:	a201      	add	r2, pc, #4	@ (adr r2, 800718c <UART_SetConfig+0x348>)
 8007188:	f852 f023 	ldr.w	pc, [r2, r3, lsl #2]
 800718c:	080071b1 	.word	0x080071b1
 8007190:	080071b9 	.word	0x080071b9
 8007194:	080071c1 	.word	0x080071c1
 8007198:	080071d7 	.word	0x080071d7
 800719c:	080071c7 	.word	0x080071c7
 80071a0:	080071d7 	.word	0x080071d7
 80071a4:	080071d7 	.word	0x080071d7
 80071a8:	080071d7 	.word	0x080071d7
 80071ac:	080071cf 	.word	0x080071cf
    {
      case UART_CLOCKSOURCE_PCLK1:
        pclk = HAL_RCC_GetPCLK1Freq();
 80071b0:	f7ff f9a8 	bl	8006504 <HAL_RCC_GetPCLK1Freq>
 80071b4:	61f8      	str	r0, [r7, #28]
        break;
 80071b6:	e014      	b.n	80071e2 <UART_SetConfig+0x39e>
      case UART_CLOCKSOURCE_PCLK2:
        pclk = HAL_RCC_GetPCLK2Freq();
 80071b8:	f7ff f9ba 	bl	8006530 <HAL_RCC_GetPCLK2Freq>
 80071bc:	61f8      	str	r0, [r7, #28]
        break;
 80071be:	e010      	b.n	80071e2 <UART_SetConfig+0x39e>
      case UART_CLOCKSOURCE_HSI:
        pclk = (uint32_t) HSI_VALUE;
 80071c0:	4b4c      	ldr	r3, [pc, #304]	@ (80072f4 <UART_SetConfig+0x4b0>)
 80071c2:	61fb      	str	r3, [r7, #28]
        break;
 80071c4:	e00d      	b.n	80071e2 <UART_SetConfig+0x39e>
      case UART_CLOCKSOURCE_SYSCLK:
        pclk = HAL_RCC_GetSysClockFreq();
 80071c6:	f7ff f905 	bl	80063d4 <HAL_RCC_GetSysClockFreq>
 80071ca:	61f8      	str	r0, [r7, #28]
        break;
 80071cc:	e009      	b.n	80071e2 <UART_SetConfig+0x39e>
      case UART_CLOCKSOURCE_LSE:
        pclk = (uint32_t) LSE_VALUE;
 80071ce:	f44f 4300 	mov.w	r3, #32768	@ 0x8000
 80071d2:	61fb      	str	r3, [r7, #28]
        break;
 80071d4:	e005      	b.n	80071e2 <UART_SetConfig+0x39e>
      default:
        pclk = 0U;
 80071d6:	2300      	movs	r3, #0
 80071d8:	61fb      	str	r3, [r7, #28]
        ret = HAL_ERROR;
 80071da:	2301      	movs	r3, #1
 80071dc:	f887 3022 	strb.w	r3, [r7, #34]	@ 0x22
        break;
 80071e0:	bf00      	nop
    }

    /* USARTDIV must be greater than or equal to 0d16 */
    if (pclk != 0U)
 80071e2:	69fb      	ldr	r3, [r7, #28]
 80071e4:	2b00      	cmp	r3, #0
 80071e6:	d077      	beq.n	80072d8 <UART_SetConfig+0x494>
    {
#if defined(USART_PRESC_PRESCALER)
      usartdiv = (uint32_t)(UART_DIV_SAMPLING8(pclk, huart->Init.BaudRate, huart->Init.ClockPrescaler));
#else
      usartdiv = (uint32_t)(UART_DIV_SAMPLING8(pclk, huart->Init.BaudRate));
 80071e8:	69fb      	ldr	r3, [r7, #28]
 80071ea:	005a      	lsls	r2, r3, #1
 80071ec:	68fb      	ldr	r3, [r7, #12]
 80071ee:	685b      	ldr	r3, [r3, #4]
 80071f0:	085b      	lsrs	r3, r3, #1
 80071f2:	441a      	add	r2, r3
 80071f4:	68fb      	ldr	r3, [r7, #12]
 80071f6:	685b      	ldr	r3, [r3, #4]
 80071f8:	fbb2 f3f3 	udiv	r3, r2, r3
 80071fc:	61bb      	str	r3, [r7, #24]
#endif /* USART_PRESC_PRESCALER */
      if ((usartdiv >= UART_BRR_MIN) && (usartdiv <= UART_BRR_MAX))
 80071fe:	69bb      	ldr	r3, [r7, #24]
 8007200:	2b0f      	cmp	r3, #15
 8007202:	d916      	bls.n	8007232 <UART_SetConfig+0x3ee>
 8007204:	69bb      	ldr	r3, [r7, #24]
 8007206:	f5b3 3f80 	cmp.w	r3, #65536	@ 0x10000
 800720a:	d212      	bcs.n	8007232 <UART_SetConfig+0x3ee>
      {
        brrtemp = (uint16_t)(usartdiv & 0xFFF0U);
 800720c:	69bb      	ldr	r3, [r7, #24]
 800720e:	b29b      	uxth	r3, r3
 8007210:	f023 030f 	bic.w	r3, r3, #15
 8007214:	82fb      	strh	r3, [r7, #22]
        brrtemp |= (uint16_t)((usartdiv & (uint16_t)0x000FU) >> 1U);
 8007216:	69bb      	ldr	r3, [r7, #24]
 8007218:	085b      	lsrs	r3, r3, #1
 800721a:	b29b      	uxth	r3, r3
 800721c:	f003 0307 	and.w	r3, r3, #7
 8007220:	b29a      	uxth	r2, r3
 8007222:	8afb      	ldrh	r3, [r7, #22]
 8007224:	4313      	orrs	r3, r2
 8007226:	82fb      	strh	r3, [r7, #22]
        huart->Instance->BRR = brrtemp;
 8007228:	68fb      	ldr	r3, [r7, #12]
 800722a:	681b      	ldr	r3, [r3, #0]
 800722c:	8afa      	ldrh	r2, [r7, #22]
 800722e:	60da      	str	r2, [r3, #12]
 8007230:	e052      	b.n	80072d8 <UART_SetConfig+0x494>
      }
      else
      {
        ret = HAL_ERROR;
 8007232:	2301      	movs	r3, #1
 8007234:	f887 3022 	strb.w	r3, [r7, #34]	@ 0x22
 8007238:	e04e      	b.n	80072d8 <UART_SetConfig+0x494>
      }
    }
  }
  else
  {
    switch (clocksource)
 800723a:	f897 3023 	ldrb.w	r3, [r7, #35]	@ 0x23
 800723e:	2b08      	cmp	r3, #8
 8007240:	d827      	bhi.n	8007292 <UART_SetConfig+0x44e>
 8007242:	a201      	add	r2, pc, #4	@ (adr r2, 8007248 <UART_SetConfig+0x404>)
 8007244:	f852 f023 	ldr.w	pc, [r2, r3, lsl #2]
 8007248:	0800726d 	.word	0x0800726d
 800724c:	08007275 	.word	0x08007275
 8007250:	0800727d 	.word	0x0800727d
 8007254:	08007293 	.word	0x08007293
 8007258:	08007283 	.word	0x08007283
 800725c:	08007293 	.word	0x08007293
 8007260:	08007293 	.word	0x08007293
 8007264:	08007293 	.word	0x08007293
 8007268:	0800728b 	.word	0x0800728b
    {
      case UART_CLOCKSOURCE_PCLK1:
        pclk = HAL_RCC_GetPCLK1Freq();
 800726c:	f7ff f94a 	bl	8006504 <HAL_RCC_GetPCLK1Freq>
 8007270:	61f8      	str	r0, [r7, #28]
        break;
 8007272:	e014      	b.n	800729e <UART_SetConfig+0x45a>
      case UART_CLOCKSOURCE_PCLK2:
        pclk = HAL_RCC_GetPCLK2Freq();
 8007274:	f7ff f95c 	bl	8006530 <HAL_RCC_GetPCLK2Freq>
 8007278:	61f8      	str	r0, [r7, #28]
        break;
 800727a:	e010      	b.n	800729e <UART_SetConfig+0x45a>
      case UART_CLOCKSOURCE_HSI:
        pclk = (uint32_t) HSI_VALUE;
 800727c:	4b1d      	ldr	r3, [pc, #116]	@ (80072f4 <UART_SetConfig+0x4b0>)
 800727e:	61fb      	str	r3, [r7, #28]
        break;
 8007280:	e00d      	b.n	800729e <UART_SetConfig+0x45a>
      case UART_CLOCKSOURCE_SYSCLK:
        pclk = HAL_RCC_GetSysClockFreq();
 8007282:	f7ff f8a7 	bl	80063d4 <HAL_RCC_GetSysClockFreq>
 8007286:	61f8      	str	r0, [r7, #28]
        break;
 8007288:	e009      	b.n	800729e <UART_SetConfig+0x45a>
      case UART_CLOCKSOURCE_LSE:
        pclk = (uint32_t) LSE_VALUE;
 800728a:	f44f 4300 	mov.w	r3, #32768	@ 0x8000
 800728e:	61fb      	str	r3, [r7, #28]
        break;
 8007290:	e005      	b.n	800729e <UART_SetConfig+0x45a>
      default:
        pclk = 0U;
 8007292:	2300      	movs	r3, #0
 8007294:	61fb      	str	r3, [r7, #28]
        ret = HAL_ERROR;
 8007296:	2301      	movs	r3, #1
 8007298:	f887 3022 	strb.w	r3, [r7, #34]	@ 0x22
        break;
 800729c:	bf00      	nop
    }

    if (pclk != 0U)
 800729e:	69fb      	ldr	r3, [r7, #28]
 80072a0:	2b00      	cmp	r3, #0
 80072a2:	d019      	beq.n	80072d8 <UART_SetConfig+0x494>
    {
      /* USARTDIV must be greater than or equal to 0d16 */
#if defined(USART_PRESC_PRESCALER)
      usartdiv = (uint32_t)(UART_DIV_SAMPLING16(pclk, huart->Init.BaudRate, huart->Init.ClockPrescaler));
#else
      usartdiv = (uint32_t)(UART_DIV_SAMPLING16(pclk, huart->Init.BaudRate));
 80072a4:	68fb      	ldr	r3, [r7, #12]
 80072a6:	685b      	ldr	r3, [r3, #4]
 80072a8:	085a      	lsrs	r2, r3, #1
 80072aa:	69fb      	ldr	r3, [r7, #28]
 80072ac:	441a      	add	r2, r3
 80072ae:	68fb      	ldr	r3, [r7, #12]
 80072b0:	685b      	ldr	r3, [r3, #4]
 80072b2:	fbb2 f3f3 	udiv	r3, r2, r3
 80072b6:	61bb      	str	r3, [r7, #24]
#endif /* USART_PRESC_PRESCALER */
      if ((usartdiv >= UART_BRR_MIN) && (usartdiv <= UART_BRR_MAX))
 80072b8:	69bb      	ldr	r3, [r7, #24]
 80072ba:	2b0f      	cmp	r3, #15
 80072bc:	d909      	bls.n	80072d2 <UART_SetConfig+0x48e>
 80072be:	69bb      	ldr	r3, [r7, #24]
 80072c0:	f5b3 3f80 	cmp.w	r3, #65536	@ 0x10000
 80072c4:	d205      	bcs.n	80072d2 <UART_SetConfig+0x48e>
      {
        huart->Instance->BRR = (uint16_t)usartdiv;
 80072c6:	69bb      	ldr	r3, [r7, #24]
 80072c8:	b29a      	uxth	r2, r3
 80072ca:	68fb      	ldr	r3, [r7, #12]
 80072cc:	681b      	ldr	r3, [r3, #0]
 80072ce:	60da      	str	r2, [r3, #12]
 80072d0:	e002      	b.n	80072d8 <UART_SetConfig+0x494>
      }
      else
      {
        ret = HAL_ERROR;
 80072d2:	2301      	movs	r3, #1
 80072d4:	f887 3022 	strb.w	r3, [r7, #34]	@ 0x22
  huart->NbTxDataToProcess = 1;
  huart->NbRxDataToProcess = 1;
#endif /* USART_CR1_FIFOEN */

  /* Clear ISR function pointers */
  huart->RxISR = NULL;
 80072d8:	68fb      	ldr	r3, [r7, #12]
 80072da:	2200      	movs	r2, #0
 80072dc:	669a      	str	r2, [r3, #104]	@ 0x68
  huart->TxISR = NULL;
 80072de:	68fb      	ldr	r3, [r7, #12]
 80072e0:	2200      	movs	r2, #0
 80072e2:	66da      	str	r2, [r3, #108]	@ 0x6c

  return ret;
 80072e4:	f897 3022 	ldrb.w	r3, [r7, #34]	@ 0x22
}
 80072e8:	4618      	mov	r0, r3
 80072ea:	3728      	adds	r7, #40	@ 0x28
 80072ec:	46bd      	mov	sp, r7
 80072ee:	e8bd 8fb0 	ldmia.w	sp!, {r4, r5, r7, r8, r9, sl, fp, pc}
 80072f2:	bf00      	nop
 80072f4:	00f42400 	.word	0x00f42400

080072f8 <UART_AdvFeatureConfig>:
  * @brief Configure the UART peripheral advanced features.
  * @param huart UART handle.
  * @retval None
  */
void UART_AdvFeatureConfig(UART_HandleTypeDef *huart)
{
 80072f8:	b480      	push	{r7}
 80072fa:	b083      	sub	sp, #12
 80072fc:	af00      	add	r7, sp, #0
 80072fe:	6078      	str	r0, [r7, #4]
  /* Check whether the set of advanced features to configure is properly set */
  assert_param(IS_UART_ADVFEATURE_INIT(huart->AdvancedInit.AdvFeatureInit));

  /* if required, configure RX/TX pins swap */
  if (HAL_IS_BIT_SET(huart->AdvancedInit.AdvFeatureInit, UART_ADVFEATURE_SWAP_INIT))
 8007300:	687b      	ldr	r3, [r7, #4]
 8007302:	6a5b      	ldr	r3, [r3, #36]	@ 0x24
 8007304:	f003 0308 	and.w	r3, r3, #8
 8007308:	2b00      	cmp	r3, #0
 800730a:	d00a      	beq.n	8007322 <UART_AdvFeatureConfig+0x2a>
  {
    assert_param(IS_UART_ADVFEATURE_SWAP(huart->AdvancedInit.Swap));
    MODIFY_REG(huart->Instance->CR2, USART_CR2_SWAP, huart->AdvancedInit.Swap);
 800730c:	687b      	ldr	r3, [r7, #4]
 800730e:	681b      	ldr	r3, [r3, #0]
 8007310:	685b      	ldr	r3, [r3, #4]
 8007312:	f423 4100 	bic.w	r1, r3, #32768	@ 0x8000
 8007316:	687b      	ldr	r3, [r7, #4]
 8007318:	6b5a      	ldr	r2, [r3, #52]	@ 0x34
 800731a:	687b      	ldr	r3, [r7, #4]
 800731c:	681b      	ldr	r3, [r3, #0]
 800731e:	430a      	orrs	r2, r1
 8007320:	605a      	str	r2, [r3, #4]
  }

  /* if required, configure TX pin active level inversion */
  if (HAL_IS_BIT_SET(huart->AdvancedInit.AdvFeatureInit, UART_ADVFEATURE_TXINVERT_INIT))
 8007322:	687b      	ldr	r3, [r7, #4]
 8007324:	6a5b      	ldr	r3, [r3, #36]	@ 0x24
 8007326:	f003 0301 	and.w	r3, r3, #1
 800732a:	2b00      	cmp	r3, #0
 800732c:	d00a      	beq.n	8007344 <UART_AdvFeatureConfig+0x4c>
  {
    assert_param(IS_UART_ADVFEATURE_TXINV(huart->AdvancedInit.TxPinLevelInvert));
    MODIFY_REG(huart->Instance->CR2, USART_CR2_TXINV, huart->AdvancedInit.TxPinLevelInvert);
 800732e:	687b      	ldr	r3, [r7, #4]
 8007330:	681b      	ldr	r3, [r3, #0]
 8007332:	685b      	ldr	r3, [r3, #4]
 8007334:	f423 3100 	bic.w	r1, r3, #131072	@ 0x20000
 8007338:	687b      	ldr	r3, [r7, #4]
 800733a:	6a9a      	ldr	r2, [r3, #40]	@ 0x28
 800733c:	687b      	ldr	r3, [r7, #4]
 800733e:	681b      	ldr	r3, [r3, #0]
 8007340:	430a      	orrs	r2, r1
 8007342:	605a      	str	r2, [r3, #4]
  }

  /* if required, configure RX pin active level inversion */
  if (HAL_IS_BIT_SET(huart->AdvancedInit.AdvFeatureInit, UART_ADVFEATURE_RXINVERT_INIT))
 8007344:	687b      	ldr	r3, [r7, #4]
 8007346:	6a5b      	ldr	r3, [r3, #36]	@ 0x24
 8007348:	f003 0302 	and.w	r3, r3, #2
 800734c:	2b00      	cmp	r3, #0
 800734e:	d00a      	beq.n	8007366 <UART_AdvFeatureConfig+0x6e>
  {
    assert_param(IS_UART_ADVFEATURE_RXINV(huart->AdvancedInit.RxPinLevelInvert));
    MODIFY_REG(huart->Instance->CR2, USART_CR2_RXINV, huart->AdvancedInit.RxPinLevelInvert);
 8007350:	687b      	ldr	r3, [r7, #4]
 8007352:	681b      	ldr	r3, [r3, #0]
 8007354:	685b      	ldr	r3, [r3, #4]
 8007356:	f423 3180 	bic.w	r1, r3, #65536	@ 0x10000
 800735a:	687b      	ldr	r3, [r7, #4]
 800735c:	6ada      	ldr	r2, [r3, #44]	@ 0x2c
 800735e:	687b      	ldr	r3, [r7, #4]
 8007360:	681b      	ldr	r3, [r3, #0]
 8007362:	430a      	orrs	r2, r1
 8007364:	605a      	str	r2, [r3, #4]
  }

  /* if required, configure data inversion */
  if (HAL_IS_BIT_SET(huart->AdvancedInit.AdvFeatureInit, UART_ADVFEATURE_DATAINVERT_INIT))
 8007366:	687b      	ldr	r3, [r7, #4]
 8007368:	6a5b      	ldr	r3, [r3, #36]	@ 0x24
 800736a:	f003 0304 	and.w	r3, r3, #4
 800736e:	2b00      	cmp	r3, #0
 8007370:	d00a      	beq.n	8007388 <UART_AdvFeatureConfig+0x90>
  {
    assert_param(IS_UART_ADVFEATURE_DATAINV(huart->AdvancedInit.DataInvert));
    MODIFY_REG(huart->Instance->CR2, USART_CR2_DATAINV, huart->AdvancedInit.DataInvert);
 8007372:	687b      	ldr	r3, [r7, #4]
 8007374:	681b      	ldr	r3, [r3, #0]
 8007376:	685b      	ldr	r3, [r3, #4]
 8007378:	f423 2180 	bic.w	r1, r3, #262144	@ 0x40000
 800737c:	687b      	ldr	r3, [r7, #4]
 800737e:	6b1a      	ldr	r2, [r3, #48]	@ 0x30
 8007380:	687b      	ldr	r3, [r7, #4]
 8007382:	681b      	ldr	r3, [r3, #0]
 8007384:	430a      	orrs	r2, r1
 8007386:	605a      	str	r2, [r3, #4]
  }

  /* if required, configure RX overrun detection disabling */
  if (HAL_IS_BIT_SET(huart->AdvancedInit.AdvFeatureInit, UART_ADVFEATURE_RXOVERRUNDISABLE_INIT))
 8007388:	687b      	ldr	r3, [r7, #4]
 800738a:	6a5b      	ldr	r3, [r3, #36]	@ 0x24
 800738c:	f003 0310 	and.w	r3, r3, #16
 8007390:	2b00      	cmp	r3, #0
 8007392:	d00a      	beq.n	80073aa <UART_AdvFeatureConfig+0xb2>
  {
    assert_param(IS_UART_OVERRUN(huart->AdvancedInit.OverrunDisable));
    MODIFY_REG(huart->Instance->CR3, USART_CR3_OVRDIS, huart->AdvancedInit.OverrunDisable);
 8007394:	687b      	ldr	r3, [r7, #4]
 8007396:	681b      	ldr	r3, [r3, #0]
 8007398:	689b      	ldr	r3, [r3, #8]
 800739a:	f423 5180 	bic.w	r1, r3, #4096	@ 0x1000
 800739e:	687b      	ldr	r3, [r7, #4]
 80073a0:	6b9a      	ldr	r2, [r3, #56]	@ 0x38
 80073a2:	687b      	ldr	r3, [r7, #4]
 80073a4:	681b      	ldr	r3, [r3, #0]
 80073a6:	430a      	orrs	r2, r1
 80073a8:	609a      	str	r2, [r3, #8]
  }

  /* if required, configure DMA disabling on reception error */
  if (HAL_IS_BIT_SET(huart->AdvancedInit.AdvFeatureInit, UART_ADVFEATURE_DMADISABLEONERROR_INIT))
 80073aa:	687b      	ldr	r3, [r7, #4]
 80073ac:	6a5b      	ldr	r3, [r3, #36]	@ 0x24
 80073ae:	f003 0320 	and.w	r3, r3, #32
 80073b2:	2b00      	cmp	r3, #0
 80073b4:	d00a      	beq.n	80073cc <UART_AdvFeatureConfig+0xd4>
  {
    assert_param(IS_UART_ADVFEATURE_DMAONRXERROR(huart->AdvancedInit.DMADisableonRxError));
    MODIFY_REG(huart->Instance->CR3, USART_CR3_DDRE, huart->AdvancedInit.DMADisableonRxError);
 80073b6:	687b      	ldr	r3, [r7, #4]
 80073b8:	681b      	ldr	r3, [r3, #0]
 80073ba:	689b      	ldr	r3, [r3, #8]
 80073bc:	f423 5100 	bic.w	r1, r3, #8192	@ 0x2000
 80073c0:	687b      	ldr	r3, [r7, #4]
 80073c2:	6bda      	ldr	r2, [r3, #60]	@ 0x3c
 80073c4:	687b      	ldr	r3, [r7, #4]
 80073c6:	681b      	ldr	r3, [r3, #0]
 80073c8:	430a      	orrs	r2, r1
 80073ca:	609a      	str	r2, [r3, #8]
  }

  /* if required, configure auto Baud rate detection scheme */
  if (HAL_IS_BIT_SET(huart->AdvancedInit.AdvFeatureInit, UART_ADVFEATURE_AUTOBAUDRATE_INIT))
 80073cc:	687b      	ldr	r3, [r7, #4]
 80073ce:	6a5b      	ldr	r3, [r3, #36]	@ 0x24
 80073d0:	f003 0340 	and.w	r3, r3, #64	@ 0x40
 80073d4:	2b00      	cmp	r3, #0
 80073d6:	d01a      	beq.n	800740e <UART_AdvFeatureConfig+0x116>
  {
    assert_param(IS_USART_AUTOBAUDRATE_DETECTION_INSTANCE(huart->Instance));
    assert_param(IS_UART_ADVFEATURE_AUTOBAUDRATE(huart->AdvancedInit.AutoBaudRateEnable));
    MODIFY_REG(huart->Instance->CR2, USART_CR2_ABREN, huart->AdvancedInit.AutoBaudRateEnable);
 80073d8:	687b      	ldr	r3, [r7, #4]
 80073da:	681b      	ldr	r3, [r3, #0]
 80073dc:	685b      	ldr	r3, [r3, #4]
 80073de:	f423 1180 	bic.w	r1, r3, #1048576	@ 0x100000
 80073e2:	687b      	ldr	r3, [r7, #4]
 80073e4:	6c1a      	ldr	r2, [r3, #64]	@ 0x40
 80073e6:	687b      	ldr	r3, [r7, #4]
 80073e8:	681b      	ldr	r3, [r3, #0]
 80073ea:	430a      	orrs	r2, r1
 80073ec:	605a      	str	r2, [r3, #4]
    /* set auto Baudrate detection parameters if detection is enabled */
    if (huart->AdvancedInit.AutoBaudRateEnable == UART_ADVFEATURE_AUTOBAUDRATE_ENABLE)
 80073ee:	687b      	ldr	r3, [r7, #4]
 80073f0:	6c1b      	ldr	r3, [r3, #64]	@ 0x40
 80073f2:	f5b3 1f80 	cmp.w	r3, #1048576	@ 0x100000
 80073f6:	d10a      	bne.n	800740e <UART_AdvFeatureConfig+0x116>
    {
      assert_param(IS_UART_ADVFEATURE_AUTOBAUDRATEMODE(huart->AdvancedInit.AutoBaudRateMode));
      MODIFY_REG(huart->Instance->CR2, USART_CR2_ABRMODE, huart->AdvancedInit.AutoBaudRateMode);
 80073f8:	687b      	ldr	r3, [r7, #4]
 80073fa:	681b      	ldr	r3, [r3, #0]
 80073fc:	685b      	ldr	r3, [r3, #4]
 80073fe:	f423 01c0 	bic.w	r1, r3, #6291456	@ 0x600000
 8007402:	687b      	ldr	r3, [r7, #4]
 8007404:	6c5a      	ldr	r2, [r3, #68]	@ 0x44
 8007406:	687b      	ldr	r3, [r7, #4]
 8007408:	681b      	ldr	r3, [r3, #0]
 800740a:	430a      	orrs	r2, r1
 800740c:	605a      	str	r2, [r3, #4]
    }
  }

  /* if required, configure MSB first on communication line */
  if (HAL_IS_BIT_SET(huart->AdvancedInit.AdvFeatureInit, UART_ADVFEATURE_MSBFIRST_INIT))
 800740e:	687b      	ldr	r3, [r7, #4]
 8007410:	6a5b      	ldr	r3, [r3, #36]	@ 0x24
 8007412:	f003 0380 	and.w	r3, r3, #128	@ 0x80
 8007416:	2b00      	cmp	r3, #0
 8007418:	d00a      	beq.n	8007430 <UART_AdvFeatureConfig+0x138>
  {
    assert_param(IS_UART_ADVFEATURE_MSBFIRST(huart->AdvancedInit.MSBFirst));
    MODIFY_REG(huart->Instance->CR2, USART_CR2_MSBFIRST, huart->AdvancedInit.MSBFirst);
 800741a:	687b      	ldr	r3, [r7, #4]
 800741c:	681b      	ldr	r3, [r3, #0]
 800741e:	685b      	ldr	r3, [r3, #4]
 8007420:	f423 2100 	bic.w	r1, r3, #524288	@ 0x80000
 8007424:	687b      	ldr	r3, [r7, #4]
 8007426:	6c9a      	ldr	r2, [r3, #72]	@ 0x48
 8007428:	687b      	ldr	r3, [r7, #4]
 800742a:	681b      	ldr	r3, [r3, #0]
 800742c:	430a      	orrs	r2, r1
 800742e:	605a      	str	r2, [r3, #4]
  }
}
 8007430:	bf00      	nop
 8007432:	370c      	adds	r7, #12
 8007434:	46bd      	mov	sp, r7
 8007436:	f85d 7b04 	ldr.w	r7, [sp], #4
 800743a:	4770      	bx	lr

0800743c <UART_CheckIdleState>:
  * @brief Check the UART Idle State.
  * @param huart UART handle.
  * @retval HAL status
  */
HAL_StatusTypeDef UART_CheckIdleState(UART_HandleTypeDef *huart)
{
 800743c:	b580      	push	{r7, lr}
 800743e:	b098      	sub	sp, #96	@ 0x60
 8007440:	af02      	add	r7, sp, #8
 8007442:	6078      	str	r0, [r7, #4]
  uint32_t tickstart;

  /* Initialize the UART ErrorCode */
  huart->ErrorCode = HAL_UART_ERROR_NONE;
 8007444:	687b      	ldr	r3, [r7, #4]
 8007446:	2200      	movs	r2, #0
 8007448:	f8c3 2084 	str.w	r2, [r3, #132]	@ 0x84

  /* Init tickstart for timeout management */
  tickstart = HAL_GetTick();
 800744c:	f7fc fdbe 	bl	8003fcc <HAL_GetTick>
 8007450:	6578      	str	r0, [r7, #84]	@ 0x54

  /* Check if the Transmitter is enabled */
  if ((huart->Instance->CR1 & USART_CR1_TE) == USART_CR1_TE)
 8007452:	687b      	ldr	r3, [r7, #4]
 8007454:	681b      	ldr	r3, [r3, #0]
 8007456:	681b      	ldr	r3, [r3, #0]
 8007458:	f003 0308 	and.w	r3, r3, #8
 800745c:	2b08      	cmp	r3, #8
 800745e:	d12e      	bne.n	80074be <UART_CheckIdleState+0x82>
  {
    /* Wait until TEACK flag is set */
    if (UART_WaitOnFlagUntilTimeout(huart, USART_ISR_TEACK, RESET, tickstart, HAL_UART_TIMEOUT_VALUE) != HAL_OK)
 8007460:	f06f 437e 	mvn.w	r3, #4261412864	@ 0xfe000000
 8007464:	9300      	str	r3, [sp, #0]
 8007466:	6d7b      	ldr	r3, [r7, #84]	@ 0x54
 8007468:	2200      	movs	r2, #0
 800746a:	f44f 1100 	mov.w	r1, #2097152	@ 0x200000
 800746e:	6878      	ldr	r0, [r7, #4]
 8007470:	f000 f88c 	bl	800758c <UART_WaitOnFlagUntilTimeout>
 8007474:	4603      	mov	r3, r0
 8007476:	2b00      	cmp	r3, #0
 8007478:	d021      	beq.n	80074be <UART_CheckIdleState+0x82>
    {
      /* Disable TXE interrupt for the interrupt process */
#if defined(USART_CR1_FIFOEN)
      ATOMIC_CLEAR_BIT(huart->Instance->CR1, (USART_CR1_TXEIE_TXFNFIE));
#else
      ATOMIC_CLEAR_BIT(huart->Instance->CR1, (USART_CR1_TXEIE));
 800747a:	687b      	ldr	r3, [r7, #4]
 800747c:	681b      	ldr	r3, [r3, #0]
 800747e:	63bb      	str	r3, [r7, #56]	@ 0x38
 */
__STATIC_FORCEINLINE uint32_t __LDREXW(volatile uint32_t *addr)
{
    uint32_t result;

   __ASM volatile ("ldrex %0, %1" : "=r" (result) : "Q" (*addr) );
 8007480:	6bbb      	ldr	r3, [r7, #56]	@ 0x38
 8007482:	e853 3f00 	ldrex	r3, [r3]
 8007486:	637b      	str	r3, [r7, #52]	@ 0x34
   return(result);
 8007488:	6b7b      	ldr	r3, [r7, #52]	@ 0x34
 800748a:	f023 0380 	bic.w	r3, r3, #128	@ 0x80
 800748e:	653b      	str	r3, [r7, #80]	@ 0x50
 8007490:	687b      	ldr	r3, [r7, #4]
 8007492:	681b      	ldr	r3, [r3, #0]
 8007494:	461a      	mov	r2, r3
 8007496:	6d3b      	ldr	r3, [r7, #80]	@ 0x50
 8007498:	647b      	str	r3, [r7, #68]	@ 0x44
 800749a:	643a      	str	r2, [r7, #64]	@ 0x40
 */
__STATIC_FORCEINLINE uint32_t __STREXW(uint32_t value, volatile uint32_t *addr)
{
   uint32_t result;

   __ASM volatile ("strex %0, %2, %1" : "=&r" (result), "=Q" (*addr) : "r" (value) );
 800749c:	6c39      	ldr	r1, [r7, #64]	@ 0x40
 800749e:	6c7a      	ldr	r2, [r7, #68]	@ 0x44
 80074a0:	e841 2300 	strex	r3, r2, [r1]
 80074a4:	63fb      	str	r3, [r7, #60]	@ 0x3c
   return(result);
 80074a6:	6bfb      	ldr	r3, [r7, #60]	@ 0x3c
 80074a8:	2b00      	cmp	r3, #0
 80074aa:	d1e6      	bne.n	800747a <UART_CheckIdleState+0x3e>
#endif /* USART_CR1_FIFOEN */

      huart->gState = HAL_UART_STATE_READY;
 80074ac:	687b      	ldr	r3, [r7, #4]
 80074ae:	2220      	movs	r2, #32
 80074b0:	67da      	str	r2, [r3, #124]	@ 0x7c

      __HAL_UNLOCK(huart);
 80074b2:	687b      	ldr	r3, [r7, #4]
 80074b4:	2200      	movs	r2, #0
 80074b6:	f883 2078 	strb.w	r2, [r3, #120]	@ 0x78

      /* Timeout occurred */
      return HAL_TIMEOUT;
 80074ba:	2303      	movs	r3, #3
 80074bc:	e062      	b.n	8007584 <UART_CheckIdleState+0x148>
    }
  }

  /* Check if the Receiver is enabled */
  if ((huart->Instance->CR1 & USART_CR1_RE) == USART_CR1_RE)
 80074be:	687b      	ldr	r3, [r7, #4]
 80074c0:	681b      	ldr	r3, [r3, #0]
 80074c2:	681b      	ldr	r3, [r3, #0]
 80074c4:	f003 0304 	and.w	r3, r3, #4
 80074c8:	2b04      	cmp	r3, #4
 80074ca:	d149      	bne.n	8007560 <UART_CheckIdleState+0x124>
  {
    /* Wait until REACK flag is set */
    if (UART_WaitOnFlagUntilTimeout(huart, USART_ISR_REACK, RESET, tickstart, HAL_UART_TIMEOUT_VALUE) != HAL_OK)
 80074cc:	f06f 437e 	mvn.w	r3, #4261412864	@ 0xfe000000
 80074d0:	9300      	str	r3, [sp, #0]
 80074d2:	6d7b      	ldr	r3, [r7, #84]	@ 0x54
 80074d4:	2200      	movs	r2, #0
 80074d6:	f44f 0180 	mov.w	r1, #4194304	@ 0x400000
 80074da:	6878      	ldr	r0, [r7, #4]
 80074dc:	f000 f856 	bl	800758c <UART_WaitOnFlagUntilTimeout>
 80074e0:	4603      	mov	r3, r0
 80074e2:	2b00      	cmp	r3, #0
 80074e4:	d03c      	beq.n	8007560 <UART_CheckIdleState+0x124>
      /* Disable RXNE, PE and ERR (Frame error, noise error, overrun error)
      interrupts for the interrupt process */
#if defined(USART_CR1_FIFOEN)
      ATOMIC_CLEAR_BIT(huart->Instance->CR1, (USART_CR1_RXNEIE_RXFNEIE | USART_CR1_PEIE));
#else
      ATOMIC_CLEAR_BIT(huart->Instance->CR1, (USART_CR1_RXNEIE | USART_CR1_PEIE));
 80074e6:	687b      	ldr	r3, [r7, #4]
 80074e8:	681b      	ldr	r3, [r3, #0]
 80074ea:	627b      	str	r3, [r7, #36]	@ 0x24
   __ASM volatile ("ldrex %0, %1" : "=r" (result) : "Q" (*addr) );
 80074ec:	6a7b      	ldr	r3, [r7, #36]	@ 0x24
 80074ee:	e853 3f00 	ldrex	r3, [r3]
 80074f2:	623b      	str	r3, [r7, #32]
   return(result);
 80074f4:	6a3b      	ldr	r3, [r7, #32]
 80074f6:	f423 7390 	bic.w	r3, r3, #288	@ 0x120
 80074fa:	64fb      	str	r3, [r7, #76]	@ 0x4c
 80074fc:	687b      	ldr	r3, [r7, #4]
 80074fe:	681b      	ldr	r3, [r3, #0]
 8007500:	461a      	mov	r2, r3
 8007502:	6cfb      	ldr	r3, [r7, #76]	@ 0x4c
 8007504:	633b      	str	r3, [r7, #48]	@ 0x30
 8007506:	62fa      	str	r2, [r7, #44]	@ 0x2c
   __ASM volatile ("strex %0, %2, %1" : "=&r" (result), "=Q" (*addr) : "r" (value) );
 8007508:	6af9      	ldr	r1, [r7, #44]	@ 0x2c
 800750a:	6b3a      	ldr	r2, [r7, #48]	@ 0x30
 800750c:	e841 2300 	strex	r3, r2, [r1]
 8007510:	62bb      	str	r3, [r7, #40]	@ 0x28
   return(result);
 8007512:	6abb      	ldr	r3, [r7, #40]	@ 0x28
 8007514:	2b00      	cmp	r3, #0
 8007516:	d1e6      	bne.n	80074e6 <UART_CheckIdleState+0xaa>
#endif /* USART_CR1_FIFOEN */
      ATOMIC_CLEAR_BIT(huart->Instance->CR3, USART_CR3_EIE);
 8007518:	687b      	ldr	r3, [r7, #4]
 800751a:	681b      	ldr	r3, [r3, #0]
 800751c:	3308      	adds	r3, #8
 800751e:	613b      	str	r3, [r7, #16]
   __ASM volatile ("ldrex %0, %1" : "=r" (result) : "Q" (*addr) );
 8007520:	693b      	ldr	r3, [r7, #16]
 8007522:	e853 3f00 	ldrex	r3, [r3]
 8007526:	60fb      	str	r3, [r7, #12]
   return(result);
 8007528:	68fb      	ldr	r3, [r7, #12]
 800752a:	f023 0301 	bic.w	r3, r3, #1
 800752e:	64bb      	str	r3, [r7, #72]	@ 0x48
 8007530:	687b      	ldr	r3, [r7, #4]
 8007532:	681b      	ldr	r3, [r3, #0]
 8007534:	3308      	adds	r3, #8
 8007536:	6cba      	ldr	r2, [r7, #72]	@ 0x48
 8007538:	61fa      	str	r2, [r7, #28]
 800753a:	61bb      	str	r3, [r7, #24]
   __ASM volatile ("strex %0, %2, %1" : "=&r" (result), "=Q" (*addr) : "r" (value) );
 800753c:	69b9      	ldr	r1, [r7, #24]
 800753e:	69fa      	ldr	r2, [r7, #28]
 8007540:	e841 2300 	strex	r3, r2, [r1]
 8007544:	617b      	str	r3, [r7, #20]
   return(result);
 8007546:	697b      	ldr	r3, [r7, #20]
 8007548:	2b00      	cmp	r3, #0
 800754a:	d1e5      	bne.n	8007518 <UART_CheckIdleState+0xdc>

      huart->RxState = HAL_UART_STATE_READY;
 800754c:	687b      	ldr	r3, [r7, #4]
 800754e:	2220      	movs	r2, #32
 8007550:	f8c3 2080 	str.w	r2, [r3, #128]	@ 0x80

      __HAL_UNLOCK(huart);
 8007554:	687b      	ldr	r3, [r7, #4]
 8007556:	2200      	movs	r2, #0
 8007558:	f883 2078 	strb.w	r2, [r3, #120]	@ 0x78

      /* Timeout occurred */
      return HAL_TIMEOUT;
 800755c:	2303      	movs	r3, #3
 800755e:	e011      	b.n	8007584 <UART_CheckIdleState+0x148>
    }
  }

  /* Initialize the UART State */
  huart->gState = HAL_UART_STATE_READY;
 8007560:	687b      	ldr	r3, [r7, #4]
 8007562:	2220      	movs	r2, #32
 8007564:	67da      	str	r2, [r3, #124]	@ 0x7c
  huart->RxState = HAL_UART_STATE_READY;
 8007566:	687b      	ldr	r3, [r7, #4]
 8007568:	2220      	movs	r2, #32
 800756a:	f8c3 2080 	str.w	r2, [r3, #128]	@ 0x80
  huart->ReceptionType = HAL_UART_RECEPTION_STANDARD;
 800756e:	687b      	ldr	r3, [r7, #4]
 8007570:	2200      	movs	r2, #0
 8007572:	661a      	str	r2, [r3, #96]	@ 0x60
  huart->RxEventType = HAL_UART_RXEVENT_TC;
 8007574:	687b      	ldr	r3, [r7, #4]
 8007576:	2200      	movs	r2, #0
 8007578:	665a      	str	r2, [r3, #100]	@ 0x64

  __HAL_UNLOCK(huart);
 800757a:	687b      	ldr	r3, [r7, #4]
 800757c:	2200      	movs	r2, #0
 800757e:	f883 2078 	strb.w	r2, [r3, #120]	@ 0x78

  return HAL_OK;
 8007582:	2300      	movs	r3, #0
}
 8007584:	4618      	mov	r0, r3
 8007586:	3758      	adds	r7, #88	@ 0x58
 8007588:	46bd      	mov	sp, r7
 800758a:	bd80      	pop	{r7, pc}

0800758c <UART_WaitOnFlagUntilTimeout>:
  * @param Timeout   Timeout duration
  * @retval HAL status
  */
HAL_StatusTypeDef UART_WaitOnFlagUntilTimeout(UART_HandleTypeDef *huart, uint32_t Flag, FlagStatus Status,
                                              uint32_t Tickstart, uint32_t Timeout)
{
 800758c:	b580      	push	{r7, lr}
 800758e:	b084      	sub	sp, #16
 8007590:	af00      	add	r7, sp, #0
 8007592:	60f8      	str	r0, [r7, #12]
 8007594:	60b9      	str	r1, [r7, #8]
 8007596:	603b      	str	r3, [r7, #0]
 8007598:	4613      	mov	r3, r2
 800759a:	71fb      	strb	r3, [r7, #7]
  /* Wait until flag is set */
  while ((__HAL_UART_GET_FLAG(huart, Flag) ? SET : RESET) == Status)
 800759c:	e04f      	b.n	800763e <UART_WaitOnFlagUntilTimeout+0xb2>
  {
    /* Check for the Timeout */
    if (Timeout != HAL_MAX_DELAY)
 800759e:	69bb      	ldr	r3, [r7, #24]
 80075a0:	f1b3 3fff 	cmp.w	r3, #4294967295
 80075a4:	d04b      	beq.n	800763e <UART_WaitOnFlagUntilTimeout+0xb2>
    {
      if (((HAL_GetTick() - Tickstart) > Timeout) || (Timeout == 0U))
 80075a6:	f7fc fd11 	bl	8003fcc <HAL_GetTick>
 80075aa:	4602      	mov	r2, r0
 80075ac:	683b      	ldr	r3, [r7, #0]
 80075ae:	1ad3      	subs	r3, r2, r3
 80075b0:	69ba      	ldr	r2, [r7, #24]
 80075b2:	429a      	cmp	r2, r3
 80075b4:	d302      	bcc.n	80075bc <UART_WaitOnFlagUntilTimeout+0x30>
 80075b6:	69bb      	ldr	r3, [r7, #24]
 80075b8:	2b00      	cmp	r3, #0
 80075ba:	d101      	bne.n	80075c0 <UART_WaitOnFlagUntilTimeout+0x34>
      {

        return HAL_TIMEOUT;
 80075bc:	2303      	movs	r3, #3
 80075be:	e04e      	b.n	800765e <UART_WaitOnFlagUntilTimeout+0xd2>
      }

      if ((READ_BIT(huart->Instance->CR1, USART_CR1_RE) != 0U) && (Flag != UART_FLAG_TXE) && (Flag != UART_FLAG_TC))
 80075c0:	68fb      	ldr	r3, [r7, #12]
 80075c2:	681b      	ldr	r3, [r3, #0]
 80075c4:	681b      	ldr	r3, [r3, #0]
 80075c6:	f003 0304 	and.w	r3, r3, #4
 80075ca:	2b00      	cmp	r3, #0
 80075cc:	d037      	beq.n	800763e <UART_WaitOnFlagUntilTimeout+0xb2>
 80075ce:	68bb      	ldr	r3, [r7, #8]
 80075d0:	2b80      	cmp	r3, #128	@ 0x80
 80075d2:	d034      	beq.n	800763e <UART_WaitOnFlagUntilTimeout+0xb2>
 80075d4:	68bb      	ldr	r3, [r7, #8]
 80075d6:	2b40      	cmp	r3, #64	@ 0x40
 80075d8:	d031      	beq.n	800763e <UART_WaitOnFlagUntilTimeout+0xb2>
      {
        if (__HAL_UART_GET_FLAG(huart, UART_FLAG_ORE) == SET)
 80075da:	68fb      	ldr	r3, [r7, #12]
 80075dc:	681b      	ldr	r3, [r3, #0]
 80075de:	69db      	ldr	r3, [r3, #28]
 80075e0:	f003 0308 	and.w	r3, r3, #8
 80075e4:	2b08      	cmp	r3, #8
 80075e6:	d110      	bne.n	800760a <UART_WaitOnFlagUntilTimeout+0x7e>
        {
          /* Clear Overrun Error flag*/
          __HAL_UART_CLEAR_FLAG(huart, UART_CLEAR_OREF);
 80075e8:	68fb      	ldr	r3, [r7, #12]
 80075ea:	681b      	ldr	r3, [r3, #0]
 80075ec:	2208      	movs	r2, #8
 80075ee:	621a      	str	r2, [r3, #32]

          /* Blocking error : transfer is aborted
          Set the UART state ready to be able to start again the process,
          Disable Rx Interrupts if ongoing */
          UART_EndRxTransfer(huart);
 80075f0:	68f8      	ldr	r0, [r7, #12]
 80075f2:	f000 f838 	bl	8007666 <UART_EndRxTransfer>

          huart->ErrorCode = HAL_UART_ERROR_ORE;
 80075f6:	68fb      	ldr	r3, [r7, #12]
 80075f8:	2208      	movs	r2, #8
 80075fa:	f8c3 2084 	str.w	r2, [r3, #132]	@ 0x84

          /* Process Unlocked */
          __HAL_UNLOCK(huart);
 80075fe:	68fb      	ldr	r3, [r7, #12]
 8007600:	2200      	movs	r2, #0
 8007602:	f883 2078 	strb.w	r2, [r3, #120]	@ 0x78

          return HAL_ERROR;
 8007606:	2301      	movs	r3, #1
 8007608:	e029      	b.n	800765e <UART_WaitOnFlagUntilTimeout+0xd2>
        }
        if (__HAL_UART_GET_FLAG(huart, UART_FLAG_RTOF) == SET)
 800760a:	68fb      	ldr	r3, [r7, #12]
 800760c:	681b      	ldr	r3, [r3, #0]
 800760e:	69db      	ldr	r3, [r3, #28]
 8007610:	f403 6300 	and.w	r3, r3, #2048	@ 0x800
 8007614:	f5b3 6f00 	cmp.w	r3, #2048	@ 0x800
 8007618:	d111      	bne.n	800763e <UART_WaitOnFlagUntilTimeout+0xb2>
        {
          /* Clear Receiver Timeout flag*/
          __HAL_UART_CLEAR_FLAG(huart, UART_CLEAR_RTOF);
 800761a:	68fb      	ldr	r3, [r7, #12]
 800761c:	681b      	ldr	r3, [r3, #0]
 800761e:	f44f 6200 	mov.w	r2, #2048	@ 0x800
 8007622:	621a      	str	r2, [r3, #32]

          /* Blocking error : transfer is aborted
          Set the UART state ready to be able to start again the process,
          Disable Rx Interrupts if ongoing */
          UART_EndRxTransfer(huart);
 8007624:	68f8      	ldr	r0, [r7, #12]
 8007626:	f000 f81e 	bl	8007666 <UART_EndRxTransfer>

          huart->ErrorCode = HAL_UART_ERROR_RTO;
 800762a:	68fb      	ldr	r3, [r7, #12]
 800762c:	2220      	movs	r2, #32
 800762e:	f8c3 2084 	str.w	r2, [r3, #132]	@ 0x84

          /* Process Unlocked */
          __HAL_UNLOCK(huart);
 8007632:	68fb      	ldr	r3, [r7, #12]
 8007634:	2200      	movs	r2, #0
 8007636:	f883 2078 	strb.w	r2, [r3, #120]	@ 0x78

          return HAL_TIMEOUT;
 800763a:	2303      	movs	r3, #3
 800763c:	e00f      	b.n	800765e <UART_WaitOnFlagUntilTimeout+0xd2>
  while ((__HAL_UART_GET_FLAG(huart, Flag) ? SET : RESET) == Status)
 800763e:	68fb      	ldr	r3, [r7, #12]
 8007640:	681b      	ldr	r3, [r3, #0]
 8007642:	69da      	ldr	r2, [r3, #28]
 8007644:	68bb      	ldr	r3, [r7, #8]
 8007646:	4013      	ands	r3, r2
 8007648:	68ba      	ldr	r2, [r7, #8]
 800764a:	429a      	cmp	r2, r3
 800764c:	bf0c      	ite	eq
 800764e:	2301      	moveq	r3, #1
 8007650:	2300      	movne	r3, #0
 8007652:	b2db      	uxtb	r3, r3
 8007654:	461a      	mov	r2, r3
 8007656:	79fb      	ldrb	r3, [r7, #7]
 8007658:	429a      	cmp	r2, r3
 800765a:	d0a0      	beq.n	800759e <UART_WaitOnFlagUntilTimeout+0x12>
        }
      }
    }
  }
  return HAL_OK;
 800765c:	2300      	movs	r3, #0
}
 800765e:	4618      	mov	r0, r3
 8007660:	3710      	adds	r7, #16
 8007662:	46bd      	mov	sp, r7
 8007664:	bd80      	pop	{r7, pc}

08007666 <UART_EndRxTransfer>:
  * @brief  End ongoing Rx transfer on UART peripheral (following error detection or Reception completion).
  * @param  huart UART handle.
  * @retval None
  */
static void UART_EndRxTransfer(UART_HandleTypeDef *huart)
{
 8007666:	b480      	push	{r7}
 8007668:	b095      	sub	sp, #84	@ 0x54
 800766a:	af00      	add	r7, sp, #0
 800766c:	6078      	str	r0, [r7, #4]
  /* Disable RXNE, PE and ERR (Frame error, noise error, overrun error) interrupts */
#if defined(USART_CR1_FIFOEN)
  ATOMIC_CLEAR_BIT(huart->Instance->CR1, (USART_CR1_RXNEIE_RXFNEIE | USART_CR1_PEIE));
  ATOMIC_CLEAR_BIT(huart->Instance->CR3, (USART_CR3_EIE | USART_CR3_RXFTIE));
#else
  ATOMIC_CLEAR_BIT(huart->Instance->CR1, (USART_CR1_RXNEIE | USART_CR1_PEIE));
 800766e:	687b      	ldr	r3, [r7, #4]
 8007670:	681b      	ldr	r3, [r3, #0]
 8007672:	637b      	str	r3, [r7, #52]	@ 0x34
   __ASM volatile ("ldrex %0, %1" : "=r" (result) : "Q" (*addr) );
 8007674:	6b7b      	ldr	r3, [r7, #52]	@ 0x34
 8007676:	e853 3f00 	ldrex	r3, [r3]
 800767a:	633b      	str	r3, [r7, #48]	@ 0x30
   return(result);
 800767c:	6b3b      	ldr	r3, [r7, #48]	@ 0x30
 800767e:	f423 7390 	bic.w	r3, r3, #288	@ 0x120
 8007682:	64fb      	str	r3, [r7, #76]	@ 0x4c
 8007684:	687b      	ldr	r3, [r7, #4]
 8007686:	681b      	ldr	r3, [r3, #0]
 8007688:	461a      	mov	r2, r3
 800768a:	6cfb      	ldr	r3, [r7, #76]	@ 0x4c
 800768c:	643b      	str	r3, [r7, #64]	@ 0x40
 800768e:	63fa      	str	r2, [r7, #60]	@ 0x3c
   __ASM volatile ("strex %0, %2, %1" : "=&r" (result), "=Q" (*addr) : "r" (value) );
 8007690:	6bf9      	ldr	r1, [r7, #60]	@ 0x3c
 8007692:	6c3a      	ldr	r2, [r7, #64]	@ 0x40
 8007694:	e841 2300 	strex	r3, r2, [r1]
 8007698:	63bb      	str	r3, [r7, #56]	@ 0x38
   return(result);
 800769a:	6bbb      	ldr	r3, [r7, #56]	@ 0x38
 800769c:	2b00      	cmp	r3, #0
 800769e:	d1e6      	bne.n	800766e <UART_EndRxTransfer+0x8>
  ATOMIC_CLEAR_BIT(huart->Instance->CR3, USART_CR3_EIE);
 80076a0:	687b      	ldr	r3, [r7, #4]
 80076a2:	681b      	ldr	r3, [r3, #0]
 80076a4:	3308      	adds	r3, #8
 80076a6:	623b      	str	r3, [r7, #32]
   __ASM volatile ("ldrex %0, %1" : "=r" (result) : "Q" (*addr) );
 80076a8:	6a3b      	ldr	r3, [r7, #32]
 80076aa:	e853 3f00 	ldrex	r3, [r3]
 80076ae:	61fb      	str	r3, [r7, #28]
   return(result);
 80076b0:	69fb      	ldr	r3, [r7, #28]
 80076b2:	f023 0301 	bic.w	r3, r3, #1
 80076b6:	64bb      	str	r3, [r7, #72]	@ 0x48
 80076b8:	687b      	ldr	r3, [r7, #4]
 80076ba:	681b      	ldr	r3, [r3, #0]
 80076bc:	3308      	adds	r3, #8
 80076be:	6cba      	ldr	r2, [r7, #72]	@ 0x48
 80076c0:	62fa      	str	r2, [r7, #44]	@ 0x2c
 80076c2:	62bb      	str	r3, [r7, #40]	@ 0x28
   __ASM volatile ("strex %0, %2, %1" : "=&r" (result), "=Q" (*addr) : "r" (value) );
 80076c4:	6ab9      	ldr	r1, [r7, #40]	@ 0x28
 80076c6:	6afa      	ldr	r2, [r7, #44]	@ 0x2c
 80076c8:	e841 2300 	strex	r3, r2, [r1]
 80076cc:	627b      	str	r3, [r7, #36]	@ 0x24
   return(result);
 80076ce:	6a7b      	ldr	r3, [r7, #36]	@ 0x24
 80076d0:	2b00      	cmp	r3, #0
 80076d2:	d1e5      	bne.n	80076a0 <UART_EndRxTransfer+0x3a>
#endif /* USART_CR1_FIFOEN */

  /* In case of reception waiting for IDLE event, disable also the IDLE IE interrupt source */
  if (huart->ReceptionType == HAL_UART_RECEPTION_TOIDLE)
 80076d4:	687b      	ldr	r3, [r7, #4]
 80076d6:	6e1b      	ldr	r3, [r3, #96]	@ 0x60
 80076d8:	2b01      	cmp	r3, #1
 80076da:	d118      	bne.n	800770e <UART_EndRxTransfer+0xa8>
  {
    ATOMIC_CLEAR_BIT(huart->Instance->CR1, USART_CR1_IDLEIE);
 80076dc:	687b      	ldr	r3, [r7, #4]
 80076de:	681b      	ldr	r3, [r3, #0]
 80076e0:	60fb      	str	r3, [r7, #12]
   __ASM volatile ("ldrex %0, %1" : "=r" (result) : "Q" (*addr) );
 80076e2:	68fb      	ldr	r3, [r7, #12]
 80076e4:	e853 3f00 	ldrex	r3, [r3]
 80076e8:	60bb      	str	r3, [r7, #8]
   return(result);
 80076ea:	68bb      	ldr	r3, [r7, #8]
 80076ec:	f023 0310 	bic.w	r3, r3, #16
 80076f0:	647b      	str	r3, [r7, #68]	@ 0x44
 80076f2:	687b      	ldr	r3, [r7, #4]
 80076f4:	681b      	ldr	r3, [r3, #0]
 80076f6:	461a      	mov	r2, r3
 80076f8:	6c7b      	ldr	r3, [r7, #68]	@ 0x44
 80076fa:	61bb      	str	r3, [r7, #24]
 80076fc:	617a      	str	r2, [r7, #20]
   __ASM volatile ("strex %0, %2, %1" : "=&r" (result), "=Q" (*addr) : "r" (value) );
 80076fe:	6979      	ldr	r1, [r7, #20]
 8007700:	69ba      	ldr	r2, [r7, #24]
 8007702:	e841 2300 	strex	r3, r2, [r1]
 8007706:	613b      	str	r3, [r7, #16]
   return(result);
 8007708:	693b      	ldr	r3, [r7, #16]
 800770a:	2b00      	cmp	r3, #0
 800770c:	d1e6      	bne.n	80076dc <UART_EndRxTransfer+0x76>
  }

  /* At end of Rx process, restore huart->RxState to Ready */
  huart->RxState = HAL_UART_STATE_READY;
 800770e:	687b      	ldr	r3, [r7, #4]
 8007710:	2220      	movs	r2, #32
 8007712:	f8c3 2080 	str.w	r2, [r3, #128]	@ 0x80
  huart->ReceptionType = HAL_UART_RECEPTION_STANDARD;
 8007716:	687b      	ldr	r3, [r7, #4]
 8007718:	2200      	movs	r2, #0
 800771a:	661a      	str	r2, [r3, #96]	@ 0x60

  /* Reset RxIsr function pointer */
  huart->RxISR = NULL;
 800771c:	687b      	ldr	r3, [r7, #4]
 800771e:	2200      	movs	r2, #0
 8007720:	669a      	str	r2, [r3, #104]	@ 0x68
}
 8007722:	bf00      	nop
 8007724:	3754      	adds	r7, #84	@ 0x54
 8007726:	46bd      	mov	sp, r7
 8007728:	f85d 7b04 	ldr.w	r7, [sp], #4
 800772c:	4770      	bx	lr
	...

08007730 <std>:
 8007730:	2300      	movs	r3, #0
 8007732:	b510      	push	{r4, lr}
 8007734:	4604      	mov	r4, r0
 8007736:	e9c0 3300 	strd	r3, r3, [r0]
 800773a:	e9c0 3304 	strd	r3, r3, [r0, #16]
 800773e:	6083      	str	r3, [r0, #8]
 8007740:	8181      	strh	r1, [r0, #12]
 8007742:	6643      	str	r3, [r0, #100]	@ 0x64
 8007744:	81c2      	strh	r2, [r0, #14]
 8007746:	6183      	str	r3, [r0, #24]
 8007748:	4619      	mov	r1, r3
 800774a:	2208      	movs	r2, #8
 800774c:	305c      	adds	r0, #92	@ 0x5c
 800774e:	f000 f906 	bl	800795e <memset>
 8007752:	4b0d      	ldr	r3, [pc, #52]	@ (8007788 <std+0x58>)
 8007754:	6263      	str	r3, [r4, #36]	@ 0x24
 8007756:	4b0d      	ldr	r3, [pc, #52]	@ (800778c <std+0x5c>)
 8007758:	62a3      	str	r3, [r4, #40]	@ 0x28
 800775a:	4b0d      	ldr	r3, [pc, #52]	@ (8007790 <std+0x60>)
 800775c:	62e3      	str	r3, [r4, #44]	@ 0x2c
 800775e:	4b0d      	ldr	r3, [pc, #52]	@ (8007794 <std+0x64>)
 8007760:	6323      	str	r3, [r4, #48]	@ 0x30
 8007762:	4b0d      	ldr	r3, [pc, #52]	@ (8007798 <std+0x68>)
 8007764:	6224      	str	r4, [r4, #32]
 8007766:	429c      	cmp	r4, r3
 8007768:	d006      	beq.n	8007778 <std+0x48>
 800776a:	f103 0268 	add.w	r2, r3, #104	@ 0x68
 800776e:	4294      	cmp	r4, r2
 8007770:	d002      	beq.n	8007778 <std+0x48>
 8007772:	33d0      	adds	r3, #208	@ 0xd0
 8007774:	429c      	cmp	r4, r3
 8007776:	d105      	bne.n	8007784 <std+0x54>
 8007778:	f104 0058 	add.w	r0, r4, #88	@ 0x58
 800777c:	e8bd 4010 	ldmia.w	sp!, {r4, lr}
 8007780:	f000 b978 	b.w	8007a74 <__retarget_lock_init_recursive>
 8007784:	bd10      	pop	{r4, pc}
 8007786:	bf00      	nop
 8007788:	080078d9 	.word	0x080078d9
 800778c:	080078fb 	.word	0x080078fb
 8007790:	08007933 	.word	0x08007933
 8007794:	08007957 	.word	0x08007957
 8007798:	200006c0 	.word	0x200006c0

0800779c <stdio_exit_handler>:
 800779c:	4a02      	ldr	r2, [pc, #8]	@ (80077a8 <stdio_exit_handler+0xc>)
 800779e:	4903      	ldr	r1, [pc, #12]	@ (80077ac <stdio_exit_handler+0x10>)
 80077a0:	4803      	ldr	r0, [pc, #12]	@ (80077b0 <stdio_exit_handler+0x14>)
 80077a2:	f000 b869 	b.w	8007878 <_fwalk_sglue>
 80077a6:	bf00      	nop
 80077a8:	2000002c 	.word	0x2000002c
 80077ac:	0800832d 	.word	0x0800832d
 80077b0:	2000003c 	.word	0x2000003c

080077b4 <cleanup_stdio>:
 80077b4:	6841      	ldr	r1, [r0, #4]
 80077b6:	4b0c      	ldr	r3, [pc, #48]	@ (80077e8 <cleanup_stdio+0x34>)
 80077b8:	4299      	cmp	r1, r3
 80077ba:	b510      	push	{r4, lr}
 80077bc:	4604      	mov	r4, r0
 80077be:	d001      	beq.n	80077c4 <cleanup_stdio+0x10>
 80077c0:	f000 fdb4 	bl	800832c <_fflush_r>
 80077c4:	68a1      	ldr	r1, [r4, #8]
 80077c6:	4b09      	ldr	r3, [pc, #36]	@ (80077ec <cleanup_stdio+0x38>)
 80077c8:	4299      	cmp	r1, r3
 80077ca:	d002      	beq.n	80077d2 <cleanup_stdio+0x1e>
 80077cc:	4620      	mov	r0, r4
 80077ce:	f000 fdad 	bl	800832c <_fflush_r>
 80077d2:	68e1      	ldr	r1, [r4, #12]
 80077d4:	4b06      	ldr	r3, [pc, #24]	@ (80077f0 <cleanup_stdio+0x3c>)
 80077d6:	4299      	cmp	r1, r3
 80077d8:	d004      	beq.n	80077e4 <cleanup_stdio+0x30>
 80077da:	4620      	mov	r0, r4
 80077dc:	e8bd 4010 	ldmia.w	sp!, {r4, lr}
 80077e0:	f000 bda4 	b.w	800832c <_fflush_r>
 80077e4:	bd10      	pop	{r4, pc}
 80077e6:	bf00      	nop
 80077e8:	200006c0 	.word	0x200006c0
 80077ec:	20000728 	.word	0x20000728
 80077f0:	20000790 	.word	0x20000790

080077f4 <global_stdio_init.part.0>:
 80077f4:	b510      	push	{r4, lr}
 80077f6:	4b0b      	ldr	r3, [pc, #44]	@ (8007824 <global_stdio_init.part.0+0x30>)
 80077f8:	4c0b      	ldr	r4, [pc, #44]	@ (8007828 <global_stdio_init.part.0+0x34>)
 80077fa:	4a0c      	ldr	r2, [pc, #48]	@ (800782c <global_stdio_init.part.0+0x38>)
 80077fc:	601a      	str	r2, [r3, #0]
 80077fe:	4620      	mov	r0, r4
 8007800:	2200      	movs	r2, #0
 8007802:	2104      	movs	r1, #4
 8007804:	f7ff ff94 	bl	8007730 <std>
 8007808:	f104 0068 	add.w	r0, r4, #104	@ 0x68
 800780c:	2201      	movs	r2, #1
 800780e:	2109      	movs	r1, #9
 8007810:	f7ff ff8e 	bl	8007730 <std>
 8007814:	f104 00d0 	add.w	r0, r4, #208	@ 0xd0
 8007818:	2202      	movs	r2, #2
 800781a:	e8bd 4010 	ldmia.w	sp!, {r4, lr}
 800781e:	2112      	movs	r1, #18
 8007820:	f7ff bf86 	b.w	8007730 <std>
 8007824:	200007f8 	.word	0x200007f8
 8007828:	200006c0 	.word	0x200006c0
 800782c:	0800779d 	.word	0x0800779d

08007830 <__sfp_lock_acquire>:
 8007830:	4801      	ldr	r0, [pc, #4]	@ (8007838 <__sfp_lock_acquire+0x8>)
 8007832:	f000 b920 	b.w	8007a76 <__retarget_lock_acquire_recursive>
 8007836:	bf00      	nop
 8007838:	20000801 	.word	0x20000801

0800783c <__sfp_lock_release>:
 800783c:	4801      	ldr	r0, [pc, #4]	@ (8007844 <__sfp_lock_release+0x8>)
 800783e:	f000 b91b 	b.w	8007a78 <__retarget_lock_release_recursive>
 8007842:	bf00      	nop
 8007844:	20000801 	.word	0x20000801

08007848 <__sinit>:
 8007848:	b510      	push	{r4, lr}
 800784a:	4604      	mov	r4, r0
 800784c:	f7ff fff0 	bl	8007830 <__sfp_lock_acquire>
 8007850:	6a23      	ldr	r3, [r4, #32]
 8007852:	b11b      	cbz	r3, 800785c <__sinit+0x14>
 8007854:	e8bd 4010 	ldmia.w	sp!, {r4, lr}
 8007858:	f7ff bff0 	b.w	800783c <__sfp_lock_release>
 800785c:	4b04      	ldr	r3, [pc, #16]	@ (8007870 <__sinit+0x28>)
 800785e:	6223      	str	r3, [r4, #32]
 8007860:	4b04      	ldr	r3, [pc, #16]	@ (8007874 <__sinit+0x2c>)
 8007862:	681b      	ldr	r3, [r3, #0]
 8007864:	2b00      	cmp	r3, #0
 8007866:	d1f5      	bne.n	8007854 <__sinit+0xc>
 8007868:	f7ff ffc4 	bl	80077f4 <global_stdio_init.part.0>
 800786c:	e7f2      	b.n	8007854 <__sinit+0xc>
 800786e:	bf00      	nop
 8007870:	080077b5 	.word	0x080077b5
 8007874:	200007f8 	.word	0x200007f8

08007878 <_fwalk_sglue>:
 8007878:	e92d 43f8 	stmdb	sp!, {r3, r4, r5, r6, r7, r8, r9, lr}
 800787c:	4607      	mov	r7, r0
 800787e:	4688      	mov	r8, r1
 8007880:	4614      	mov	r4, r2
 8007882:	2600      	movs	r6, #0
 8007884:	e9d4 9501 	ldrd	r9, r5, [r4, #4]
 8007888:	f1b9 0901 	subs.w	r9, r9, #1
 800788c:	d505      	bpl.n	800789a <_fwalk_sglue+0x22>
 800788e:	6824      	ldr	r4, [r4, #0]
 8007890:	2c00      	cmp	r4, #0
 8007892:	d1f7      	bne.n	8007884 <_fwalk_sglue+0xc>
 8007894:	4630      	mov	r0, r6
 8007896:	e8bd 83f8 	ldmia.w	sp!, {r3, r4, r5, r6, r7, r8, r9, pc}
 800789a:	89ab      	ldrh	r3, [r5, #12]
 800789c:	2b01      	cmp	r3, #1
 800789e:	d907      	bls.n	80078b0 <_fwalk_sglue+0x38>
 80078a0:	f9b5 300e 	ldrsh.w	r3, [r5, #14]
 80078a4:	3301      	adds	r3, #1
 80078a6:	d003      	beq.n	80078b0 <_fwalk_sglue+0x38>
 80078a8:	4629      	mov	r1, r5
 80078aa:	4638      	mov	r0, r7
 80078ac:	47c0      	blx	r8
 80078ae:	4306      	orrs	r6, r0
 80078b0:	3568      	adds	r5, #104	@ 0x68
 80078b2:	e7e9      	b.n	8007888 <_fwalk_sglue+0x10>

080078b4 <iprintf>:
 80078b4:	b40f      	push	{r0, r1, r2, r3}
 80078b6:	b507      	push	{r0, r1, r2, lr}
 80078b8:	4906      	ldr	r1, [pc, #24]	@ (80078d4 <iprintf+0x20>)
 80078ba:	ab04      	add	r3, sp, #16
 80078bc:	6808      	ldr	r0, [r1, #0]
 80078be:	f853 2b04 	ldr.w	r2, [r3], #4
 80078c2:	6881      	ldr	r1, [r0, #8]
 80078c4:	9301      	str	r3, [sp, #4]
 80078c6:	f000 fa09 	bl	8007cdc <_vfiprintf_r>
 80078ca:	b003      	add	sp, #12
 80078cc:	f85d eb04 	ldr.w	lr, [sp], #4
 80078d0:	b004      	add	sp, #16
 80078d2:	4770      	bx	lr
 80078d4:	20000038 	.word	0x20000038

080078d8 <__sread>:
 80078d8:	b510      	push	{r4, lr}
 80078da:	460c      	mov	r4, r1
 80078dc:	f9b1 100e 	ldrsh.w	r1, [r1, #14]
 80078e0:	f000 f87a 	bl	80079d8 <_read_r>
 80078e4:	2800      	cmp	r0, #0
 80078e6:	bfab      	itete	ge
 80078e8:	6d63      	ldrge	r3, [r4, #84]	@ 0x54
 80078ea:	89a3      	ldrhlt	r3, [r4, #12]
 80078ec:	181b      	addge	r3, r3, r0
 80078ee:	f423 5380 	biclt.w	r3, r3, #4096	@ 0x1000
 80078f2:	bfac      	ite	ge
 80078f4:	6563      	strge	r3, [r4, #84]	@ 0x54
 80078f6:	81a3      	strhlt	r3, [r4, #12]
 80078f8:	bd10      	pop	{r4, pc}

080078fa <__swrite>:
 80078fa:	e92d 41f0 	stmdb	sp!, {r4, r5, r6, r7, r8, lr}
 80078fe:	461f      	mov	r7, r3
 8007900:	898b      	ldrh	r3, [r1, #12]
 8007902:	05db      	lsls	r3, r3, #23
 8007904:	4605      	mov	r5, r0
 8007906:	460c      	mov	r4, r1
 8007908:	4616      	mov	r6, r2
 800790a:	d505      	bpl.n	8007918 <__swrite+0x1e>
 800790c:	f9b1 100e 	ldrsh.w	r1, [r1, #14]
 8007910:	2302      	movs	r3, #2
 8007912:	2200      	movs	r2, #0
 8007914:	f000 f84e 	bl	80079b4 <_lseek_r>
 8007918:	89a3      	ldrh	r3, [r4, #12]
 800791a:	f9b4 100e 	ldrsh.w	r1, [r4, #14]
 800791e:	f423 5380 	bic.w	r3, r3, #4096	@ 0x1000
 8007922:	81a3      	strh	r3, [r4, #12]
 8007924:	4632      	mov	r2, r6
 8007926:	463b      	mov	r3, r7
 8007928:	4628      	mov	r0, r5
 800792a:	e8bd 41f0 	ldmia.w	sp!, {r4, r5, r6, r7, r8, lr}
 800792e:	f000 b865 	b.w	80079fc <_write_r>

08007932 <__sseek>:
 8007932:	b510      	push	{r4, lr}
 8007934:	460c      	mov	r4, r1
 8007936:	f9b1 100e 	ldrsh.w	r1, [r1, #14]
 800793a:	f000 f83b 	bl	80079b4 <_lseek_r>
 800793e:	1c43      	adds	r3, r0, #1
 8007940:	89a3      	ldrh	r3, [r4, #12]
 8007942:	bf15      	itete	ne
 8007944:	6560      	strne	r0, [r4, #84]	@ 0x54
 8007946:	f423 5380 	biceq.w	r3, r3, #4096	@ 0x1000
 800794a:	f443 5380 	orrne.w	r3, r3, #4096	@ 0x1000
 800794e:	81a3      	strheq	r3, [r4, #12]
 8007950:	bf18      	it	ne
 8007952:	81a3      	strhne	r3, [r4, #12]
 8007954:	bd10      	pop	{r4, pc}

08007956 <__sclose>:
 8007956:	f9b1 100e 	ldrsh.w	r1, [r1, #14]
 800795a:	f000 b81b 	b.w	8007994 <_close_r>

0800795e <memset>:
 800795e:	4402      	add	r2, r0
 8007960:	4603      	mov	r3, r0
 8007962:	4293      	cmp	r3, r2
 8007964:	d100      	bne.n	8007968 <memset+0xa>
 8007966:	4770      	bx	lr
 8007968:	f803 1b01 	strb.w	r1, [r3], #1
 800796c:	e7f9      	b.n	8007962 <memset+0x4>

0800796e <strncpy>:
 800796e:	b510      	push	{r4, lr}
 8007970:	3901      	subs	r1, #1
 8007972:	4603      	mov	r3, r0
 8007974:	b132      	cbz	r2, 8007984 <strncpy+0x16>
 8007976:	f811 4f01 	ldrb.w	r4, [r1, #1]!
 800797a:	f803 4b01 	strb.w	r4, [r3], #1
 800797e:	3a01      	subs	r2, #1
 8007980:	2c00      	cmp	r4, #0
 8007982:	d1f7      	bne.n	8007974 <strncpy+0x6>
 8007984:	441a      	add	r2, r3
 8007986:	2100      	movs	r1, #0
 8007988:	4293      	cmp	r3, r2
 800798a:	d100      	bne.n	800798e <strncpy+0x20>
 800798c:	bd10      	pop	{r4, pc}
 800798e:	f803 1b01 	strb.w	r1, [r3], #1
 8007992:	e7f9      	b.n	8007988 <strncpy+0x1a>

08007994 <_close_r>:
 8007994:	b538      	push	{r3, r4, r5, lr}
 8007996:	4d06      	ldr	r5, [pc, #24]	@ (80079b0 <_close_r+0x1c>)
 8007998:	2300      	movs	r3, #0
 800799a:	4604      	mov	r4, r0
 800799c:	4608      	mov	r0, r1
 800799e:	602b      	str	r3, [r5, #0]
 80079a0:	f7fb fd2f 	bl	8003402 <_close>
 80079a4:	1c43      	adds	r3, r0, #1
 80079a6:	d102      	bne.n	80079ae <_close_r+0x1a>
 80079a8:	682b      	ldr	r3, [r5, #0]
 80079aa:	b103      	cbz	r3, 80079ae <_close_r+0x1a>
 80079ac:	6023      	str	r3, [r4, #0]
 80079ae:	bd38      	pop	{r3, r4, r5, pc}
 80079b0:	200007fc 	.word	0x200007fc

080079b4 <_lseek_r>:
 80079b4:	b538      	push	{r3, r4, r5, lr}
 80079b6:	4d07      	ldr	r5, [pc, #28]	@ (80079d4 <_lseek_r+0x20>)
 80079b8:	4604      	mov	r4, r0
 80079ba:	4608      	mov	r0, r1
 80079bc:	4611      	mov	r1, r2
 80079be:	2200      	movs	r2, #0
 80079c0:	602a      	str	r2, [r5, #0]
 80079c2:	461a      	mov	r2, r3
 80079c4:	f7fb fd44 	bl	8003450 <_lseek>
 80079c8:	1c43      	adds	r3, r0, #1
 80079ca:	d102      	bne.n	80079d2 <_lseek_r+0x1e>
 80079cc:	682b      	ldr	r3, [r5, #0]
 80079ce:	b103      	cbz	r3, 80079d2 <_lseek_r+0x1e>
 80079d0:	6023      	str	r3, [r4, #0]
 80079d2:	bd38      	pop	{r3, r4, r5, pc}
 80079d4:	200007fc 	.word	0x200007fc

080079d8 <_read_r>:
 80079d8:	b538      	push	{r3, r4, r5, lr}
 80079da:	4d07      	ldr	r5, [pc, #28]	@ (80079f8 <_read_r+0x20>)
 80079dc:	4604      	mov	r4, r0
 80079de:	4608      	mov	r0, r1
 80079e0:	4611      	mov	r1, r2
 80079e2:	2200      	movs	r2, #0
 80079e4:	602a      	str	r2, [r5, #0]
 80079e6:	461a      	mov	r2, r3
 80079e8:	f7fb fcd2 	bl	8003390 <_read>
 80079ec:	1c43      	adds	r3, r0, #1
 80079ee:	d102      	bne.n	80079f6 <_read_r+0x1e>
 80079f0:	682b      	ldr	r3, [r5, #0]
 80079f2:	b103      	cbz	r3, 80079f6 <_read_r+0x1e>
 80079f4:	6023      	str	r3, [r4, #0]
 80079f6:	bd38      	pop	{r3, r4, r5, pc}
 80079f8:	200007fc 	.word	0x200007fc

080079fc <_write_r>:
 80079fc:	b538      	push	{r3, r4, r5, lr}
 80079fe:	4d07      	ldr	r5, [pc, #28]	@ (8007a1c <_write_r+0x20>)
 8007a00:	4604      	mov	r4, r0
 8007a02:	4608      	mov	r0, r1
 8007a04:	4611      	mov	r1, r2
 8007a06:	2200      	movs	r2, #0
 8007a08:	602a      	str	r2, [r5, #0]
 8007a0a:	461a      	mov	r2, r3
 8007a0c:	f7fb fcdd 	bl	80033ca <_write>
 8007a10:	1c43      	adds	r3, r0, #1
 8007a12:	d102      	bne.n	8007a1a <_write_r+0x1e>
 8007a14:	682b      	ldr	r3, [r5, #0]
 8007a16:	b103      	cbz	r3, 8007a1a <_write_r+0x1e>
 8007a18:	6023      	str	r3, [r4, #0]
 8007a1a:	bd38      	pop	{r3, r4, r5, pc}
 8007a1c:	200007fc 	.word	0x200007fc

08007a20 <__errno>:
 8007a20:	4b01      	ldr	r3, [pc, #4]	@ (8007a28 <__errno+0x8>)
 8007a22:	6818      	ldr	r0, [r3, #0]
 8007a24:	4770      	bx	lr
 8007a26:	bf00      	nop
 8007a28:	20000038 	.word	0x20000038

08007a2c <__libc_init_array>:
 8007a2c:	b570      	push	{r4, r5, r6, lr}
 8007a2e:	4d0d      	ldr	r5, [pc, #52]	@ (8007a64 <__libc_init_array+0x38>)
 8007a30:	4c0d      	ldr	r4, [pc, #52]	@ (8007a68 <__libc_init_array+0x3c>)
 8007a32:	1b64      	subs	r4, r4, r5
 8007a34:	10a4      	asrs	r4, r4, #2
 8007a36:	2600      	movs	r6, #0
 8007a38:	42a6      	cmp	r6, r4
 8007a3a:	d109      	bne.n	8007a50 <__libc_init_array+0x24>
 8007a3c:	4d0b      	ldr	r5, [pc, #44]	@ (8007a6c <__libc_init_array+0x40>)
 8007a3e:	4c0c      	ldr	r4, [pc, #48]	@ (8007a70 <__libc_init_array+0x44>)
 8007a40:	f000 fdc4 	bl	80085cc <_init>
 8007a44:	1b64      	subs	r4, r4, r5
 8007a46:	10a4      	asrs	r4, r4, #2
 8007a48:	2600      	movs	r6, #0
 8007a4a:	42a6      	cmp	r6, r4
 8007a4c:	d105      	bne.n	8007a5a <__libc_init_array+0x2e>
 8007a4e:	bd70      	pop	{r4, r5, r6, pc}
 8007a50:	f855 3b04 	ldr.w	r3, [r5], #4
 8007a54:	4798      	blx	r3
 8007a56:	3601      	adds	r6, #1
 8007a58:	e7ee      	b.n	8007a38 <__libc_init_array+0xc>
 8007a5a:	f855 3b04 	ldr.w	r3, [r5], #4
 8007a5e:	4798      	blx	r3
 8007a60:	3601      	adds	r6, #1
 8007a62:	e7f2      	b.n	8007a4a <__libc_init_array+0x1e>
 8007a64:	0800868c 	.word	0x0800868c
 8007a68:	0800868c 	.word	0x0800868c
 8007a6c:	0800868c 	.word	0x0800868c
 8007a70:	08008690 	.word	0x08008690

08007a74 <__retarget_lock_init_recursive>:
 8007a74:	4770      	bx	lr

08007a76 <__retarget_lock_acquire_recursive>:
 8007a76:	4770      	bx	lr

08007a78 <__retarget_lock_release_recursive>:
 8007a78:	4770      	bx	lr

08007a7a <memcpy>:
 8007a7a:	440a      	add	r2, r1
 8007a7c:	4291      	cmp	r1, r2
 8007a7e:	f100 33ff 	add.w	r3, r0, #4294967295
 8007a82:	d100      	bne.n	8007a86 <memcpy+0xc>
 8007a84:	4770      	bx	lr
 8007a86:	b510      	push	{r4, lr}
 8007a88:	f811 4b01 	ldrb.w	r4, [r1], #1
 8007a8c:	f803 4f01 	strb.w	r4, [r3, #1]!
 8007a90:	4291      	cmp	r1, r2
 8007a92:	d1f9      	bne.n	8007a88 <memcpy+0xe>
 8007a94:	bd10      	pop	{r4, pc}
	...

08007a98 <_free_r>:
 8007a98:	b538      	push	{r3, r4, r5, lr}
 8007a9a:	4605      	mov	r5, r0
 8007a9c:	2900      	cmp	r1, #0
 8007a9e:	d041      	beq.n	8007b24 <_free_r+0x8c>
 8007aa0:	f851 3c04 	ldr.w	r3, [r1, #-4]
 8007aa4:	1f0c      	subs	r4, r1, #4
 8007aa6:	2b00      	cmp	r3, #0
 8007aa8:	bfb8      	it	lt
 8007aaa:	18e4      	addlt	r4, r4, r3
 8007aac:	f000 f8e0 	bl	8007c70 <__malloc_lock>
 8007ab0:	4a1d      	ldr	r2, [pc, #116]	@ (8007b28 <_free_r+0x90>)
 8007ab2:	6813      	ldr	r3, [r2, #0]
 8007ab4:	b933      	cbnz	r3, 8007ac4 <_free_r+0x2c>
 8007ab6:	6063      	str	r3, [r4, #4]
 8007ab8:	6014      	str	r4, [r2, #0]
 8007aba:	4628      	mov	r0, r5
 8007abc:	e8bd 4038 	ldmia.w	sp!, {r3, r4, r5, lr}
 8007ac0:	f000 b8dc 	b.w	8007c7c <__malloc_unlock>
 8007ac4:	42a3      	cmp	r3, r4
 8007ac6:	d908      	bls.n	8007ada <_free_r+0x42>
 8007ac8:	6820      	ldr	r0, [r4, #0]
 8007aca:	1821      	adds	r1, r4, r0
 8007acc:	428b      	cmp	r3, r1
 8007ace:	bf01      	itttt	eq
 8007ad0:	6819      	ldreq	r1, [r3, #0]
 8007ad2:	685b      	ldreq	r3, [r3, #4]
 8007ad4:	1809      	addeq	r1, r1, r0
 8007ad6:	6021      	streq	r1, [r4, #0]
 8007ad8:	e7ed      	b.n	8007ab6 <_free_r+0x1e>
 8007ada:	461a      	mov	r2, r3
 8007adc:	685b      	ldr	r3, [r3, #4]
 8007ade:	b10b      	cbz	r3, 8007ae4 <_free_r+0x4c>
 8007ae0:	42a3      	cmp	r3, r4
 8007ae2:	d9fa      	bls.n	8007ada <_free_r+0x42>
 8007ae4:	6811      	ldr	r1, [r2, #0]
 8007ae6:	1850      	adds	r0, r2, r1
 8007ae8:	42a0      	cmp	r0, r4
 8007aea:	d10b      	bne.n	8007b04 <_free_r+0x6c>
 8007aec:	6820      	ldr	r0, [r4, #0]
 8007aee:	4401      	add	r1, r0
 8007af0:	1850      	adds	r0, r2, r1
 8007af2:	4283      	cmp	r3, r0
 8007af4:	6011      	str	r1, [r2, #0]
 8007af6:	d1e0      	bne.n	8007aba <_free_r+0x22>
 8007af8:	6818      	ldr	r0, [r3, #0]
 8007afa:	685b      	ldr	r3, [r3, #4]
 8007afc:	6053      	str	r3, [r2, #4]
 8007afe:	4408      	add	r0, r1
 8007b00:	6010      	str	r0, [r2, #0]
 8007b02:	e7da      	b.n	8007aba <_free_r+0x22>
 8007b04:	d902      	bls.n	8007b0c <_free_r+0x74>
 8007b06:	230c      	movs	r3, #12
 8007b08:	602b      	str	r3, [r5, #0]
 8007b0a:	e7d6      	b.n	8007aba <_free_r+0x22>
 8007b0c:	6820      	ldr	r0, [r4, #0]
 8007b0e:	1821      	adds	r1, r4, r0
 8007b10:	428b      	cmp	r3, r1
 8007b12:	bf04      	itt	eq
 8007b14:	6819      	ldreq	r1, [r3, #0]
 8007b16:	685b      	ldreq	r3, [r3, #4]
 8007b18:	6063      	str	r3, [r4, #4]
 8007b1a:	bf04      	itt	eq
 8007b1c:	1809      	addeq	r1, r1, r0
 8007b1e:	6021      	streq	r1, [r4, #0]
 8007b20:	6054      	str	r4, [r2, #4]
 8007b22:	e7ca      	b.n	8007aba <_free_r+0x22>
 8007b24:	bd38      	pop	{r3, r4, r5, pc}
 8007b26:	bf00      	nop
 8007b28:	20000808 	.word	0x20000808

08007b2c <sbrk_aligned>:
 8007b2c:	b570      	push	{r4, r5, r6, lr}
 8007b2e:	4e0f      	ldr	r6, [pc, #60]	@ (8007b6c <sbrk_aligned+0x40>)
 8007b30:	460c      	mov	r4, r1
 8007b32:	6831      	ldr	r1, [r6, #0]
 8007b34:	4605      	mov	r5, r0
 8007b36:	b911      	cbnz	r1, 8007b3e <sbrk_aligned+0x12>
 8007b38:	f000 fcb4 	bl	80084a4 <_sbrk_r>
 8007b3c:	6030      	str	r0, [r6, #0]
 8007b3e:	4621      	mov	r1, r4
 8007b40:	4628      	mov	r0, r5
 8007b42:	f000 fcaf 	bl	80084a4 <_sbrk_r>
 8007b46:	1c43      	adds	r3, r0, #1
 8007b48:	d103      	bne.n	8007b52 <sbrk_aligned+0x26>
 8007b4a:	f04f 34ff 	mov.w	r4, #4294967295
 8007b4e:	4620      	mov	r0, r4
 8007b50:	bd70      	pop	{r4, r5, r6, pc}
 8007b52:	1cc4      	adds	r4, r0, #3
 8007b54:	f024 0403 	bic.w	r4, r4, #3
 8007b58:	42a0      	cmp	r0, r4
 8007b5a:	d0f8      	beq.n	8007b4e <sbrk_aligned+0x22>
 8007b5c:	1a21      	subs	r1, r4, r0
 8007b5e:	4628      	mov	r0, r5
 8007b60:	f000 fca0 	bl	80084a4 <_sbrk_r>
 8007b64:	3001      	adds	r0, #1
 8007b66:	d1f2      	bne.n	8007b4e <sbrk_aligned+0x22>
 8007b68:	e7ef      	b.n	8007b4a <sbrk_aligned+0x1e>
 8007b6a:	bf00      	nop
 8007b6c:	20000804 	.word	0x20000804

08007b70 <_malloc_r>:
 8007b70:	e92d 43f8 	stmdb	sp!, {r3, r4, r5, r6, r7, r8, r9, lr}
 8007b74:	1ccd      	adds	r5, r1, #3
 8007b76:	f025 0503 	bic.w	r5, r5, #3
 8007b7a:	3508      	adds	r5, #8
 8007b7c:	2d0c      	cmp	r5, #12
 8007b7e:	bf38      	it	cc
 8007b80:	250c      	movcc	r5, #12
 8007b82:	2d00      	cmp	r5, #0
 8007b84:	4606      	mov	r6, r0
 8007b86:	db01      	blt.n	8007b8c <_malloc_r+0x1c>
 8007b88:	42a9      	cmp	r1, r5
 8007b8a:	d904      	bls.n	8007b96 <_malloc_r+0x26>
 8007b8c:	230c      	movs	r3, #12
 8007b8e:	6033      	str	r3, [r6, #0]
 8007b90:	2000      	movs	r0, #0
 8007b92:	e8bd 83f8 	ldmia.w	sp!, {r3, r4, r5, r6, r7, r8, r9, pc}
 8007b96:	f8df 80d4 	ldr.w	r8, [pc, #212]	@ 8007c6c <_malloc_r+0xfc>
 8007b9a:	f000 f869 	bl	8007c70 <__malloc_lock>
 8007b9e:	f8d8 3000 	ldr.w	r3, [r8]
 8007ba2:	461c      	mov	r4, r3
 8007ba4:	bb44      	cbnz	r4, 8007bf8 <_malloc_r+0x88>
 8007ba6:	4629      	mov	r1, r5
 8007ba8:	4630      	mov	r0, r6
 8007baa:	f7ff ffbf 	bl	8007b2c <sbrk_aligned>
 8007bae:	1c43      	adds	r3, r0, #1
 8007bb0:	4604      	mov	r4, r0
 8007bb2:	d158      	bne.n	8007c66 <_malloc_r+0xf6>
 8007bb4:	f8d8 4000 	ldr.w	r4, [r8]
 8007bb8:	4627      	mov	r7, r4
 8007bba:	2f00      	cmp	r7, #0
 8007bbc:	d143      	bne.n	8007c46 <_malloc_r+0xd6>
 8007bbe:	2c00      	cmp	r4, #0
 8007bc0:	d04b      	beq.n	8007c5a <_malloc_r+0xea>
 8007bc2:	6823      	ldr	r3, [r4, #0]
 8007bc4:	4639      	mov	r1, r7
 8007bc6:	4630      	mov	r0, r6
 8007bc8:	eb04 0903 	add.w	r9, r4, r3
 8007bcc:	f000 fc6a 	bl	80084a4 <_sbrk_r>
 8007bd0:	4581      	cmp	r9, r0
 8007bd2:	d142      	bne.n	8007c5a <_malloc_r+0xea>
 8007bd4:	6821      	ldr	r1, [r4, #0]
 8007bd6:	1a6d      	subs	r5, r5, r1
 8007bd8:	4629      	mov	r1, r5
 8007bda:	4630      	mov	r0, r6
 8007bdc:	f7ff ffa6 	bl	8007b2c <sbrk_aligned>
 8007be0:	3001      	adds	r0, #1
 8007be2:	d03a      	beq.n	8007c5a <_malloc_r+0xea>
 8007be4:	6823      	ldr	r3, [r4, #0]
 8007be6:	442b      	add	r3, r5
 8007be8:	6023      	str	r3, [r4, #0]
 8007bea:	f8d8 3000 	ldr.w	r3, [r8]
 8007bee:	685a      	ldr	r2, [r3, #4]
 8007bf0:	bb62      	cbnz	r2, 8007c4c <_malloc_r+0xdc>
 8007bf2:	f8c8 7000 	str.w	r7, [r8]
 8007bf6:	e00f      	b.n	8007c18 <_malloc_r+0xa8>
 8007bf8:	6822      	ldr	r2, [r4, #0]
 8007bfa:	1b52      	subs	r2, r2, r5
 8007bfc:	d420      	bmi.n	8007c40 <_malloc_r+0xd0>
 8007bfe:	2a0b      	cmp	r2, #11
 8007c00:	d917      	bls.n	8007c32 <_malloc_r+0xc2>
 8007c02:	1961      	adds	r1, r4, r5
 8007c04:	42a3      	cmp	r3, r4
 8007c06:	6025      	str	r5, [r4, #0]
 8007c08:	bf18      	it	ne
 8007c0a:	6059      	strne	r1, [r3, #4]
 8007c0c:	6863      	ldr	r3, [r4, #4]
 8007c0e:	bf08      	it	eq
 8007c10:	f8c8 1000 	streq.w	r1, [r8]
 8007c14:	5162      	str	r2, [r4, r5]
 8007c16:	604b      	str	r3, [r1, #4]
 8007c18:	4630      	mov	r0, r6
 8007c1a:	f000 f82f 	bl	8007c7c <__malloc_unlock>
 8007c1e:	f104 000b 	add.w	r0, r4, #11
 8007c22:	1d23      	adds	r3, r4, #4
 8007c24:	f020 0007 	bic.w	r0, r0, #7
 8007c28:	1ac2      	subs	r2, r0, r3
 8007c2a:	bf1c      	itt	ne
 8007c2c:	1a1b      	subne	r3, r3, r0
 8007c2e:	50a3      	strne	r3, [r4, r2]
 8007c30:	e7af      	b.n	8007b92 <_malloc_r+0x22>
 8007c32:	6862      	ldr	r2, [r4, #4]
 8007c34:	42a3      	cmp	r3, r4
 8007c36:	bf0c      	ite	eq
 8007c38:	f8c8 2000 	streq.w	r2, [r8]
 8007c3c:	605a      	strne	r2, [r3, #4]
 8007c3e:	e7eb      	b.n	8007c18 <_malloc_r+0xa8>
 8007c40:	4623      	mov	r3, r4
 8007c42:	6864      	ldr	r4, [r4, #4]
 8007c44:	e7ae      	b.n	8007ba4 <_malloc_r+0x34>
 8007c46:	463c      	mov	r4, r7
 8007c48:	687f      	ldr	r7, [r7, #4]
 8007c4a:	e7b6      	b.n	8007bba <_malloc_r+0x4a>
 8007c4c:	461a      	mov	r2, r3
 8007c4e:	685b      	ldr	r3, [r3, #4]
 8007c50:	42a3      	cmp	r3, r4
 8007c52:	d1fb      	bne.n	8007c4c <_malloc_r+0xdc>
 8007c54:	2300      	movs	r3, #0
 8007c56:	6053      	str	r3, [r2, #4]
 8007c58:	e7de      	b.n	8007c18 <_malloc_r+0xa8>
 8007c5a:	230c      	movs	r3, #12
 8007c5c:	6033      	str	r3, [r6, #0]
 8007c5e:	4630      	mov	r0, r6
 8007c60:	f000 f80c 	bl	8007c7c <__malloc_unlock>
 8007c64:	e794      	b.n	8007b90 <_malloc_r+0x20>
 8007c66:	6005      	str	r5, [r0, #0]
 8007c68:	e7d6      	b.n	8007c18 <_malloc_r+0xa8>
 8007c6a:	bf00      	nop
 8007c6c:	20000808 	.word	0x20000808

08007c70 <__malloc_lock>:
 8007c70:	4801      	ldr	r0, [pc, #4]	@ (8007c78 <__malloc_lock+0x8>)
 8007c72:	f7ff bf00 	b.w	8007a76 <__retarget_lock_acquire_recursive>
 8007c76:	bf00      	nop
 8007c78:	20000800 	.word	0x20000800

08007c7c <__malloc_unlock>:
 8007c7c:	4801      	ldr	r0, [pc, #4]	@ (8007c84 <__malloc_unlock+0x8>)
 8007c7e:	f7ff befb 	b.w	8007a78 <__retarget_lock_release_recursive>
 8007c82:	bf00      	nop
 8007c84:	20000800 	.word	0x20000800

08007c88 <__sfputc_r>:
 8007c88:	6893      	ldr	r3, [r2, #8]
 8007c8a:	3b01      	subs	r3, #1
 8007c8c:	2b00      	cmp	r3, #0
 8007c8e:	b410      	push	{r4}
 8007c90:	6093      	str	r3, [r2, #8]
 8007c92:	da08      	bge.n	8007ca6 <__sfputc_r+0x1e>
 8007c94:	6994      	ldr	r4, [r2, #24]
 8007c96:	42a3      	cmp	r3, r4
 8007c98:	db01      	blt.n	8007c9e <__sfputc_r+0x16>
 8007c9a:	290a      	cmp	r1, #10
 8007c9c:	d103      	bne.n	8007ca6 <__sfputc_r+0x1e>
 8007c9e:	f85d 4b04 	ldr.w	r4, [sp], #4
 8007ca2:	f000 bb6b 	b.w	800837c <__swbuf_r>
 8007ca6:	6813      	ldr	r3, [r2, #0]
 8007ca8:	1c58      	adds	r0, r3, #1
 8007caa:	6010      	str	r0, [r2, #0]
 8007cac:	7019      	strb	r1, [r3, #0]
 8007cae:	4608      	mov	r0, r1
 8007cb0:	f85d 4b04 	ldr.w	r4, [sp], #4
 8007cb4:	4770      	bx	lr

08007cb6 <__sfputs_r>:
 8007cb6:	b5f8      	push	{r3, r4, r5, r6, r7, lr}
 8007cb8:	4606      	mov	r6, r0
 8007cba:	460f      	mov	r7, r1
 8007cbc:	4614      	mov	r4, r2
 8007cbe:	18d5      	adds	r5, r2, r3
 8007cc0:	42ac      	cmp	r4, r5
 8007cc2:	d101      	bne.n	8007cc8 <__sfputs_r+0x12>
 8007cc4:	2000      	movs	r0, #0
 8007cc6:	e007      	b.n	8007cd8 <__sfputs_r+0x22>
 8007cc8:	f814 1b01 	ldrb.w	r1, [r4], #1
 8007ccc:	463a      	mov	r2, r7
 8007cce:	4630      	mov	r0, r6
 8007cd0:	f7ff ffda 	bl	8007c88 <__sfputc_r>
 8007cd4:	1c43      	adds	r3, r0, #1
 8007cd6:	d1f3      	bne.n	8007cc0 <__sfputs_r+0xa>
 8007cd8:	bdf8      	pop	{r3, r4, r5, r6, r7, pc}
	...

08007cdc <_vfiprintf_r>:
 8007cdc:	e92d 4ff0 	stmdb	sp!, {r4, r5, r6, r7, r8, r9, sl, fp, lr}
 8007ce0:	460d      	mov	r5, r1
 8007ce2:	b09d      	sub	sp, #116	@ 0x74
 8007ce4:	4614      	mov	r4, r2
 8007ce6:	4698      	mov	r8, r3
 8007ce8:	4606      	mov	r6, r0
 8007cea:	b118      	cbz	r0, 8007cf4 <_vfiprintf_r+0x18>
 8007cec:	6a03      	ldr	r3, [r0, #32]
 8007cee:	b90b      	cbnz	r3, 8007cf4 <_vfiprintf_r+0x18>
 8007cf0:	f7ff fdaa 	bl	8007848 <__sinit>
 8007cf4:	6e6b      	ldr	r3, [r5, #100]	@ 0x64
 8007cf6:	07d9      	lsls	r1, r3, #31
 8007cf8:	d405      	bmi.n	8007d06 <_vfiprintf_r+0x2a>
 8007cfa:	89ab      	ldrh	r3, [r5, #12]
 8007cfc:	059a      	lsls	r2, r3, #22
 8007cfe:	d402      	bmi.n	8007d06 <_vfiprintf_r+0x2a>
 8007d00:	6da8      	ldr	r0, [r5, #88]	@ 0x58
 8007d02:	f7ff feb8 	bl	8007a76 <__retarget_lock_acquire_recursive>
 8007d06:	89ab      	ldrh	r3, [r5, #12]
 8007d08:	071b      	lsls	r3, r3, #28
 8007d0a:	d501      	bpl.n	8007d10 <_vfiprintf_r+0x34>
 8007d0c:	692b      	ldr	r3, [r5, #16]
 8007d0e:	b99b      	cbnz	r3, 8007d38 <_vfiprintf_r+0x5c>
 8007d10:	4629      	mov	r1, r5
 8007d12:	4630      	mov	r0, r6
 8007d14:	f000 fb70 	bl	80083f8 <__swsetup_r>
 8007d18:	b170      	cbz	r0, 8007d38 <_vfiprintf_r+0x5c>
 8007d1a:	6e6b      	ldr	r3, [r5, #100]	@ 0x64
 8007d1c:	07dc      	lsls	r4, r3, #31
 8007d1e:	d504      	bpl.n	8007d2a <_vfiprintf_r+0x4e>
 8007d20:	f04f 30ff 	mov.w	r0, #4294967295
 8007d24:	b01d      	add	sp, #116	@ 0x74
 8007d26:	e8bd 8ff0 	ldmia.w	sp!, {r4, r5, r6, r7, r8, r9, sl, fp, pc}
 8007d2a:	89ab      	ldrh	r3, [r5, #12]
 8007d2c:	0598      	lsls	r0, r3, #22
 8007d2e:	d4f7      	bmi.n	8007d20 <_vfiprintf_r+0x44>
 8007d30:	6da8      	ldr	r0, [r5, #88]	@ 0x58
 8007d32:	f7ff fea1 	bl	8007a78 <__retarget_lock_release_recursive>
 8007d36:	e7f3      	b.n	8007d20 <_vfiprintf_r+0x44>
 8007d38:	2300      	movs	r3, #0
 8007d3a:	9309      	str	r3, [sp, #36]	@ 0x24
 8007d3c:	2320      	movs	r3, #32
 8007d3e:	f88d 3029 	strb.w	r3, [sp, #41]	@ 0x29
 8007d42:	f8cd 800c 	str.w	r8, [sp, #12]
 8007d46:	2330      	movs	r3, #48	@ 0x30
 8007d48:	f8df 81ac 	ldr.w	r8, [pc, #428]	@ 8007ef8 <_vfiprintf_r+0x21c>
 8007d4c:	f88d 302a 	strb.w	r3, [sp, #42]	@ 0x2a
 8007d50:	f04f 0901 	mov.w	r9, #1
 8007d54:	4623      	mov	r3, r4
 8007d56:	469a      	mov	sl, r3
 8007d58:	f813 2b01 	ldrb.w	r2, [r3], #1
 8007d5c:	b10a      	cbz	r2, 8007d62 <_vfiprintf_r+0x86>
 8007d5e:	2a25      	cmp	r2, #37	@ 0x25
 8007d60:	d1f9      	bne.n	8007d56 <_vfiprintf_r+0x7a>
 8007d62:	ebba 0b04 	subs.w	fp, sl, r4
 8007d66:	d00b      	beq.n	8007d80 <_vfiprintf_r+0xa4>
 8007d68:	465b      	mov	r3, fp
 8007d6a:	4622      	mov	r2, r4
 8007d6c:	4629      	mov	r1, r5
 8007d6e:	4630      	mov	r0, r6
 8007d70:	f7ff ffa1 	bl	8007cb6 <__sfputs_r>
 8007d74:	3001      	adds	r0, #1
 8007d76:	f000 80a7 	beq.w	8007ec8 <_vfiprintf_r+0x1ec>
 8007d7a:	9a09      	ldr	r2, [sp, #36]	@ 0x24
 8007d7c:	445a      	add	r2, fp
 8007d7e:	9209      	str	r2, [sp, #36]	@ 0x24
 8007d80:	f89a 3000 	ldrb.w	r3, [sl]
 8007d84:	2b00      	cmp	r3, #0
 8007d86:	f000 809f 	beq.w	8007ec8 <_vfiprintf_r+0x1ec>
 8007d8a:	2300      	movs	r3, #0
 8007d8c:	f04f 32ff 	mov.w	r2, #4294967295
 8007d90:	e9cd 2305 	strd	r2, r3, [sp, #20]
 8007d94:	f10a 0a01 	add.w	sl, sl, #1
 8007d98:	9304      	str	r3, [sp, #16]
 8007d9a:	9307      	str	r3, [sp, #28]
 8007d9c:	f88d 3053 	strb.w	r3, [sp, #83]	@ 0x53
 8007da0:	931a      	str	r3, [sp, #104]	@ 0x68
 8007da2:	4654      	mov	r4, sl
 8007da4:	2205      	movs	r2, #5
 8007da6:	f814 1b01 	ldrb.w	r1, [r4], #1
 8007daa:	4853      	ldr	r0, [pc, #332]	@ (8007ef8 <_vfiprintf_r+0x21c>)
 8007dac:	f7f8 fa18 	bl	80001e0 <memchr>
 8007db0:	9a04      	ldr	r2, [sp, #16]
 8007db2:	b9d8      	cbnz	r0, 8007dec <_vfiprintf_r+0x110>
 8007db4:	06d1      	lsls	r1, r2, #27
 8007db6:	bf44      	itt	mi
 8007db8:	2320      	movmi	r3, #32
 8007dba:	f88d 3053 	strbmi.w	r3, [sp, #83]	@ 0x53
 8007dbe:	0713      	lsls	r3, r2, #28
 8007dc0:	bf44      	itt	mi
 8007dc2:	232b      	movmi	r3, #43	@ 0x2b
 8007dc4:	f88d 3053 	strbmi.w	r3, [sp, #83]	@ 0x53
 8007dc8:	f89a 3000 	ldrb.w	r3, [sl]
 8007dcc:	2b2a      	cmp	r3, #42	@ 0x2a
 8007dce:	d015      	beq.n	8007dfc <_vfiprintf_r+0x120>
 8007dd0:	9a07      	ldr	r2, [sp, #28]
 8007dd2:	4654      	mov	r4, sl
 8007dd4:	2000      	movs	r0, #0
 8007dd6:	f04f 0c0a 	mov.w	ip, #10
 8007dda:	4621      	mov	r1, r4
 8007ddc:	f811 3b01 	ldrb.w	r3, [r1], #1
 8007de0:	3b30      	subs	r3, #48	@ 0x30
 8007de2:	2b09      	cmp	r3, #9
 8007de4:	d94b      	bls.n	8007e7e <_vfiprintf_r+0x1a2>
 8007de6:	b1b0      	cbz	r0, 8007e16 <_vfiprintf_r+0x13a>
 8007de8:	9207      	str	r2, [sp, #28]
 8007dea:	e014      	b.n	8007e16 <_vfiprintf_r+0x13a>
 8007dec:	eba0 0308 	sub.w	r3, r0, r8
 8007df0:	fa09 f303 	lsl.w	r3, r9, r3
 8007df4:	4313      	orrs	r3, r2
 8007df6:	9304      	str	r3, [sp, #16]
 8007df8:	46a2      	mov	sl, r4
 8007dfa:	e7d2      	b.n	8007da2 <_vfiprintf_r+0xc6>
 8007dfc:	9b03      	ldr	r3, [sp, #12]
 8007dfe:	1d19      	adds	r1, r3, #4
 8007e00:	681b      	ldr	r3, [r3, #0]
 8007e02:	9103      	str	r1, [sp, #12]
 8007e04:	2b00      	cmp	r3, #0
 8007e06:	bfbb      	ittet	lt
 8007e08:	425b      	neglt	r3, r3
 8007e0a:	f042 0202 	orrlt.w	r2, r2, #2
 8007e0e:	9307      	strge	r3, [sp, #28]
 8007e10:	9307      	strlt	r3, [sp, #28]
 8007e12:	bfb8      	it	lt
 8007e14:	9204      	strlt	r2, [sp, #16]
 8007e16:	7823      	ldrb	r3, [r4, #0]
 8007e18:	2b2e      	cmp	r3, #46	@ 0x2e
 8007e1a:	d10a      	bne.n	8007e32 <_vfiprintf_r+0x156>
 8007e1c:	7863      	ldrb	r3, [r4, #1]
 8007e1e:	2b2a      	cmp	r3, #42	@ 0x2a
 8007e20:	d132      	bne.n	8007e88 <_vfiprintf_r+0x1ac>
 8007e22:	9b03      	ldr	r3, [sp, #12]
 8007e24:	1d1a      	adds	r2, r3, #4
 8007e26:	681b      	ldr	r3, [r3, #0]
 8007e28:	9203      	str	r2, [sp, #12]
 8007e2a:	ea43 73e3 	orr.w	r3, r3, r3, asr #31
 8007e2e:	3402      	adds	r4, #2
 8007e30:	9305      	str	r3, [sp, #20]
 8007e32:	f8df a0d4 	ldr.w	sl, [pc, #212]	@ 8007f08 <_vfiprintf_r+0x22c>
 8007e36:	7821      	ldrb	r1, [r4, #0]
 8007e38:	2203      	movs	r2, #3
 8007e3a:	4650      	mov	r0, sl
 8007e3c:	f7f8 f9d0 	bl	80001e0 <memchr>
 8007e40:	b138      	cbz	r0, 8007e52 <_vfiprintf_r+0x176>
 8007e42:	9b04      	ldr	r3, [sp, #16]
 8007e44:	eba0 000a 	sub.w	r0, r0, sl
 8007e48:	2240      	movs	r2, #64	@ 0x40
 8007e4a:	4082      	lsls	r2, r0
 8007e4c:	4313      	orrs	r3, r2
 8007e4e:	3401      	adds	r4, #1
 8007e50:	9304      	str	r3, [sp, #16]
 8007e52:	f814 1b01 	ldrb.w	r1, [r4], #1
 8007e56:	4829      	ldr	r0, [pc, #164]	@ (8007efc <_vfiprintf_r+0x220>)
 8007e58:	f88d 1028 	strb.w	r1, [sp, #40]	@ 0x28
 8007e5c:	2206      	movs	r2, #6
 8007e5e:	f7f8 f9bf 	bl	80001e0 <memchr>
 8007e62:	2800      	cmp	r0, #0
 8007e64:	d03f      	beq.n	8007ee6 <_vfiprintf_r+0x20a>
 8007e66:	4b26      	ldr	r3, [pc, #152]	@ (8007f00 <_vfiprintf_r+0x224>)
 8007e68:	bb1b      	cbnz	r3, 8007eb2 <_vfiprintf_r+0x1d6>
 8007e6a:	9b03      	ldr	r3, [sp, #12]
 8007e6c:	3307      	adds	r3, #7
 8007e6e:	f023 0307 	bic.w	r3, r3, #7
 8007e72:	3308      	adds	r3, #8
 8007e74:	9303      	str	r3, [sp, #12]
 8007e76:	9b09      	ldr	r3, [sp, #36]	@ 0x24
 8007e78:	443b      	add	r3, r7
 8007e7a:	9309      	str	r3, [sp, #36]	@ 0x24
 8007e7c:	e76a      	b.n	8007d54 <_vfiprintf_r+0x78>
 8007e7e:	fb0c 3202 	mla	r2, ip, r2, r3
 8007e82:	460c      	mov	r4, r1
 8007e84:	2001      	movs	r0, #1
 8007e86:	e7a8      	b.n	8007dda <_vfiprintf_r+0xfe>
 8007e88:	2300      	movs	r3, #0
 8007e8a:	3401      	adds	r4, #1
 8007e8c:	9305      	str	r3, [sp, #20]
 8007e8e:	4619      	mov	r1, r3
 8007e90:	f04f 0c0a 	mov.w	ip, #10
 8007e94:	4620      	mov	r0, r4
 8007e96:	f810 2b01 	ldrb.w	r2, [r0], #1
 8007e9a:	3a30      	subs	r2, #48	@ 0x30
 8007e9c:	2a09      	cmp	r2, #9
 8007e9e:	d903      	bls.n	8007ea8 <_vfiprintf_r+0x1cc>
 8007ea0:	2b00      	cmp	r3, #0
 8007ea2:	d0c6      	beq.n	8007e32 <_vfiprintf_r+0x156>
 8007ea4:	9105      	str	r1, [sp, #20]
 8007ea6:	e7c4      	b.n	8007e32 <_vfiprintf_r+0x156>
 8007ea8:	fb0c 2101 	mla	r1, ip, r1, r2
 8007eac:	4604      	mov	r4, r0
 8007eae:	2301      	movs	r3, #1
 8007eb0:	e7f0      	b.n	8007e94 <_vfiprintf_r+0x1b8>
 8007eb2:	ab03      	add	r3, sp, #12
 8007eb4:	9300      	str	r3, [sp, #0]
 8007eb6:	462a      	mov	r2, r5
 8007eb8:	4b12      	ldr	r3, [pc, #72]	@ (8007f04 <_vfiprintf_r+0x228>)
 8007eba:	a904      	add	r1, sp, #16
 8007ebc:	4630      	mov	r0, r6
 8007ebe:	f3af 8000 	nop.w
 8007ec2:	4607      	mov	r7, r0
 8007ec4:	1c78      	adds	r0, r7, #1
 8007ec6:	d1d6      	bne.n	8007e76 <_vfiprintf_r+0x19a>
 8007ec8:	6e6b      	ldr	r3, [r5, #100]	@ 0x64
 8007eca:	07d9      	lsls	r1, r3, #31
 8007ecc:	d405      	bmi.n	8007eda <_vfiprintf_r+0x1fe>
 8007ece:	89ab      	ldrh	r3, [r5, #12]
 8007ed0:	059a      	lsls	r2, r3, #22
 8007ed2:	d402      	bmi.n	8007eda <_vfiprintf_r+0x1fe>
 8007ed4:	6da8      	ldr	r0, [r5, #88]	@ 0x58
 8007ed6:	f7ff fdcf 	bl	8007a78 <__retarget_lock_release_recursive>
 8007eda:	89ab      	ldrh	r3, [r5, #12]
 8007edc:	065b      	lsls	r3, r3, #25
 8007ede:	f53f af1f 	bmi.w	8007d20 <_vfiprintf_r+0x44>
 8007ee2:	9809      	ldr	r0, [sp, #36]	@ 0x24
 8007ee4:	e71e      	b.n	8007d24 <_vfiprintf_r+0x48>
 8007ee6:	ab03      	add	r3, sp, #12
 8007ee8:	9300      	str	r3, [sp, #0]
 8007eea:	462a      	mov	r2, r5
 8007eec:	4b05      	ldr	r3, [pc, #20]	@ (8007f04 <_vfiprintf_r+0x228>)
 8007eee:	a904      	add	r1, sp, #16
 8007ef0:	4630      	mov	r0, r6
 8007ef2:	f000 f879 	bl	8007fe8 <_printf_i>
 8007ef6:	e7e4      	b.n	8007ec2 <_vfiprintf_r+0x1e6>
 8007ef8:	08008650 	.word	0x08008650
 8007efc:	0800865a 	.word	0x0800865a
 8007f00:	00000000 	.word	0x00000000
 8007f04:	08007cb7 	.word	0x08007cb7
 8007f08:	08008656 	.word	0x08008656

08007f0c <_printf_common>:
 8007f0c:	e92d 47f0 	stmdb	sp!, {r4, r5, r6, r7, r8, r9, sl, lr}
 8007f10:	4616      	mov	r6, r2
 8007f12:	4698      	mov	r8, r3
 8007f14:	688a      	ldr	r2, [r1, #8]
 8007f16:	690b      	ldr	r3, [r1, #16]
 8007f18:	f8dd 9020 	ldr.w	r9, [sp, #32]
 8007f1c:	4293      	cmp	r3, r2
 8007f1e:	bfb8      	it	lt
 8007f20:	4613      	movlt	r3, r2
 8007f22:	6033      	str	r3, [r6, #0]
 8007f24:	f891 2043 	ldrb.w	r2, [r1, #67]	@ 0x43
 8007f28:	4607      	mov	r7, r0
 8007f2a:	460c      	mov	r4, r1
 8007f2c:	b10a      	cbz	r2, 8007f32 <_printf_common+0x26>
 8007f2e:	3301      	adds	r3, #1
 8007f30:	6033      	str	r3, [r6, #0]
 8007f32:	6823      	ldr	r3, [r4, #0]
 8007f34:	0699      	lsls	r1, r3, #26
 8007f36:	bf42      	ittt	mi
 8007f38:	6833      	ldrmi	r3, [r6, #0]
 8007f3a:	3302      	addmi	r3, #2
 8007f3c:	6033      	strmi	r3, [r6, #0]
 8007f3e:	6825      	ldr	r5, [r4, #0]
 8007f40:	f015 0506 	ands.w	r5, r5, #6
 8007f44:	d106      	bne.n	8007f54 <_printf_common+0x48>
 8007f46:	f104 0a19 	add.w	sl, r4, #25
 8007f4a:	68e3      	ldr	r3, [r4, #12]
 8007f4c:	6832      	ldr	r2, [r6, #0]
 8007f4e:	1a9b      	subs	r3, r3, r2
 8007f50:	42ab      	cmp	r3, r5
 8007f52:	dc26      	bgt.n	8007fa2 <_printf_common+0x96>
 8007f54:	f894 3043 	ldrb.w	r3, [r4, #67]	@ 0x43
 8007f58:	6822      	ldr	r2, [r4, #0]
 8007f5a:	3b00      	subs	r3, #0
 8007f5c:	bf18      	it	ne
 8007f5e:	2301      	movne	r3, #1
 8007f60:	0692      	lsls	r2, r2, #26
 8007f62:	d42b      	bmi.n	8007fbc <_printf_common+0xb0>
 8007f64:	f104 0243 	add.w	r2, r4, #67	@ 0x43
 8007f68:	4641      	mov	r1, r8
 8007f6a:	4638      	mov	r0, r7
 8007f6c:	47c8      	blx	r9
 8007f6e:	3001      	adds	r0, #1
 8007f70:	d01e      	beq.n	8007fb0 <_printf_common+0xa4>
 8007f72:	6823      	ldr	r3, [r4, #0]
 8007f74:	6922      	ldr	r2, [r4, #16]
 8007f76:	f003 0306 	and.w	r3, r3, #6
 8007f7a:	2b04      	cmp	r3, #4
 8007f7c:	bf02      	ittt	eq
 8007f7e:	68e5      	ldreq	r5, [r4, #12]
 8007f80:	6833      	ldreq	r3, [r6, #0]
 8007f82:	1aed      	subeq	r5, r5, r3
 8007f84:	68a3      	ldr	r3, [r4, #8]
 8007f86:	bf0c      	ite	eq
 8007f88:	ea25 75e5 	biceq.w	r5, r5, r5, asr #31
 8007f8c:	2500      	movne	r5, #0
 8007f8e:	4293      	cmp	r3, r2
 8007f90:	bfc4      	itt	gt
 8007f92:	1a9b      	subgt	r3, r3, r2
 8007f94:	18ed      	addgt	r5, r5, r3
 8007f96:	2600      	movs	r6, #0
 8007f98:	341a      	adds	r4, #26
 8007f9a:	42b5      	cmp	r5, r6
 8007f9c:	d11a      	bne.n	8007fd4 <_printf_common+0xc8>
 8007f9e:	2000      	movs	r0, #0
 8007fa0:	e008      	b.n	8007fb4 <_printf_common+0xa8>
 8007fa2:	2301      	movs	r3, #1
 8007fa4:	4652      	mov	r2, sl
 8007fa6:	4641      	mov	r1, r8
 8007fa8:	4638      	mov	r0, r7
 8007faa:	47c8      	blx	r9
 8007fac:	3001      	adds	r0, #1
 8007fae:	d103      	bne.n	8007fb8 <_printf_common+0xac>
 8007fb0:	f04f 30ff 	mov.w	r0, #4294967295
 8007fb4:	e8bd 87f0 	ldmia.w	sp!, {r4, r5, r6, r7, r8, r9, sl, pc}
 8007fb8:	3501      	adds	r5, #1
 8007fba:	e7c6      	b.n	8007f4a <_printf_common+0x3e>
 8007fbc:	18e1      	adds	r1, r4, r3
 8007fbe:	1c5a      	adds	r2, r3, #1
 8007fc0:	2030      	movs	r0, #48	@ 0x30
 8007fc2:	f881 0043 	strb.w	r0, [r1, #67]	@ 0x43
 8007fc6:	4422      	add	r2, r4
 8007fc8:	f894 1045 	ldrb.w	r1, [r4, #69]	@ 0x45
 8007fcc:	f882 1043 	strb.w	r1, [r2, #67]	@ 0x43
 8007fd0:	3302      	adds	r3, #2
 8007fd2:	e7c7      	b.n	8007f64 <_printf_common+0x58>
 8007fd4:	2301      	movs	r3, #1
 8007fd6:	4622      	mov	r2, r4
 8007fd8:	4641      	mov	r1, r8
 8007fda:	4638      	mov	r0, r7
 8007fdc:	47c8      	blx	r9
 8007fde:	3001      	adds	r0, #1
 8007fe0:	d0e6      	beq.n	8007fb0 <_printf_common+0xa4>
 8007fe2:	3601      	adds	r6, #1
 8007fe4:	e7d9      	b.n	8007f9a <_printf_common+0x8e>
	...

08007fe8 <_printf_i>:
 8007fe8:	e92d 47ff 	stmdb	sp!, {r0, r1, r2, r3, r4, r5, r6, r7, r8, r9, sl, lr}
 8007fec:	7e0f      	ldrb	r7, [r1, #24]
 8007fee:	9e0c      	ldr	r6, [sp, #48]	@ 0x30
 8007ff0:	2f78      	cmp	r7, #120	@ 0x78
 8007ff2:	4691      	mov	r9, r2
 8007ff4:	4680      	mov	r8, r0
 8007ff6:	460c      	mov	r4, r1
 8007ff8:	469a      	mov	sl, r3
 8007ffa:	f101 0243 	add.w	r2, r1, #67	@ 0x43
 8007ffe:	d807      	bhi.n	8008010 <_printf_i+0x28>
 8008000:	2f62      	cmp	r7, #98	@ 0x62
 8008002:	d80a      	bhi.n	800801a <_printf_i+0x32>
 8008004:	2f00      	cmp	r7, #0
 8008006:	f000 80d1 	beq.w	80081ac <_printf_i+0x1c4>
 800800a:	2f58      	cmp	r7, #88	@ 0x58
 800800c:	f000 80b8 	beq.w	8008180 <_printf_i+0x198>
 8008010:	f104 0642 	add.w	r6, r4, #66	@ 0x42
 8008014:	f884 7042 	strb.w	r7, [r4, #66]	@ 0x42
 8008018:	e03a      	b.n	8008090 <_printf_i+0xa8>
 800801a:	f1a7 0363 	sub.w	r3, r7, #99	@ 0x63
 800801e:	2b15      	cmp	r3, #21
 8008020:	d8f6      	bhi.n	8008010 <_printf_i+0x28>
 8008022:	a101      	add	r1, pc, #4	@ (adr r1, 8008028 <_printf_i+0x40>)
 8008024:	f851 f023 	ldr.w	pc, [r1, r3, lsl #2]
 8008028:	08008081 	.word	0x08008081
 800802c:	08008095 	.word	0x08008095
 8008030:	08008011 	.word	0x08008011
 8008034:	08008011 	.word	0x08008011
 8008038:	08008011 	.word	0x08008011
 800803c:	08008011 	.word	0x08008011
 8008040:	08008095 	.word	0x08008095
 8008044:	08008011 	.word	0x08008011
 8008048:	08008011 	.word	0x08008011
 800804c:	08008011 	.word	0x08008011
 8008050:	08008011 	.word	0x08008011
 8008054:	08008193 	.word	0x08008193
 8008058:	080080bf 	.word	0x080080bf
 800805c:	0800814d 	.word	0x0800814d
 8008060:	08008011 	.word	0x08008011
 8008064:	08008011 	.word	0x08008011
 8008068:	080081b5 	.word	0x080081b5
 800806c:	08008011 	.word	0x08008011
 8008070:	080080bf 	.word	0x080080bf
 8008074:	08008011 	.word	0x08008011
 8008078:	08008011 	.word	0x08008011
 800807c:	08008155 	.word	0x08008155
 8008080:	6833      	ldr	r3, [r6, #0]
 8008082:	1d1a      	adds	r2, r3, #4
 8008084:	681b      	ldr	r3, [r3, #0]
 8008086:	6032      	str	r2, [r6, #0]
 8008088:	f104 0642 	add.w	r6, r4, #66	@ 0x42
 800808c:	f884 3042 	strb.w	r3, [r4, #66]	@ 0x42
 8008090:	2301      	movs	r3, #1
 8008092:	e09c      	b.n	80081ce <_printf_i+0x1e6>
 8008094:	6833      	ldr	r3, [r6, #0]
 8008096:	6820      	ldr	r0, [r4, #0]
 8008098:	1d19      	adds	r1, r3, #4
 800809a:	6031      	str	r1, [r6, #0]
 800809c:	0606      	lsls	r6, r0, #24
 800809e:	d501      	bpl.n	80080a4 <_printf_i+0xbc>
 80080a0:	681d      	ldr	r5, [r3, #0]
 80080a2:	e003      	b.n	80080ac <_printf_i+0xc4>
 80080a4:	0645      	lsls	r5, r0, #25
 80080a6:	d5fb      	bpl.n	80080a0 <_printf_i+0xb8>
 80080a8:	f9b3 5000 	ldrsh.w	r5, [r3]
 80080ac:	2d00      	cmp	r5, #0
 80080ae:	da03      	bge.n	80080b8 <_printf_i+0xd0>
 80080b0:	232d      	movs	r3, #45	@ 0x2d
 80080b2:	426d      	negs	r5, r5
 80080b4:	f884 3043 	strb.w	r3, [r4, #67]	@ 0x43
 80080b8:	4858      	ldr	r0, [pc, #352]	@ (800821c <_printf_i+0x234>)
 80080ba:	230a      	movs	r3, #10
 80080bc:	e011      	b.n	80080e2 <_printf_i+0xfa>
 80080be:	6821      	ldr	r1, [r4, #0]
 80080c0:	6833      	ldr	r3, [r6, #0]
 80080c2:	0608      	lsls	r0, r1, #24
 80080c4:	f853 5b04 	ldr.w	r5, [r3], #4
 80080c8:	d402      	bmi.n	80080d0 <_printf_i+0xe8>
 80080ca:	0649      	lsls	r1, r1, #25
 80080cc:	bf48      	it	mi
 80080ce:	b2ad      	uxthmi	r5, r5
 80080d0:	2f6f      	cmp	r7, #111	@ 0x6f
 80080d2:	4852      	ldr	r0, [pc, #328]	@ (800821c <_printf_i+0x234>)
 80080d4:	6033      	str	r3, [r6, #0]
 80080d6:	bf14      	ite	ne
 80080d8:	230a      	movne	r3, #10
 80080da:	2308      	moveq	r3, #8
 80080dc:	2100      	movs	r1, #0
 80080de:	f884 1043 	strb.w	r1, [r4, #67]	@ 0x43
 80080e2:	6866      	ldr	r6, [r4, #4]
 80080e4:	60a6      	str	r6, [r4, #8]
 80080e6:	2e00      	cmp	r6, #0
 80080e8:	db05      	blt.n	80080f6 <_printf_i+0x10e>
 80080ea:	6821      	ldr	r1, [r4, #0]
 80080ec:	432e      	orrs	r6, r5
 80080ee:	f021 0104 	bic.w	r1, r1, #4
 80080f2:	6021      	str	r1, [r4, #0]
 80080f4:	d04b      	beq.n	800818e <_printf_i+0x1a6>
 80080f6:	4616      	mov	r6, r2
 80080f8:	fbb5 f1f3 	udiv	r1, r5, r3
 80080fc:	fb03 5711 	mls	r7, r3, r1, r5
 8008100:	5dc7      	ldrb	r7, [r0, r7]
 8008102:	f806 7d01 	strb.w	r7, [r6, #-1]!
 8008106:	462f      	mov	r7, r5
 8008108:	42bb      	cmp	r3, r7
 800810a:	460d      	mov	r5, r1
 800810c:	d9f4      	bls.n	80080f8 <_printf_i+0x110>
 800810e:	2b08      	cmp	r3, #8
 8008110:	d10b      	bne.n	800812a <_printf_i+0x142>
 8008112:	6823      	ldr	r3, [r4, #0]
 8008114:	07df      	lsls	r7, r3, #31
 8008116:	d508      	bpl.n	800812a <_printf_i+0x142>
 8008118:	6923      	ldr	r3, [r4, #16]
 800811a:	6861      	ldr	r1, [r4, #4]
 800811c:	4299      	cmp	r1, r3
 800811e:	bfde      	ittt	le
 8008120:	2330      	movle	r3, #48	@ 0x30
 8008122:	f806 3c01 	strble.w	r3, [r6, #-1]
 8008126:	f106 36ff 	addle.w	r6, r6, #4294967295
 800812a:	1b92      	subs	r2, r2, r6
 800812c:	6122      	str	r2, [r4, #16]
 800812e:	f8cd a000 	str.w	sl, [sp]
 8008132:	464b      	mov	r3, r9
 8008134:	aa03      	add	r2, sp, #12
 8008136:	4621      	mov	r1, r4
 8008138:	4640      	mov	r0, r8
 800813a:	f7ff fee7 	bl	8007f0c <_printf_common>
 800813e:	3001      	adds	r0, #1
 8008140:	d14a      	bne.n	80081d8 <_printf_i+0x1f0>
 8008142:	f04f 30ff 	mov.w	r0, #4294967295
 8008146:	b004      	add	sp, #16
 8008148:	e8bd 87f0 	ldmia.w	sp!, {r4, r5, r6, r7, r8, r9, sl, pc}
 800814c:	6823      	ldr	r3, [r4, #0]
 800814e:	f043 0320 	orr.w	r3, r3, #32
 8008152:	6023      	str	r3, [r4, #0]
 8008154:	4832      	ldr	r0, [pc, #200]	@ (8008220 <_printf_i+0x238>)
 8008156:	2778      	movs	r7, #120	@ 0x78
 8008158:	f884 7045 	strb.w	r7, [r4, #69]	@ 0x45
 800815c:	6823      	ldr	r3, [r4, #0]
 800815e:	6831      	ldr	r1, [r6, #0]
 8008160:	061f      	lsls	r7, r3, #24
 8008162:	f851 5b04 	ldr.w	r5, [r1], #4
 8008166:	d402      	bmi.n	800816e <_printf_i+0x186>
 8008168:	065f      	lsls	r7, r3, #25
 800816a:	bf48      	it	mi
 800816c:	b2ad      	uxthmi	r5, r5
 800816e:	6031      	str	r1, [r6, #0]
 8008170:	07d9      	lsls	r1, r3, #31
 8008172:	bf44      	itt	mi
 8008174:	f043 0320 	orrmi.w	r3, r3, #32
 8008178:	6023      	strmi	r3, [r4, #0]
 800817a:	b11d      	cbz	r5, 8008184 <_printf_i+0x19c>
 800817c:	2310      	movs	r3, #16
 800817e:	e7ad      	b.n	80080dc <_printf_i+0xf4>
 8008180:	4826      	ldr	r0, [pc, #152]	@ (800821c <_printf_i+0x234>)
 8008182:	e7e9      	b.n	8008158 <_printf_i+0x170>
 8008184:	6823      	ldr	r3, [r4, #0]
 8008186:	f023 0320 	bic.w	r3, r3, #32
 800818a:	6023      	str	r3, [r4, #0]
 800818c:	e7f6      	b.n	800817c <_printf_i+0x194>
 800818e:	4616      	mov	r6, r2
 8008190:	e7bd      	b.n	800810e <_printf_i+0x126>
 8008192:	6833      	ldr	r3, [r6, #0]
 8008194:	6825      	ldr	r5, [r4, #0]
 8008196:	6961      	ldr	r1, [r4, #20]
 8008198:	1d18      	adds	r0, r3, #4
 800819a:	6030      	str	r0, [r6, #0]
 800819c:	062e      	lsls	r6, r5, #24
 800819e:	681b      	ldr	r3, [r3, #0]
 80081a0:	d501      	bpl.n	80081a6 <_printf_i+0x1be>
 80081a2:	6019      	str	r1, [r3, #0]
 80081a4:	e002      	b.n	80081ac <_printf_i+0x1c4>
 80081a6:	0668      	lsls	r0, r5, #25
 80081a8:	d5fb      	bpl.n	80081a2 <_printf_i+0x1ba>
 80081aa:	8019      	strh	r1, [r3, #0]
 80081ac:	2300      	movs	r3, #0
 80081ae:	6123      	str	r3, [r4, #16]
 80081b0:	4616      	mov	r6, r2
 80081b2:	e7bc      	b.n	800812e <_printf_i+0x146>
 80081b4:	6833      	ldr	r3, [r6, #0]
 80081b6:	1d1a      	adds	r2, r3, #4
 80081b8:	6032      	str	r2, [r6, #0]
 80081ba:	681e      	ldr	r6, [r3, #0]
 80081bc:	6862      	ldr	r2, [r4, #4]
 80081be:	2100      	movs	r1, #0
 80081c0:	4630      	mov	r0, r6
 80081c2:	f7f8 f80d 	bl	80001e0 <memchr>
 80081c6:	b108      	cbz	r0, 80081cc <_printf_i+0x1e4>
 80081c8:	1b80      	subs	r0, r0, r6
 80081ca:	6060      	str	r0, [r4, #4]
 80081cc:	6863      	ldr	r3, [r4, #4]
 80081ce:	6123      	str	r3, [r4, #16]
 80081d0:	2300      	movs	r3, #0
 80081d2:	f884 3043 	strb.w	r3, [r4, #67]	@ 0x43
 80081d6:	e7aa      	b.n	800812e <_printf_i+0x146>
 80081d8:	6923      	ldr	r3, [r4, #16]
 80081da:	4632      	mov	r2, r6
 80081dc:	4649      	mov	r1, r9
 80081de:	4640      	mov	r0, r8
 80081e0:	47d0      	blx	sl
 80081e2:	3001      	adds	r0, #1
 80081e4:	d0ad      	beq.n	8008142 <_printf_i+0x15a>
 80081e6:	6823      	ldr	r3, [r4, #0]
 80081e8:	079b      	lsls	r3, r3, #30
 80081ea:	d413      	bmi.n	8008214 <_printf_i+0x22c>
 80081ec:	68e0      	ldr	r0, [r4, #12]
 80081ee:	9b03      	ldr	r3, [sp, #12]
 80081f0:	4298      	cmp	r0, r3
 80081f2:	bfb8      	it	lt
 80081f4:	4618      	movlt	r0, r3
 80081f6:	e7a6      	b.n	8008146 <_printf_i+0x15e>
 80081f8:	2301      	movs	r3, #1
 80081fa:	4632      	mov	r2, r6
 80081fc:	4649      	mov	r1, r9
 80081fe:	4640      	mov	r0, r8
 8008200:	47d0      	blx	sl
 8008202:	3001      	adds	r0, #1
 8008204:	d09d      	beq.n	8008142 <_printf_i+0x15a>
 8008206:	3501      	adds	r5, #1
 8008208:	68e3      	ldr	r3, [r4, #12]
 800820a:	9903      	ldr	r1, [sp, #12]
 800820c:	1a5b      	subs	r3, r3, r1
 800820e:	42ab      	cmp	r3, r5
 8008210:	dcf2      	bgt.n	80081f8 <_printf_i+0x210>
 8008212:	e7eb      	b.n	80081ec <_printf_i+0x204>
 8008214:	2500      	movs	r5, #0
 8008216:	f104 0619 	add.w	r6, r4, #25
 800821a:	e7f5      	b.n	8008208 <_printf_i+0x220>
 800821c:	08008661 	.word	0x08008661
 8008220:	08008672 	.word	0x08008672

08008224 <__sflush_r>:
 8008224:	f9b1 200c 	ldrsh.w	r2, [r1, #12]
 8008228:	e92d 41f0 	stmdb	sp!, {r4, r5, r6, r7, r8, lr}
 800822c:	0716      	lsls	r6, r2, #28
 800822e:	4605      	mov	r5, r0
 8008230:	460c      	mov	r4, r1
 8008232:	d454      	bmi.n	80082de <__sflush_r+0xba>
 8008234:	684b      	ldr	r3, [r1, #4]
 8008236:	2b00      	cmp	r3, #0
 8008238:	dc02      	bgt.n	8008240 <__sflush_r+0x1c>
 800823a:	6c0b      	ldr	r3, [r1, #64]	@ 0x40
 800823c:	2b00      	cmp	r3, #0
 800823e:	dd48      	ble.n	80082d2 <__sflush_r+0xae>
 8008240:	6ae6      	ldr	r6, [r4, #44]	@ 0x2c
 8008242:	2e00      	cmp	r6, #0
 8008244:	d045      	beq.n	80082d2 <__sflush_r+0xae>
 8008246:	2300      	movs	r3, #0
 8008248:	f412 5280 	ands.w	r2, r2, #4096	@ 0x1000
 800824c:	682f      	ldr	r7, [r5, #0]
 800824e:	6a21      	ldr	r1, [r4, #32]
 8008250:	602b      	str	r3, [r5, #0]
 8008252:	d030      	beq.n	80082b6 <__sflush_r+0x92>
 8008254:	6d62      	ldr	r2, [r4, #84]	@ 0x54
 8008256:	89a3      	ldrh	r3, [r4, #12]
 8008258:	0759      	lsls	r1, r3, #29
 800825a:	d505      	bpl.n	8008268 <__sflush_r+0x44>
 800825c:	6863      	ldr	r3, [r4, #4]
 800825e:	1ad2      	subs	r2, r2, r3
 8008260:	6b63      	ldr	r3, [r4, #52]	@ 0x34
 8008262:	b10b      	cbz	r3, 8008268 <__sflush_r+0x44>
 8008264:	6c23      	ldr	r3, [r4, #64]	@ 0x40
 8008266:	1ad2      	subs	r2, r2, r3
 8008268:	2300      	movs	r3, #0
 800826a:	6ae6      	ldr	r6, [r4, #44]	@ 0x2c
 800826c:	6a21      	ldr	r1, [r4, #32]
 800826e:	4628      	mov	r0, r5
 8008270:	47b0      	blx	r6
 8008272:	1c43      	adds	r3, r0, #1
 8008274:	89a3      	ldrh	r3, [r4, #12]
 8008276:	d106      	bne.n	8008286 <__sflush_r+0x62>
 8008278:	6829      	ldr	r1, [r5, #0]
 800827a:	291d      	cmp	r1, #29
 800827c:	d82b      	bhi.n	80082d6 <__sflush_r+0xb2>
 800827e:	4a2a      	ldr	r2, [pc, #168]	@ (8008328 <__sflush_r+0x104>)
 8008280:	40ca      	lsrs	r2, r1
 8008282:	07d6      	lsls	r6, r2, #31
 8008284:	d527      	bpl.n	80082d6 <__sflush_r+0xb2>
 8008286:	2200      	movs	r2, #0
 8008288:	6062      	str	r2, [r4, #4]
 800828a:	04d9      	lsls	r1, r3, #19
 800828c:	6922      	ldr	r2, [r4, #16]
 800828e:	6022      	str	r2, [r4, #0]
 8008290:	d504      	bpl.n	800829c <__sflush_r+0x78>
 8008292:	1c42      	adds	r2, r0, #1
 8008294:	d101      	bne.n	800829a <__sflush_r+0x76>
 8008296:	682b      	ldr	r3, [r5, #0]
 8008298:	b903      	cbnz	r3, 800829c <__sflush_r+0x78>
 800829a:	6560      	str	r0, [r4, #84]	@ 0x54
 800829c:	6b61      	ldr	r1, [r4, #52]	@ 0x34
 800829e:	602f      	str	r7, [r5, #0]
 80082a0:	b1b9      	cbz	r1, 80082d2 <__sflush_r+0xae>
 80082a2:	f104 0344 	add.w	r3, r4, #68	@ 0x44
 80082a6:	4299      	cmp	r1, r3
 80082a8:	d002      	beq.n	80082b0 <__sflush_r+0x8c>
 80082aa:	4628      	mov	r0, r5
 80082ac:	f7ff fbf4 	bl	8007a98 <_free_r>
 80082b0:	2300      	movs	r3, #0
 80082b2:	6363      	str	r3, [r4, #52]	@ 0x34
 80082b4:	e00d      	b.n	80082d2 <__sflush_r+0xae>
 80082b6:	2301      	movs	r3, #1
 80082b8:	4628      	mov	r0, r5
 80082ba:	47b0      	blx	r6
 80082bc:	4602      	mov	r2, r0
 80082be:	1c50      	adds	r0, r2, #1
 80082c0:	d1c9      	bne.n	8008256 <__sflush_r+0x32>
 80082c2:	682b      	ldr	r3, [r5, #0]
 80082c4:	2b00      	cmp	r3, #0
 80082c6:	d0c6      	beq.n	8008256 <__sflush_r+0x32>
 80082c8:	2b1d      	cmp	r3, #29
 80082ca:	d001      	beq.n	80082d0 <__sflush_r+0xac>
 80082cc:	2b16      	cmp	r3, #22
 80082ce:	d11e      	bne.n	800830e <__sflush_r+0xea>
 80082d0:	602f      	str	r7, [r5, #0]
 80082d2:	2000      	movs	r0, #0
 80082d4:	e022      	b.n	800831c <__sflush_r+0xf8>
 80082d6:	f043 0340 	orr.w	r3, r3, #64	@ 0x40
 80082da:	b21b      	sxth	r3, r3
 80082dc:	e01b      	b.n	8008316 <__sflush_r+0xf2>
 80082de:	690f      	ldr	r7, [r1, #16]
 80082e0:	2f00      	cmp	r7, #0
 80082e2:	d0f6      	beq.n	80082d2 <__sflush_r+0xae>
 80082e4:	0793      	lsls	r3, r2, #30
 80082e6:	680e      	ldr	r6, [r1, #0]
 80082e8:	bf08      	it	eq
 80082ea:	694b      	ldreq	r3, [r1, #20]
 80082ec:	600f      	str	r7, [r1, #0]
 80082ee:	bf18      	it	ne
 80082f0:	2300      	movne	r3, #0
 80082f2:	eba6 0807 	sub.w	r8, r6, r7
 80082f6:	608b      	str	r3, [r1, #8]
 80082f8:	f1b8 0f00 	cmp.w	r8, #0
 80082fc:	dde9      	ble.n	80082d2 <__sflush_r+0xae>
 80082fe:	6a21      	ldr	r1, [r4, #32]
 8008300:	6aa6      	ldr	r6, [r4, #40]	@ 0x28
 8008302:	4643      	mov	r3, r8
 8008304:	463a      	mov	r2, r7
 8008306:	4628      	mov	r0, r5
 8008308:	47b0      	blx	r6
 800830a:	2800      	cmp	r0, #0
 800830c:	dc08      	bgt.n	8008320 <__sflush_r+0xfc>
 800830e:	f9b4 300c 	ldrsh.w	r3, [r4, #12]
 8008312:	f043 0340 	orr.w	r3, r3, #64	@ 0x40
 8008316:	81a3      	strh	r3, [r4, #12]
 8008318:	f04f 30ff 	mov.w	r0, #4294967295
 800831c:	e8bd 81f0 	ldmia.w	sp!, {r4, r5, r6, r7, r8, pc}
 8008320:	4407      	add	r7, r0
 8008322:	eba8 0800 	sub.w	r8, r8, r0
 8008326:	e7e7      	b.n	80082f8 <__sflush_r+0xd4>
 8008328:	20400001 	.word	0x20400001

0800832c <_fflush_r>:
 800832c:	b538      	push	{r3, r4, r5, lr}
 800832e:	690b      	ldr	r3, [r1, #16]
 8008330:	4605      	mov	r5, r0
 8008332:	460c      	mov	r4, r1
 8008334:	b913      	cbnz	r3, 800833c <_fflush_r+0x10>
 8008336:	2500      	movs	r5, #0
 8008338:	4628      	mov	r0, r5
 800833a:	bd38      	pop	{r3, r4, r5, pc}
 800833c:	b118      	cbz	r0, 8008346 <_fflush_r+0x1a>
 800833e:	6a03      	ldr	r3, [r0, #32]
 8008340:	b90b      	cbnz	r3, 8008346 <_fflush_r+0x1a>
 8008342:	f7ff fa81 	bl	8007848 <__sinit>
 8008346:	f9b4 300c 	ldrsh.w	r3, [r4, #12]
 800834a:	2b00      	cmp	r3, #0
 800834c:	d0f3      	beq.n	8008336 <_fflush_r+0xa>
 800834e:	6e62      	ldr	r2, [r4, #100]	@ 0x64
 8008350:	07d0      	lsls	r0, r2, #31
 8008352:	d404      	bmi.n	800835e <_fflush_r+0x32>
 8008354:	0599      	lsls	r1, r3, #22
 8008356:	d402      	bmi.n	800835e <_fflush_r+0x32>
 8008358:	6da0      	ldr	r0, [r4, #88]	@ 0x58
 800835a:	f7ff fb8c 	bl	8007a76 <__retarget_lock_acquire_recursive>
 800835e:	4628      	mov	r0, r5
 8008360:	4621      	mov	r1, r4
 8008362:	f7ff ff5f 	bl	8008224 <__sflush_r>
 8008366:	6e63      	ldr	r3, [r4, #100]	@ 0x64
 8008368:	07da      	lsls	r2, r3, #31
 800836a:	4605      	mov	r5, r0
 800836c:	d4e4      	bmi.n	8008338 <_fflush_r+0xc>
 800836e:	89a3      	ldrh	r3, [r4, #12]
 8008370:	059b      	lsls	r3, r3, #22
 8008372:	d4e1      	bmi.n	8008338 <_fflush_r+0xc>
 8008374:	6da0      	ldr	r0, [r4, #88]	@ 0x58
 8008376:	f7ff fb7f 	bl	8007a78 <__retarget_lock_release_recursive>
 800837a:	e7dd      	b.n	8008338 <_fflush_r+0xc>

0800837c <__swbuf_r>:
 800837c:	b5f8      	push	{r3, r4, r5, r6, r7, lr}
 800837e:	460e      	mov	r6, r1
 8008380:	4614      	mov	r4, r2
 8008382:	4605      	mov	r5, r0
 8008384:	b118      	cbz	r0, 800838e <__swbuf_r+0x12>
 8008386:	6a03      	ldr	r3, [r0, #32]
 8008388:	b90b      	cbnz	r3, 800838e <__swbuf_r+0x12>
 800838a:	f7ff fa5d 	bl	8007848 <__sinit>
 800838e:	69a3      	ldr	r3, [r4, #24]
 8008390:	60a3      	str	r3, [r4, #8]
 8008392:	89a3      	ldrh	r3, [r4, #12]
 8008394:	071a      	lsls	r2, r3, #28
 8008396:	d501      	bpl.n	800839c <__swbuf_r+0x20>
 8008398:	6923      	ldr	r3, [r4, #16]
 800839a:	b943      	cbnz	r3, 80083ae <__swbuf_r+0x32>
 800839c:	4621      	mov	r1, r4
 800839e:	4628      	mov	r0, r5
 80083a0:	f000 f82a 	bl	80083f8 <__swsetup_r>
 80083a4:	b118      	cbz	r0, 80083ae <__swbuf_r+0x32>
 80083a6:	f04f 37ff 	mov.w	r7, #4294967295
 80083aa:	4638      	mov	r0, r7
 80083ac:	bdf8      	pop	{r3, r4, r5, r6, r7, pc}
 80083ae:	6823      	ldr	r3, [r4, #0]
 80083b0:	6922      	ldr	r2, [r4, #16]
 80083b2:	1a98      	subs	r0, r3, r2
 80083b4:	6963      	ldr	r3, [r4, #20]
 80083b6:	b2f6      	uxtb	r6, r6
 80083b8:	4283      	cmp	r3, r0
 80083ba:	4637      	mov	r7, r6
 80083bc:	dc05      	bgt.n	80083ca <__swbuf_r+0x4e>
 80083be:	4621      	mov	r1, r4
 80083c0:	4628      	mov	r0, r5
 80083c2:	f7ff ffb3 	bl	800832c <_fflush_r>
 80083c6:	2800      	cmp	r0, #0
 80083c8:	d1ed      	bne.n	80083a6 <__swbuf_r+0x2a>
 80083ca:	68a3      	ldr	r3, [r4, #8]
 80083cc:	3b01      	subs	r3, #1
 80083ce:	60a3      	str	r3, [r4, #8]
 80083d0:	6823      	ldr	r3, [r4, #0]
 80083d2:	1c5a      	adds	r2, r3, #1
 80083d4:	6022      	str	r2, [r4, #0]
 80083d6:	701e      	strb	r6, [r3, #0]
 80083d8:	6962      	ldr	r2, [r4, #20]
 80083da:	1c43      	adds	r3, r0, #1
 80083dc:	429a      	cmp	r2, r3
 80083de:	d004      	beq.n	80083ea <__swbuf_r+0x6e>
 80083e0:	89a3      	ldrh	r3, [r4, #12]
 80083e2:	07db      	lsls	r3, r3, #31
 80083e4:	d5e1      	bpl.n	80083aa <__swbuf_r+0x2e>
 80083e6:	2e0a      	cmp	r6, #10
 80083e8:	d1df      	bne.n	80083aa <__swbuf_r+0x2e>
 80083ea:	4621      	mov	r1, r4
 80083ec:	4628      	mov	r0, r5
 80083ee:	f7ff ff9d 	bl	800832c <_fflush_r>
 80083f2:	2800      	cmp	r0, #0
 80083f4:	d0d9      	beq.n	80083aa <__swbuf_r+0x2e>
 80083f6:	e7d6      	b.n	80083a6 <__swbuf_r+0x2a>

080083f8 <__swsetup_r>:
 80083f8:	b538      	push	{r3, r4, r5, lr}
 80083fa:	4b29      	ldr	r3, [pc, #164]	@ (80084a0 <__swsetup_r+0xa8>)
 80083fc:	4605      	mov	r5, r0
 80083fe:	6818      	ldr	r0, [r3, #0]
 8008400:	460c      	mov	r4, r1
 8008402:	b118      	cbz	r0, 800840c <__swsetup_r+0x14>
 8008404:	6a03      	ldr	r3, [r0, #32]
 8008406:	b90b      	cbnz	r3, 800840c <__swsetup_r+0x14>
 8008408:	f7ff fa1e 	bl	8007848 <__sinit>
 800840c:	f9b4 300c 	ldrsh.w	r3, [r4, #12]
 8008410:	0719      	lsls	r1, r3, #28
 8008412:	d422      	bmi.n	800845a <__swsetup_r+0x62>
 8008414:	06da      	lsls	r2, r3, #27
 8008416:	d407      	bmi.n	8008428 <__swsetup_r+0x30>
 8008418:	2209      	movs	r2, #9
 800841a:	602a      	str	r2, [r5, #0]
 800841c:	f043 0340 	orr.w	r3, r3, #64	@ 0x40
 8008420:	81a3      	strh	r3, [r4, #12]
 8008422:	f04f 30ff 	mov.w	r0, #4294967295
 8008426:	e033      	b.n	8008490 <__swsetup_r+0x98>
 8008428:	0758      	lsls	r0, r3, #29
 800842a:	d512      	bpl.n	8008452 <__swsetup_r+0x5a>
 800842c:	6b61      	ldr	r1, [r4, #52]	@ 0x34
 800842e:	b141      	cbz	r1, 8008442 <__swsetup_r+0x4a>
 8008430:	f104 0344 	add.w	r3, r4, #68	@ 0x44
 8008434:	4299      	cmp	r1, r3
 8008436:	d002      	beq.n	800843e <__swsetup_r+0x46>
 8008438:	4628      	mov	r0, r5
 800843a:	f7ff fb2d 	bl	8007a98 <_free_r>
 800843e:	2300      	movs	r3, #0
 8008440:	6363      	str	r3, [r4, #52]	@ 0x34
 8008442:	89a3      	ldrh	r3, [r4, #12]
 8008444:	f023 0324 	bic.w	r3, r3, #36	@ 0x24
 8008448:	81a3      	strh	r3, [r4, #12]
 800844a:	2300      	movs	r3, #0
 800844c:	6063      	str	r3, [r4, #4]
 800844e:	6923      	ldr	r3, [r4, #16]
 8008450:	6023      	str	r3, [r4, #0]
 8008452:	89a3      	ldrh	r3, [r4, #12]
 8008454:	f043 0308 	orr.w	r3, r3, #8
 8008458:	81a3      	strh	r3, [r4, #12]
 800845a:	6923      	ldr	r3, [r4, #16]
 800845c:	b94b      	cbnz	r3, 8008472 <__swsetup_r+0x7a>
 800845e:	89a3      	ldrh	r3, [r4, #12]
 8008460:	f403 7320 	and.w	r3, r3, #640	@ 0x280
 8008464:	f5b3 7f00 	cmp.w	r3, #512	@ 0x200
 8008468:	d003      	beq.n	8008472 <__swsetup_r+0x7a>
 800846a:	4621      	mov	r1, r4
 800846c:	4628      	mov	r0, r5
 800846e:	f000 f84f 	bl	8008510 <__smakebuf_r>
 8008472:	f9b4 300c 	ldrsh.w	r3, [r4, #12]
 8008476:	f013 0201 	ands.w	r2, r3, #1
 800847a:	d00a      	beq.n	8008492 <__swsetup_r+0x9a>
 800847c:	2200      	movs	r2, #0
 800847e:	60a2      	str	r2, [r4, #8]
 8008480:	6962      	ldr	r2, [r4, #20]
 8008482:	4252      	negs	r2, r2
 8008484:	61a2      	str	r2, [r4, #24]
 8008486:	6922      	ldr	r2, [r4, #16]
 8008488:	b942      	cbnz	r2, 800849c <__swsetup_r+0xa4>
 800848a:	f013 0080 	ands.w	r0, r3, #128	@ 0x80
 800848e:	d1c5      	bne.n	800841c <__swsetup_r+0x24>
 8008490:	bd38      	pop	{r3, r4, r5, pc}
 8008492:	0799      	lsls	r1, r3, #30
 8008494:	bf58      	it	pl
 8008496:	6962      	ldrpl	r2, [r4, #20]
 8008498:	60a2      	str	r2, [r4, #8]
 800849a:	e7f4      	b.n	8008486 <__swsetup_r+0x8e>
 800849c:	2000      	movs	r0, #0
 800849e:	e7f7      	b.n	8008490 <__swsetup_r+0x98>
 80084a0:	20000038 	.word	0x20000038

080084a4 <_sbrk_r>:
 80084a4:	b538      	push	{r3, r4, r5, lr}
 80084a6:	4d06      	ldr	r5, [pc, #24]	@ (80084c0 <_sbrk_r+0x1c>)
 80084a8:	2300      	movs	r3, #0
 80084aa:	4604      	mov	r4, r0
 80084ac:	4608      	mov	r0, r1
 80084ae:	602b      	str	r3, [r5, #0]
 80084b0:	f7fa ffdc 	bl	800346c <_sbrk>
 80084b4:	1c43      	adds	r3, r0, #1
 80084b6:	d102      	bne.n	80084be <_sbrk_r+0x1a>
 80084b8:	682b      	ldr	r3, [r5, #0]
 80084ba:	b103      	cbz	r3, 80084be <_sbrk_r+0x1a>
 80084bc:	6023      	str	r3, [r4, #0]
 80084be:	bd38      	pop	{r3, r4, r5, pc}
 80084c0:	200007fc 	.word	0x200007fc

080084c4 <__swhatbuf_r>:
 80084c4:	b570      	push	{r4, r5, r6, lr}
 80084c6:	460c      	mov	r4, r1
 80084c8:	f9b1 100e 	ldrsh.w	r1, [r1, #14]
 80084cc:	2900      	cmp	r1, #0
 80084ce:	b096      	sub	sp, #88	@ 0x58
 80084d0:	4615      	mov	r5, r2
 80084d2:	461e      	mov	r6, r3
 80084d4:	da0d      	bge.n	80084f2 <__swhatbuf_r+0x2e>
 80084d6:	89a3      	ldrh	r3, [r4, #12]
 80084d8:	f013 0f80 	tst.w	r3, #128	@ 0x80
 80084dc:	f04f 0100 	mov.w	r1, #0
 80084e0:	bf14      	ite	ne
 80084e2:	2340      	movne	r3, #64	@ 0x40
 80084e4:	f44f 6380 	moveq.w	r3, #1024	@ 0x400
 80084e8:	2000      	movs	r0, #0
 80084ea:	6031      	str	r1, [r6, #0]
 80084ec:	602b      	str	r3, [r5, #0]
 80084ee:	b016      	add	sp, #88	@ 0x58
 80084f0:	bd70      	pop	{r4, r5, r6, pc}
 80084f2:	466a      	mov	r2, sp
 80084f4:	f000 f848 	bl	8008588 <_fstat_r>
 80084f8:	2800      	cmp	r0, #0
 80084fa:	dbec      	blt.n	80084d6 <__swhatbuf_r+0x12>
 80084fc:	9901      	ldr	r1, [sp, #4]
 80084fe:	f401 4170 	and.w	r1, r1, #61440	@ 0xf000
 8008502:	f5a1 5300 	sub.w	r3, r1, #8192	@ 0x2000
 8008506:	4259      	negs	r1, r3
 8008508:	4159      	adcs	r1, r3
 800850a:	f44f 6380 	mov.w	r3, #1024	@ 0x400
 800850e:	e7eb      	b.n	80084e8 <__swhatbuf_r+0x24>

08008510 <__smakebuf_r>:
 8008510:	898b      	ldrh	r3, [r1, #12]
 8008512:	b5f7      	push	{r0, r1, r2, r4, r5, r6, r7, lr}
 8008514:	079d      	lsls	r5, r3, #30
 8008516:	4606      	mov	r6, r0
 8008518:	460c      	mov	r4, r1
 800851a:	d507      	bpl.n	800852c <__smakebuf_r+0x1c>
 800851c:	f104 0347 	add.w	r3, r4, #71	@ 0x47
 8008520:	6023      	str	r3, [r4, #0]
 8008522:	6123      	str	r3, [r4, #16]
 8008524:	2301      	movs	r3, #1
 8008526:	6163      	str	r3, [r4, #20]
 8008528:	b003      	add	sp, #12
 800852a:	bdf0      	pop	{r4, r5, r6, r7, pc}
 800852c:	ab01      	add	r3, sp, #4
 800852e:	466a      	mov	r2, sp
 8008530:	f7ff ffc8 	bl	80084c4 <__swhatbuf_r>
 8008534:	9f00      	ldr	r7, [sp, #0]
 8008536:	4605      	mov	r5, r0
 8008538:	4639      	mov	r1, r7
 800853a:	4630      	mov	r0, r6
 800853c:	f7ff fb18 	bl	8007b70 <_malloc_r>
 8008540:	b948      	cbnz	r0, 8008556 <__smakebuf_r+0x46>
 8008542:	f9b4 300c 	ldrsh.w	r3, [r4, #12]
 8008546:	059a      	lsls	r2, r3, #22
 8008548:	d4ee      	bmi.n	8008528 <__smakebuf_r+0x18>
 800854a:	f023 0303 	bic.w	r3, r3, #3
 800854e:	f043 0302 	orr.w	r3, r3, #2
 8008552:	81a3      	strh	r3, [r4, #12]
 8008554:	e7e2      	b.n	800851c <__smakebuf_r+0xc>
 8008556:	89a3      	ldrh	r3, [r4, #12]
 8008558:	6020      	str	r0, [r4, #0]
 800855a:	f043 0380 	orr.w	r3, r3, #128	@ 0x80
 800855e:	81a3      	strh	r3, [r4, #12]
 8008560:	9b01      	ldr	r3, [sp, #4]
 8008562:	e9c4 0704 	strd	r0, r7, [r4, #16]
 8008566:	b15b      	cbz	r3, 8008580 <__smakebuf_r+0x70>
 8008568:	f9b4 100e 	ldrsh.w	r1, [r4, #14]
 800856c:	4630      	mov	r0, r6
 800856e:	f000 f81d 	bl	80085ac <_isatty_r>
 8008572:	b128      	cbz	r0, 8008580 <__smakebuf_r+0x70>
 8008574:	89a3      	ldrh	r3, [r4, #12]
 8008576:	f023 0303 	bic.w	r3, r3, #3
 800857a:	f043 0301 	orr.w	r3, r3, #1
 800857e:	81a3      	strh	r3, [r4, #12]
 8008580:	89a3      	ldrh	r3, [r4, #12]
 8008582:	431d      	orrs	r5, r3
 8008584:	81a5      	strh	r5, [r4, #12]
 8008586:	e7cf      	b.n	8008528 <__smakebuf_r+0x18>

08008588 <_fstat_r>:
 8008588:	b538      	push	{r3, r4, r5, lr}
 800858a:	4d07      	ldr	r5, [pc, #28]	@ (80085a8 <_fstat_r+0x20>)
 800858c:	2300      	movs	r3, #0
 800858e:	4604      	mov	r4, r0
 8008590:	4608      	mov	r0, r1
 8008592:	4611      	mov	r1, r2
 8008594:	602b      	str	r3, [r5, #0]
 8008596:	f7fa ff40 	bl	800341a <_fstat>
 800859a:	1c43      	adds	r3, r0, #1
 800859c:	d102      	bne.n	80085a4 <_fstat_r+0x1c>
 800859e:	682b      	ldr	r3, [r5, #0]
 80085a0:	b103      	cbz	r3, 80085a4 <_fstat_r+0x1c>
 80085a2:	6023      	str	r3, [r4, #0]
 80085a4:	bd38      	pop	{r3, r4, r5, pc}
 80085a6:	bf00      	nop
 80085a8:	200007fc 	.word	0x200007fc

080085ac <_isatty_r>:
 80085ac:	b538      	push	{r3, r4, r5, lr}
 80085ae:	4d06      	ldr	r5, [pc, #24]	@ (80085c8 <_isatty_r+0x1c>)
 80085b0:	2300      	movs	r3, #0
 80085b2:	4604      	mov	r4, r0
 80085b4:	4608      	mov	r0, r1
 80085b6:	602b      	str	r3, [r5, #0]
 80085b8:	f7fa ff3f 	bl	800343a <_isatty>
 80085bc:	1c43      	adds	r3, r0, #1
 80085be:	d102      	bne.n	80085c6 <_isatty_r+0x1a>
 80085c0:	682b      	ldr	r3, [r5, #0]
 80085c2:	b103      	cbz	r3, 80085c6 <_isatty_r+0x1a>
 80085c4:	6023      	str	r3, [r4, #0]
 80085c6:	bd38      	pop	{r3, r4, r5, pc}
 80085c8:	200007fc 	.word	0x200007fc

080085cc <_init>:
 80085cc:	b5f8      	push	{r3, r4, r5, r6, r7, lr}
 80085ce:	bf00      	nop
 80085d0:	bcf8      	pop	{r3, r4, r5, r6, r7}
 80085d2:	bc08      	pop	{r3}
 80085d4:	469e      	mov	lr, r3
 80085d6:	4770      	bx	lr

080085d8 <_fini>:
 80085d8:	b5f8      	push	{r3, r4, r5, r6, r7, lr}
 80085da:	bf00      	nop
 80085dc:	bcf8      	pop	{r3, r4, r5, r6, r7}
 80085de:	bc08      	pop	{r3}
 80085e0:	469e      	mov	lr, r3
 80085e2:	4770      	bx	lr
